
c:/Users/SVO/GITSUCRE/Sucre4Kids/target/3.3.0/argon/Sucre4Kids.elf:     file format elf32-littlearm

Sections:
Idx Name          Size      VMA       LMA       File off  Algn
  0 .module_info  00000018  000b4000  000b4000  00004000  2**0
                  CONTENTS, ALLOC, LOAD, READONLY, DATA
  1 .dynalib      00000004  000b4018  000b4018  00004018  2**2
                  CONTENTS, ALLOC, LOAD, READONLY, DATA
  2 .text         00008c60  000b4020  000b4020  00004020  2**3
                  CONTENTS, ALLOC, LOAD, READONLY, CODE
  3 .note.gnu.build-id 00000024  000bcc80  000bcc80  0000cc80  2**2
                  CONTENTS, ALLOC, LOAD, READONLY, DATA
  4 .backup       00000004  2003f400  000bcca4  0000f400  2**2
                  CONTENTS, ALLOC, LOAD, DATA
  5 .data         000000b8  2003cc5c  000bcca8  0001cc5c  2**2
                  CONTENTS, ALLOC, LOAD, DATA
  6 .bss          00001adc  2003cd14  2003cd14  0002cd14  2**2
                  ALLOC
  7 .module_info_suffix 00000028  000bcd60  000bcd60  0001cd60  2**0
                  CONTENTS, ALLOC, LOAD, READONLY, DATA
  8 .module_info_crc 00000004  000bcd88  000bcd88  0001cd88  2**0
                  CONTENTS, ALLOC, LOAD, READONLY, DATA
  9 .debug_info   001670c5  00000000  00000000  0001cd8c  2**0
                  CONTENTS, READONLY, DEBUGGING, OCTETS
 10 .debug_abbrev 0001904d  00000000  00000000  00183e51  2**0
                  CONTENTS, READONLY, DEBUGGING, OCTETS
 11 .debug_loc    0005102e  00000000  00000000  0019ce9e  2**0
                  CONTENTS, READONLY, DEBUGGING, OCTETS
 12 .debug_aranges 00003778  00000000  00000000  001edecc  2**0
                  CONTENTS, READONLY, DEBUGGING, OCTETS
 13 .debug_ranges 0000bff0  00000000  00000000  001f1644  2**0
                  CONTENTS, READONLY, DEBUGGING, OCTETS
 14 .debug_macro  00044ce0  00000000  00000000  001fd634  2**0
                  CONTENTS, READONLY, DEBUGGING, OCTETS
 15 .debug_line   00059d45  00000000  00000000  00242314  2**0
                  CONTENTS, READONLY, DEBUGGING, OCTETS
 16 .debug_str    0013c4be  00000000  00000000  0029c059  2**0
                  CONTENTS, READONLY, DEBUGGING, OCTETS
 17 .debug_frame  0000a828  00000000  00000000  003d8518  2**2
                  CONTENTS, READONLY, DEBUGGING, OCTETS

Disassembly of section .text:

000b4020 <module_user_pre_init>:
/**
 * Initializes this user module. Returns the start of the heap.
 */
void* module_user_pre_init() {

    if ( (&link_global_data_start!=&link_global_data_initial_values) && (link_global_data_size != 0))
   b4020:	4809      	ldr	r0, [pc, #36]	; (b4048 <module_user_pre_init+0x28>)
   b4022:	490a      	ldr	r1, [pc, #40]	; (b404c <module_user_pre_init+0x2c>)
   b4024:	4288      	cmp	r0, r1
void* module_user_pre_init() {
   b4026:	b508      	push	{r3, lr}
    if ( (&link_global_data_start!=&link_global_data_initial_values) && (link_global_data_size != 0))
   b4028:	d005      	beq.n	b4036 <module_user_pre_init+0x16>
   b402a:	4a09      	ldr	r2, [pc, #36]	; (b4050 <module_user_pre_init+0x30>)
   b402c:	4282      	cmp	r2, r0
   b402e:	d002      	beq.n	b4036 <module_user_pre_init+0x16>
    {
        memcpy(&link_global_data_start, &link_global_data_initial_values, link_global_data_size);
   b4030:	1a12      	subs	r2, r2, r0
   b4032:	f006 fdc5 	bl	babc0 <memcpy>
    }

    memset(&link_bss_location, 0, link_bss_size );
   b4036:	4807      	ldr	r0, [pc, #28]	; (b4054 <module_user_pre_init+0x34>)
   b4038:	4a07      	ldr	r2, [pc, #28]	; (b4058 <module_user_pre_init+0x38>)
   b403a:	2100      	movs	r1, #0
   b403c:	1a12      	subs	r2, r2, r0
   b403e:	f006 fdcd 	bl	babdc <memset>
    return &link_global_data_start;
}
   b4042:	4801      	ldr	r0, [pc, #4]	; (b4048 <module_user_pre_init+0x28>)
   b4044:	bd08      	pop	{r3, pc}
   b4046:	bf00      	nop
   b4048:	2003cc5c 	.word	0x2003cc5c
   b404c:	000bcca8 	.word	0x000bcca8
   b4050:	2003cd14 	.word	0x2003cd14
   b4054:	2003cd14 	.word	0x2003cd14
   b4058:	2003e7ed 	.word	0x2003e7ed

000b405c <module_user_init>:
extern constructor_ptr_t link_constructors_location[];
extern constructor_ptr_t link_constructors_end;
#define link_constructors_size   ((unsigned long)&link_constructors_end  -  (unsigned long)&link_constructors_location )

void module_user_init()
{
   b405c:	b570      	push	{r4, r5, r6, lr}
    module_user_init_hook();

    // invoke constructors
    for (size_t ctor_num=0; ctor_num < link_constructors_size/sizeof(constructor_ptr_t); ctor_num++ )
   b405e:	4e07      	ldr	r6, [pc, #28]	; (b407c <module_user_init+0x20>)
   b4060:	4c07      	ldr	r4, [pc, #28]	; (b4080 <module_user_init+0x24>)
    module_user_init_hook();
   b4062:	f005 fd2f 	bl	b9ac4 <module_user_init_hook>
    for (size_t ctor_num=0; ctor_num < link_constructors_size/sizeof(constructor_ptr_t); ctor_num++ )
   b4066:	1ba4      	subs	r4, r4, r6
   b4068:	08a4      	lsrs	r4, r4, #2
   b406a:	2500      	movs	r5, #0
   b406c:	42ac      	cmp	r4, r5
   b406e:	d100      	bne.n	b4072 <module_user_init+0x16>
    {
        link_constructors_location[ctor_num]();
    }
}
   b4070:	bd70      	pop	{r4, r5, r6, pc}
        link_constructors_location[ctor_num]();
   b4072:	f856 3b04 	ldr.w	r3, [r6], #4
   b4076:	4798      	blx	r3
    for (size_t ctor_num=0; ctor_num < link_constructors_size/sizeof(constructor_ptr_t); ctor_num++ )
   b4078:	3501      	adds	r5, #1
   b407a:	e7f7      	b.n	b406c <module_user_init+0x10>
   b407c:	000bcc5c 	.word	0x000bcc5c
   b4080:	000bcc80 	.word	0x000bcc80

000b4084 <module_user_setup>:

/**
 * Export these functions with a fuller name so they don't clash with the setup/loop wrappers in the system module.
 */
void module_user_setup() {
    setup();
   b4084:	f001 b8de 	b.w	b5244 <setup>

000b4088 <module_user_loop>:
}

void module_user_loop() {
   b4088:	b508      	push	{r3, lr}
    loop();
   b408a:	f001 ff8b 	bl	b5fa4 <loop>
    _post_loop();
}
   b408e:	e8bd 4008 	ldmia.w	sp!, {r3, lr}
    _post_loop();
   b4092:	f005 bccf 	b.w	b9a34 <_post_loop>

000b4096 <_Znaj>:
   b4096:	f005 b98f 	b.w	b93b8 <malloc>

000b409a <_ZdlPvj>:
	free(p);
}

void operator delete(void *p, size_t size)
{
	free(p);
   b409a:	f005 b995 	b.w	b93c8 <free>
	...

000b40a0 <__cxa_pure_virtual>:
char* strerror(int errnum) {
    return (char*)"";
}

/* Default implementation for call made to pure virtual function. */
void __cxa_pure_virtual() {
   b40a0:	b508      	push	{r3, lr}
  PANIC(PureVirtualCall,"Call on pure virtual");
   b40a2:	4a03      	ldr	r2, [pc, #12]	; (b40b0 <__cxa_pure_virtual+0x10>)
   b40a4:	4903      	ldr	r1, [pc, #12]	; (b40b4 <__cxa_pure_virtual+0x14>)
   b40a6:	200c      	movs	r0, #12
   b40a8:	f005 f8ea 	bl	b9280 <panic_>
  while (1);
   b40ac:	e7fe      	b.n	b40ac <__cxa_pure_virtual+0xc>
   b40ae:	bf00      	nop
   b40b0:	000b8fd1 	.word	0x000b8fd1
   b40b4:	000bae20 	.word	0x000bae20

000b40b8 <__cxa_guard_acquire>:

/* Provide default implemenation for __cxa_guard_acquire() and
 * __cxa_guard_release(). Note: these must be revisited if a multitasking
 * OS is ported to this platform. */
__extension__ typedef int __guard __attribute__((mode (__DI__)));
int __cxa_guard_acquire(__guard *g) {return !*(char *)(g);};
   b40b8:	7800      	ldrb	r0, [r0, #0]
   b40ba:	fab0 f080 	clz	r0, r0
   b40be:	0940      	lsrs	r0, r0, #5
   b40c0:	4770      	bx	lr

000b40c2 <__cxa_guard_release>:
void __cxa_guard_release (__guard *g) {*(char *)g = 1;};
   b40c2:	2301      	movs	r3, #1
   b40c4:	7003      	strb	r3, [r0, #0]
   b40c6:	4770      	bx	lr

000b40c8 <_Z10borradoALLi.part.0>:
      numSensoresBloque = 0;
      numActuadoresBloque = 0;
      break;
   }
   case 1: {
      IF_pasado = false;
   b40c8:	4a08      	ldr	r2, [pc, #32]	; (b40ec <_Z10borradoALLi.part.0+0x24>)
   b40ca:	2300      	movs	r3, #0
   b40cc:	7013      	strb	r3, [r2, #0]
      THEN_pasado = false;
   b40ce:	4a08      	ldr	r2, [pc, #32]	; (b40f0 <_Z10borradoALLi.part.0+0x28>)
   b40d0:	7013      	strb	r3, [r2, #0]
      ELSE_pasado = false;
   b40d2:	4a08      	ldr	r2, [pc, #32]	; (b40f4 <_Z10borradoALLi.part.0+0x2c>)
   b40d4:	7013      	strb	r3, [r2, #0]

      numBloque = -1;
   b40d6:	4a08      	ldr	r2, [pc, #32]	; (b40f8 <_Z10borradoALLi.part.0+0x30>)
   b40d8:	f04f 31ff 	mov.w	r1, #4294967295
   b40dc:	6011      	str	r1, [r2, #0]

      puertoDigital = 3;
   b40de:	4a07      	ldr	r2, [pc, #28]	; (b40fc <_Z10borradoALLi.part.0+0x34>)
   b40e0:	2103      	movs	r1, #3
   b40e2:	6011      	str	r1, [r2, #0]
      puertoAnalogico = 0;
   b40e4:	4a06      	ldr	r2, [pc, #24]	; (b4100 <_Z10borradoALLi.part.0+0x38>)
   b40e6:	6013      	str	r3, [r2, #0]
      tam_bucle = 0;
   }
   default:
      break;
   }
}
   b40e8:	4770      	bx	lr
   b40ea:	bf00      	nop
   b40ec:	2003cd21 	.word	0x2003cd21
   b40f0:	2003cd30 	.word	0x2003cd30
   b40f4:	2003cd20 	.word	0x2003cd20
   b40f8:	2003cc84 	.word	0x2003cc84
   b40fc:	2003cc88 	.word	0x2003cc88
   b4100:	2003da48 	.word	0x2003da48

000b4104 <_ZN5Print6printfEPKcz>:
    size_t println(double, int = 2);
    size_t println(const Printable&);
    size_t println(void);
    size_t println(const __FlashStringHelper*);

    size_t printf(const char* format, ...) __attribute__ ((format(printf, 2, 3)))
   b4104:	b40e      	push	{r1, r2, r3}
   b4106:	b503      	push	{r0, r1, lr}
   b4108:	ab03      	add	r3, sp, #12
    {
        va_list args;
        va_start(args, format);
        auto r = this->vprintf(false, format, args);
   b410a:	2100      	movs	r1, #0
    size_t printf(const char* format, ...) __attribute__ ((format(printf, 2, 3)))
   b410c:	f853 2b04 	ldr.w	r2, [r3], #4
        va_start(args, format);
   b4110:	9301      	str	r3, [sp, #4]
        auto r = this->vprintf(false, format, args);
   b4112:	f005 fc20 	bl	b9956 <_ZN5Print7vprintfEbPKcSt9__va_list>
        va_end(args);
        return r;
    }
   b4116:	b002      	add	sp, #8
   b4118:	f85d eb04 	ldr.w	lr, [sp], #4
   b411c:	b003      	add	sp, #12
   b411e:	4770      	bx	lr

000b4120 <_ZN5Print8printlnfEPKcz>:

    size_t printlnf(const char* format, ...) __attribute__ ((format(printf, 2, 3)))
   b4120:	b40e      	push	{r1, r2, r3}
   b4122:	b503      	push	{r0, r1, lr}
   b4124:	ab03      	add	r3, sp, #12
    {
        va_list args;
        va_start(args, format);
        auto r = this->vprintf(true, format, args);
   b4126:	2101      	movs	r1, #1
    size_t printlnf(const char* format, ...) __attribute__ ((format(printf, 2, 3)))
   b4128:	f853 2b04 	ldr.w	r2, [r3], #4
        va_start(args, format);
   b412c:	9301      	str	r3, [sp, #4]
        auto r = this->vprintf(true, format, args);
   b412e:	f005 fc12 	bl	b9956 <_ZN5Print7vprintfEbPKcSt9__va_list>
        va_end(args);
        return r;
    }
   b4132:	b002      	add	sp, #8
   b4134:	f85d eb04 	ldr.w	lr, [sp], #4
   b4138:	b003      	add	sp, #12
   b413a:	4770      	bx	lr

000b413c <_Z11noDistanciai>:
//---------------------------------------------------------------------------------------------------
//------------------------------------- M O D O   1 -------------------------------------------------
//---------------------------------------------------------------------------------------------------

bool noDistancia(int puerto)
{
   b413c:	b507      	push	{r0, r1, r2, lr}
   b413e:	4601      	mov	r1, r0
    Ultrasonic ultrasonic(puerto);
   b4140:	a801      	add	r0, sp, #4
   b4142:	f004 f8b7 	bl	b82b4 <_ZN10UltrasonicC1Ei>
    long range = ultrasonic.MeasureInCentimeters();
   b4146:	a801      	add	r0, sp, #4
   b4148:	f004 f8b6 	bl	b82b8 <_ZN10Ultrasonic20MeasureInCentimetersEv>
    // Serial.printlnf("Distancia: %d", range);
    if (range >= 0 && range < 10)
        return true;
    else
        return false;
}
   b414c:	2809      	cmp	r0, #9
   b414e:	bf8c      	ite	hi
   b4150:	2000      	movhi	r0, #0
   b4152:	2001      	movls	r0, #1
   b4154:	b003      	add	sp, #12
   b4156:	f85d fb04 	ldr.w	pc, [sp], #4

000b415a <_Z11siDistanciai>:

bool siDistancia(int puerto)
{
   b415a:	b507      	push	{r0, r1, r2, lr}
   b415c:	4601      	mov	r1, r0
    Ultrasonic ultrasonic(puerto);
   b415e:	a801      	add	r0, sp, #4
   b4160:	f004 f8a8 	bl	b82b4 <_ZN10UltrasonicC1Ei>
    long range = ultrasonic.MeasureInCentimeters();
   b4164:	a801      	add	r0, sp, #4
   b4166:	f004 f8a7 	bl	b82b8 <_ZN10Ultrasonic20MeasureInCentimetersEv>
    // Serial.printlnf("Distancia: %d", range);
    if (range > 10)
        return true;
    else
        return false;
}
   b416a:	280a      	cmp	r0, #10
   b416c:	bfd4      	ite	le
   b416e:	2000      	movle	r0, #0
   b4170:	2001      	movgt	r0, #1
   b4172:	b003      	add	sp, #12
   b4174:	f85d fb04 	ldr.w	pc, [sp], #4

000b4178 <_Z5siLuzi>:

bool siLuz(int puerto)
{
    int threshold = 1000;
    
    switch (puerto)
   b4178:	2802      	cmp	r0, #2
{
   b417a:	b508      	push	{r3, lr}
    switch (puerto)
   b417c:	d00b      	beq.n	b4196 <_Z5siLuzi+0x1e>
   b417e:	2804      	cmp	r0, #4
   b4180:	d00b      	beq.n	b419a <_Z5siLuzi+0x22>
   b4182:	b960      	cbnz	r0, b419e <_Z5siLuzi+0x26>
    {
    case 0:
        if (analogRead(A0) >= threshold)
   b4184:	2013      	movs	r0, #19
        if (analogRead(A2) >= threshold)
            return true;
        return false;

    case 4:
        if (analogRead(A4) >= threshold)
   b4186:	f006 f826 	bl	ba1d6 <analogRead>
   b418a:	f5b0 7f7a 	cmp.w	r0, #1000	; 0x3e8
   b418e:	bfb4      	ite	lt
   b4190:	2000      	movlt	r0, #0
   b4192:	2001      	movge	r0, #1
        return false;

    default:
        return false;
    }
}
   b4194:	bd08      	pop	{r3, pc}
        if (analogRead(A2) >= threshold)
   b4196:	2011      	movs	r0, #17
   b4198:	e7f5      	b.n	b4186 <_Z5siLuzi+0xe>
        if (analogRead(A4) >= threshold)
   b419a:	200f      	movs	r0, #15
   b419c:	e7f3      	b.n	b4186 <_Z5siLuzi+0xe>
    switch (puerto)
   b419e:	2000      	movs	r0, #0
   b41a0:	e7f8      	b.n	b4194 <_Z5siLuzi+0x1c>

000b41a2 <_Z5noLuzi>:

bool noLuz(int puerto)
{
    int threshold = 1000;
    switch (puerto)
   b41a2:	2802      	cmp	r0, #2
{
   b41a4:	b508      	push	{r3, lr}
    switch (puerto)
   b41a6:	d00b      	beq.n	b41c0 <_Z5noLuzi+0x1e>
   b41a8:	2804      	cmp	r0, #4
   b41aa:	d00b      	beq.n	b41c4 <_Z5noLuzi+0x22>
   b41ac:	b960      	cbnz	r0, b41c8 <_Z5noLuzi+0x26>
    {
    case 0:
        if (analogRead(A0) <= threshold)
   b41ae:	2013      	movs	r0, #19
        if (analogRead(A2) <= threshold)
            return true;
        return false;

    case 4:
        if (analogRead(A4) <= threshold)
   b41b0:	f006 f811 	bl	ba1d6 <analogRead>
   b41b4:	f5b0 7f7a 	cmp.w	r0, #1000	; 0x3e8
   b41b8:	bfcc      	ite	gt
   b41ba:	2000      	movgt	r0, #0
   b41bc:	2001      	movle	r0, #1
        return false;

    default:
        return false;
    }
}
   b41be:	bd08      	pop	{r3, pc}
        if (analogRead(A2) <= threshold)
   b41c0:	2011      	movs	r0, #17
   b41c2:	e7f5      	b.n	b41b0 <_Z5noLuzi+0xe>
        if (analogRead(A4) <= threshold)
   b41c4:	200f      	movs	r0, #15
   b41c6:	e7f3      	b.n	b41b0 <_Z5noLuzi+0xe>
    switch (puerto)
   b41c8:	2000      	movs	r0, #0
   b41ca:	e7f8      	b.n	b41be <_Z5noLuzi+0x1c>

000b41cc <_Z7siRuidoi>:

bool siRuido(int puerto)
{
   b41cc:	b508      	push	{r3, lr}
    int sonido = analogRead(puerto);
   b41ce:	b280      	uxth	r0, r0
   b41d0:	f006 f801 	bl	ba1d6 <analogRead>
    if (sonido >= 700)
        return true;
    return false;
}
   b41d4:	f5b0 7f2f 	cmp.w	r0, #700	; 0x2bc
   b41d8:	bfb4      	ite	lt
   b41da:	2000      	movlt	r0, #0
   b41dc:	2001      	movge	r0, #1
   b41de:	bd08      	pop	{r3, pc}

000b41e0 <_Z7noRuidoi>:

bool noRuido(int puerto)
{
   b41e0:	b508      	push	{r3, lr}
    if (analogRead(puerto) <= 700)
   b41e2:	b280      	uxth	r0, r0
   b41e4:	f005 fff7 	bl	ba1d6 <analogRead>
        return true;
    return false;
}
   b41e8:	f5b0 7f2f 	cmp.w	r0, #700	; 0x2bc
   b41ec:	bfcc      	ite	gt
   b41ee:	2000      	movgt	r0, #0
   b41f0:	2001      	movle	r0, #1
   b41f2:	bd08      	pop	{r3, pc}

000b41f4 <_Z7siBotoni>:

bool siBoton(int puerto)
{
   b41f4:	b507      	push	{r0, r1, r2, lr}
    pinMode(puerto, INPUT);
   b41f6:	b280      	uxth	r0, r0
   b41f8:	2100      	movs	r1, #0
   b41fa:	9001      	str	r0, [sp, #4]
   b41fc:	f005 ffae 	bl	ba15c <pinMode>
    if (digitalRead(puerto) == HIGH)
   b4200:	9801      	ldr	r0, [sp, #4]
   b4202:	f005 ffd5 	bl	ba1b0 <digitalRead>
        return true;
    return false;
}
   b4206:	1e43      	subs	r3, r0, #1
   b4208:	4258      	negs	r0, r3
   b420a:	4158      	adcs	r0, r3
   b420c:	b003      	add	sp, #12
   b420e:	f85d fb04 	ldr.w	pc, [sp], #4

000b4212 <_Z7noBotoni>:

bool noBoton(int puerto)
{
   b4212:	b507      	push	{r0, r1, r2, lr}
    pinMode(puerto, INPUT);
   b4214:	b280      	uxth	r0, r0
   b4216:	2100      	movs	r1, #0
   b4218:	9001      	str	r0, [sp, #4]
   b421a:	f005 ff9f 	bl	ba15c <pinMode>
    if (digitalRead(puerto) == LOW)
   b421e:	9801      	ldr	r0, [sp, #4]
   b4220:	f005 ffc6 	bl	ba1b0 <digitalRead>
        return true;
    return false;
}
   b4224:	fab0 f080 	clz	r0, r0
   b4228:	0940      	lsrs	r0, r0, #5
   b422a:	b003      	add	sp, #12
   b422c:	f85d fb04 	ldr.w	pc, [sp], #4

000b4230 <_Z10siRotativoi>:

bool siRotativo(int puerto)
{
    float voltage;
    int sensor_value;
    switch (puerto)
   b4230:	2802      	cmp	r0, #2
{
   b4232:	b507      	push	{r0, r1, r2, lr}
    switch (puerto)
   b4234:	d030      	beq.n	b4298 <_Z10siRotativoi+0x68>
   b4236:	2804      	cmp	r0, #4
   b4238:	d030      	beq.n	b429c <_Z10siRotativoi+0x6c>
   b423a:	b918      	cbnz	r0, b4244 <_Z10siRotativoi+0x14>
    {
    case 0:
        sensor_value = analogRead(A0);
   b423c:	2013      	movs	r0, #19
        break;
    case 2:
        sensor_value = analogRead(A2);
        break;
    case 4:
        sensor_value = analogRead(A4);
   b423e:	f005 ffca 	bl	ba1d6 <analogRead>
   b4242:	9001      	str	r0, [sp, #4]
        break;
    }

    voltage = (float)sensor_value * 3.3 / 1023;
   b4244:	eddd 7a01 	vldr	s15, [sp, #4]
   b4248:	eef8 7ae7 	vcvt.f32.s32	s15, s15
   b424c:	ee17 0a90 	vmov	r0, s15
   b4250:	f006 f9ee 	bl	ba630 <__aeabi_f2d>
   b4254:	a314      	add	r3, pc, #80	; (adr r3, b42a8 <_Z10siRotativoi+0x78>)
   b4256:	e9d3 2300 	ldrd	r2, r3, [r3]
   b425a:	f006 fa41 	bl	ba6e0 <__aeabi_dmul>
   b425e:	a314      	add	r3, pc, #80	; (adr r3, b42b0 <_Z10siRotativoi+0x80>)
   b4260:	e9d3 2300 	ldrd	r2, r3, [r3]
   b4264:	f006 fb66 	bl	ba934 <__aeabi_ddiv>
   b4268:	f006 fc4c 	bl	bab04 <__aeabi_d2f>
    float degrees = (voltage * 300) / 5;
   b426c:	eddf 7a0c 	vldr	s15, [pc, #48]	; b42a0 <_Z10siRotativoi+0x70>
   b4270:	ee07 0a10 	vmov	s14, r0
   b4274:	ee67 7a27 	vmul.f32	s15, s14, s15
   b4278:	eef1 6a04 	vmov.f32	s13, #20	; 0x40a00000  5.0
   b427c:	ee87 7aa6 	vdiv.f32	s14, s15, s13
    if (degrees <= 360)
   b4280:	eddf 7a08 	vldr	s15, [pc, #32]	; b42a4 <_Z10siRotativoi+0x74>
   b4284:	eeb4 7ae7 	vcmpe.f32	s14, s15
   b4288:	eef1 fa10 	vmrs	APSR_nzcv, fpscr
        return true;
    return false;
}
   b428c:	bf94      	ite	ls
   b428e:	2001      	movls	r0, #1
   b4290:	2000      	movhi	r0, #0
   b4292:	b003      	add	sp, #12
   b4294:	f85d fb04 	ldr.w	pc, [sp], #4
        sensor_value = analogRead(A2);
   b4298:	2011      	movs	r0, #17
   b429a:	e7d0      	b.n	b423e <_Z10siRotativoi+0xe>
        sensor_value = analogRead(A4);
   b429c:	200f      	movs	r0, #15
   b429e:	e7ce      	b.n	b423e <_Z10siRotativoi+0xe>
   b42a0:	43960000 	.word	0x43960000
   b42a4:	43b40000 	.word	0x43b40000
   b42a8:	66666666 	.word	0x66666666
   b42ac:	400a6666 	.word	0x400a6666
   b42b0:	00000000 	.word	0x00000000
   b42b4:	408ff800 	.word	0x408ff800

000b42b8 <_Z10noRotativoi>:

bool noRotativo(int puerto)
{
    float voltage;
    int sensor_value;
    switch (puerto)
   b42b8:	2802      	cmp	r0, #2
{
   b42ba:	b507      	push	{r0, r1, r2, lr}
    switch (puerto)
   b42bc:	d030      	beq.n	b4320 <_Z10noRotativoi+0x68>
   b42be:	2804      	cmp	r0, #4
   b42c0:	d030      	beq.n	b4324 <_Z10noRotativoi+0x6c>
   b42c2:	b918      	cbnz	r0, b42cc <_Z10noRotativoi+0x14>
    {
    case 0:
        sensor_value = analogRead(A0);
   b42c4:	2013      	movs	r0, #19
        break;
    case 2:
        sensor_value = analogRead(A2);
        break;
    case 4:
        sensor_value = analogRead(A4);
   b42c6:	f005 ff86 	bl	ba1d6 <analogRead>
   b42ca:	9001      	str	r0, [sp, #4]
        break;
    }

    voltage = (float)sensor_value * 3.3 / 1023;
   b42cc:	eddd 7a01 	vldr	s15, [sp, #4]
   b42d0:	eef8 7ae7 	vcvt.f32.s32	s15, s15
   b42d4:	ee17 0a90 	vmov	r0, s15
   b42d8:	f006 f9aa 	bl	ba630 <__aeabi_f2d>
   b42dc:	a314      	add	r3, pc, #80	; (adr r3, b4330 <_Z10noRotativoi+0x78>)
   b42de:	e9d3 2300 	ldrd	r2, r3, [r3]
   b42e2:	f006 f9fd 	bl	ba6e0 <__aeabi_dmul>
   b42e6:	a314      	add	r3, pc, #80	; (adr r3, b4338 <_Z10noRotativoi+0x80>)
   b42e8:	e9d3 2300 	ldrd	r2, r3, [r3]
   b42ec:	f006 fb22 	bl	ba934 <__aeabi_ddiv>
   b42f0:	f006 fc08 	bl	bab04 <__aeabi_d2f>
    float degrees = (voltage * 300) / 5;
   b42f4:	eddf 7a0c 	vldr	s15, [pc, #48]	; b4328 <_Z10noRotativoi+0x70>
   b42f8:	ee07 0a10 	vmov	s14, r0
   b42fc:	ee67 7a27 	vmul.f32	s15, s14, s15
   b4300:	eef1 6a04 	vmov.f32	s13, #20	; 0x40a00000  5.0
   b4304:	ee87 7aa6 	vdiv.f32	s14, s15, s13

    if (degrees >= 360)
   b4308:	eddf 7a08 	vldr	s15, [pc, #32]	; b432c <_Z10noRotativoi+0x74>
   b430c:	eeb4 7ae7 	vcmpe.f32	s14, s15
   b4310:	eef1 fa10 	vmrs	APSR_nzcv, fpscr
        return true;
    return false;
}
   b4314:	bfac      	ite	ge
   b4316:	2001      	movge	r0, #1
   b4318:	2000      	movlt	r0, #0
   b431a:	b003      	add	sp, #12
   b431c:	f85d fb04 	ldr.w	pc, [sp], #4
        sensor_value = analogRead(A2);
   b4320:	2011      	movs	r0, #17
   b4322:	e7d0      	b.n	b42c6 <_Z10noRotativoi+0xe>
        sensor_value = analogRead(A4);
   b4324:	200f      	movs	r0, #15
   b4326:	e7ce      	b.n	b42c6 <_Z10noRotativoi+0xe>
   b4328:	43960000 	.word	0x43960000
   b432c:	43b40000 	.word	0x43b40000
   b4330:	66666666 	.word	0x66666666
   b4334:	400a6666 	.word	0x400a6666
   b4338:	00000000 	.word	0x00000000
   b433c:	408ff800 	.word	0x408ff800

000b4340 <_Z12siBotonDualAi>:

bool siBotonDualA(int puerto)
{
   b4340:	b510      	push	{r4, lr}
    pinMode(puerto, INPUT);
   b4342:	b284      	uxth	r4, r0
   b4344:	4620      	mov	r0, r4
   b4346:	2100      	movs	r1, #0
   b4348:	f005 ff08 	bl	ba15c <pinMode>
    if (digitalRead(puerto) == LOW && digitalRead(puerto+1) == HIGH)
   b434c:	4620      	mov	r0, r4
   b434e:	f005 ff2f 	bl	ba1b0 <digitalRead>
   b4352:	b938      	cbnz	r0, b4364 <_Z12siBotonDualAi+0x24>
   b4354:	1c60      	adds	r0, r4, #1
   b4356:	b280      	uxth	r0, r0
   b4358:	f005 ff2a 	bl	ba1b0 <digitalRead>
   b435c:	1e43      	subs	r3, r0, #1
   b435e:	4258      	negs	r0, r3
   b4360:	4158      	adcs	r0, r3
        return true;
    return false;
}
   b4362:	bd10      	pop	{r4, pc}
    return false;
   b4364:	2000      	movs	r0, #0
   b4366:	e7fc      	b.n	b4362 <_Z12siBotonDualAi+0x22>

000b4368 <_Z12siBotonDualBi>:
        return true;
    return false;
}

bool siBotonDualB(int puerto)
{
   b4368:	b513      	push	{r0, r1, r4, lr}
    pinMode(puerto+1, INPUT);
   b436a:	b284      	uxth	r4, r0
   b436c:	1c60      	adds	r0, r4, #1
   b436e:	b280      	uxth	r0, r0
   b4370:	2100      	movs	r1, #0
   b4372:	9001      	str	r0, [sp, #4]
   b4374:	f005 fef2 	bl	ba15c <pinMode>
    if (digitalRead(puerto+1) == LOW && digitalRead(puerto) == HIGH)
   b4378:	9801      	ldr	r0, [sp, #4]
   b437a:	f005 ff19 	bl	ba1b0 <digitalRead>
   b437e:	b938      	cbnz	r0, b4390 <_Z12siBotonDualBi+0x28>
   b4380:	4620      	mov	r0, r4
   b4382:	f005 ff15 	bl	ba1b0 <digitalRead>
   b4386:	1e43      	subs	r3, r0, #1
   b4388:	4258      	negs	r0, r3
   b438a:	4158      	adcs	r0, r3
        return true;
    return false;
}
   b438c:	b002      	add	sp, #8
   b438e:	bd10      	pop	{r4, pc}
    return false;
   b4390:	2000      	movs	r0, #0
   b4392:	e7fb      	b.n	b438c <_Z12siBotonDualBi+0x24>

000b4394 <_Z12noBotonDualBi>:

bool noBotonDualB(int puerto)
{
   b4394:	b507      	push	{r0, r1, r2, lr}
    pinMode(puerto+1, INPUT);
   b4396:	3001      	adds	r0, #1
   b4398:	b280      	uxth	r0, r0
   b439a:	2100      	movs	r1, #0
   b439c:	9001      	str	r0, [sp, #4]
   b439e:	f005 fedd 	bl	ba15c <pinMode>
    if (digitalRead(puerto+1) == HIGH)
   b43a2:	9801      	ldr	r0, [sp, #4]
   b43a4:	f005 ff04 	bl	ba1b0 <digitalRead>
        return true;
    return false;
}
   b43a8:	1e43      	subs	r3, r0, #1
   b43aa:	4258      	negs	r0, r3
   b43ac:	4158      	adcs	r0, r3
   b43ae:	b003      	add	sp, #12
   b43b0:	f85d fb04 	ldr.w	pc, [sp], #4

000b43b4 <_Z12siBotonDual2i>:

bool siBotonDual2(int puerto)
{
   b43b4:	b538      	push	{r3, r4, r5, lr}
    pinMode(puerto, INPUT);
   b43b6:	b284      	uxth	r4, r0
    pinMode(puerto+1, INPUT);
   b43b8:	1c65      	adds	r5, r4, #1
    pinMode(puerto, INPUT);
   b43ba:	2100      	movs	r1, #0
   b43bc:	4620      	mov	r0, r4
    pinMode(puerto+1, INPUT);
   b43be:	b2ad      	uxth	r5, r5
    pinMode(puerto, INPUT);
   b43c0:	f005 fecc 	bl	ba15c <pinMode>
    pinMode(puerto+1, INPUT);
   b43c4:	4628      	mov	r0, r5
   b43c6:	2100      	movs	r1, #0
   b43c8:	f005 fec8 	bl	ba15c <pinMode>
    if (digitalRead(puerto) == LOW && digitalRead(puerto+1) == LOW)
   b43cc:	4620      	mov	r0, r4
   b43ce:	f005 feef 	bl	ba1b0 <digitalRead>
   b43d2:	b930      	cbnz	r0, b43e2 <_Z12siBotonDual2i+0x2e>
   b43d4:	4628      	mov	r0, r5
   b43d6:	f005 feeb 	bl	ba1b0 <digitalRead>
   b43da:	fab0 f080 	clz	r0, r0
   b43de:	0940      	lsrs	r0, r0, #5
        return true;
    return false;
}
   b43e0:	bd38      	pop	{r3, r4, r5, pc}
    return false;
   b43e2:	2000      	movs	r0, #0
   b43e4:	e7fc      	b.n	b43e0 <_Z12siBotonDual2i+0x2c>

000b43e6 <_Z12noBotonDual2i>:

bool noBotonDual2(int puerto)
{
   b43e6:	b538      	push	{r3, r4, r5, lr}
    pinMode(puerto, INPUT);
   b43e8:	b284      	uxth	r4, r0
    pinMode(puerto+1, INPUT);
   b43ea:	1c65      	adds	r5, r4, #1
    pinMode(puerto, INPUT);
   b43ec:	2100      	movs	r1, #0
   b43ee:	4620      	mov	r0, r4
    pinMode(puerto+1, INPUT);
   b43f0:	b2ad      	uxth	r5, r5
    pinMode(puerto, INPUT);
   b43f2:	f005 feb3 	bl	ba15c <pinMode>
    pinMode(puerto+1, INPUT);
   b43f6:	2100      	movs	r1, #0
   b43f8:	4628      	mov	r0, r5
   b43fa:	f005 feaf 	bl	ba15c <pinMode>
    if (digitalRead(puerto) == HIGH || digitalRead(puerto+1) == HIGH)
   b43fe:	4620      	mov	r0, r4
   b4400:	f005 fed6 	bl	ba1b0 <digitalRead>
   b4404:	2801      	cmp	r0, #1
   b4406:	d005      	beq.n	b4414 <_Z12noBotonDual2i+0x2e>
   b4408:	4628      	mov	r0, r5
   b440a:	f005 fed1 	bl	ba1b0 <digitalRead>
   b440e:	1e43      	subs	r3, r0, #1
   b4410:	4258      	negs	r0, r3
   b4412:	4158      	adcs	r0, r3
        return true;
    return false;
}
   b4414:	bd38      	pop	{r3, r4, r5, pc}

000b4416 <_Z8siTurbiai>:


bool siTurbia(int puerto)
{
    int sensor_value;
    switch (puerto)
   b4416:	2802      	cmp	r0, #2
{
   b4418:	b538      	push	{r3, r4, r5, lr}
    switch (puerto)
   b441a:	d01c      	beq.n	b4456 <_Z8siTurbiai+0x40>
   b441c:	2804      	cmp	r0, #4
   b441e:	d01c      	beq.n	b445a <_Z8siTurbiai+0x44>
   b4420:	b918      	cbnz	r0, b442a <_Z8siTurbiai+0x14>
    {
    case 0:
        sensor_value = analogRead(A0);
   b4422:	2013      	movs	r0, #19
        break;
    case 2:
        sensor_value = analogRead(A2);
        break;
    case 4:
        sensor_value = analogRead(A4);
   b4424:	f005 fed7 	bl	ba1d6 <analogRead>
   b4428:	4604      	mov	r4, r0
        break;
    }
    Serial.println(sensor_value);
   b442a:	f005 fc6d 	bl	b9d08 <_Z16_fetch_usbserialv>
// FIXME: avoids 'comparison of constant '0' with boolean expression is always false'
#if __GNUC__ >= 9
#pragma GCC diagnostic push
#pragma GCC diagnostic ignored "-Wbool-compare"
#endif // __GNUC__ >= 9
        if (n < 0 && base == 10) {
   b442e:	2c00      	cmp	r4, #0
   b4430:	4605      	mov	r5, r0
   b4432:	da14      	bge.n	b445e <_Z8siTurbiai+0x48>
            t = print('-');
   b4434:	212d      	movs	r1, #45	; 0x2d
   b4436:	f005 fa57 	bl	b98e8 <_ZN5Print5printEc>
            val = -n;
   b443a:	4261      	negs	r1, r4
            val = n;
        }
#if __GNUC__ >= 9
#pragma GCC diagnostic pop
#endif // __GNUC__ >= 9
        return printNumber(val, base) + t;
   b443c:	220a      	movs	r2, #10
   b443e:	4628      	mov	r0, r5
   b4440:	f005 fa6b 	bl	b991a <_ZN5Print11printNumberEmh>
        n += println();
   b4444:	4628      	mov	r0, r5
   b4446:	f005 fa52 	bl	b98ee <_ZN5Print7printlnEv>
    if (sensor_value < 2000)
        return true;
    return false;
}
   b444a:	f5b4 6ffa 	cmp.w	r4, #2000	; 0x7d0
   b444e:	bfac      	ite	ge
   b4450:	2000      	movge	r0, #0
   b4452:	2001      	movlt	r0, #1
   b4454:	bd38      	pop	{r3, r4, r5, pc}
        sensor_value = analogRead(A2);
   b4456:	2011      	movs	r0, #17
   b4458:	e7e4      	b.n	b4424 <_Z8siTurbiai+0xe>
        sensor_value = analogRead(A4);
   b445a:	200f      	movs	r0, #15
   b445c:	e7e2      	b.n	b4424 <_Z8siTurbiai+0xe>
            val = n;
   b445e:	4621      	mov	r1, r4
   b4460:	e7ec      	b.n	b443c <_Z8siTurbiai+0x26>

000b4462 <_Z8noTurbiai>:

bool noTurbia(int puerto)
{
    int sensor_value;
    switch (puerto)
   b4462:	2802      	cmp	r0, #2
{
   b4464:	b508      	push	{r3, lr}
    switch (puerto)
   b4466:	d00c      	beq.n	b4482 <_Z8noTurbiai+0x20>
   b4468:	2804      	cmp	r0, #4
   b446a:	d00c      	beq.n	b4486 <_Z8noTurbiai+0x24>
   b446c:	b918      	cbnz	r0, b4476 <_Z8noTurbiai+0x14>
    {
    case 0:
        sensor_value = analogRead(A0);
   b446e:	2013      	movs	r0, #19
        break;
    case 2:
        sensor_value = analogRead(A2);
        break;
    case 4:
        sensor_value = analogRead(A4);
   b4470:	f005 feb1 	bl	ba1d6 <analogRead>
   b4474:	4603      	mov	r3, r0
        break;
    }
    if (sensor_value >= 2000)
        return true;
    return false;
}
   b4476:	f5b3 6ffa 	cmp.w	r3, #2000	; 0x7d0
   b447a:	bfb4      	ite	lt
   b447c:	2000      	movlt	r0, #0
   b447e:	2001      	movge	r0, #1
   b4480:	bd08      	pop	{r3, pc}
        sensor_value = analogRead(A2);
   b4482:	2011      	movs	r0, #17
   b4484:	e7f4      	b.n	b4470 <_Z8noTurbiai+0xe>
        sensor_value = analogRead(A4);
   b4486:	200f      	movs	r0, #15
   b4488:	e7f2      	b.n	b4470 <_Z8noTurbiai+0xe>
	...

000b448c <_Z8tempFrioi>:

bool tempFrio(int puerto)
{
   b448c:	b530      	push	{r4, r5, lr}
   b448e:	ed2d 8b02 	vpush	{d8}
   b4492:	b087      	sub	sp, #28
    DHT dht(puerto, DHT11);
   b4494:	b2c1      	uxtb	r1, r0
   b4496:	2306      	movs	r3, #6
   b4498:	220b      	movs	r2, #11
   b449a:	a801      	add	r0, sp, #4
   b449c:	f003 ff30 	bl	b8300 <_ZN3DHTC1Ehhh>
    dht.begin();
   b44a0:	a801      	add	r0, sp, #4
   b44a2:	f003 ff34 	bl	b830e <_ZN3DHT5beginEv>
    float t = dht.getTempCelcius();
   b44a6:	a801      	add	r0, sp, #4
   b44a8:	f003 ffee 	bl	b8488 <_ZN3DHT14getTempCelciusEv>

    // The fast read may cause an invalid value like 0.0000 or NuLL. Repeat until valid value.
    while (isnan(t) | t == 0.0)
   b44ac:	eeb5 0a40 	vcmp.f32	s0, #0.0
   b44b0:	eef1 fa10 	vmrs	APSR_nzcv, fpscr
#endif

#ifndef __CORRECT_ISO_CPP11_MATH_H_PROTO_FP
  constexpr bool
  isnan(float __x)
  { return __builtin_isnan(__x); }
   b44b4:	eeb4 0a40 	vcmp.f32	s0, s0
   b44b8:	bf0c      	ite	eq
   b44ba:	2401      	moveq	r4, #1
   b44bc:	2400      	movne	r4, #0
   b44be:	eef1 fa10 	vmrs	APSR_nzcv, fpscr
   b44c2:	bf68      	it	vs
   b44c4:	f044 0401 	orrvs.w	r4, r4, #1
    float t = dht.getTempCelcius();
   b44c8:	eeb0 8a40 	vmov.f32	s16, s0
    while (isnan(t) | t == 0.0)
   b44cc:	2c00      	cmp	r4, #0
   b44ce:	d1ea      	bne.n	b44a6 <_Z8tempFrioi+0x1a>
    {
        t = dht.getTempCelcius();
    }

    Serial.printlnf("Temp: %f", t);
   b44d0:	f005 fc1a 	bl	b9d08 <_Z16_fetch_usbserialv>
   b44d4:	4605      	mov	r5, r0
   b44d6:	ee18 0a10 	vmov	r0, s16
   b44da:	f006 f8a9 	bl	ba630 <__aeabi_f2d>
   b44de:	4602      	mov	r2, r0
   b44e0:	460b      	mov	r3, r1
   b44e2:	4628      	mov	r0, r5
   b44e4:	490a      	ldr	r1, [pc, #40]	; (b4510 <_Z8tempFrioi+0x84>)
   b44e6:	f7ff fe1b 	bl	b4120 <_ZN5Print8printlnfEPKcz>
    if (t > 0.0 && t < 8)
   b44ea:	eeb5 8ac0 	vcmpe.f32	s16, #0.0
   b44ee:	eef1 fa10 	vmrs	APSR_nzcv, fpscr
   b44f2:	dd08      	ble.n	b4506 <_Z8tempFrioi+0x7a>
   b44f4:	eef2 7a00 	vmov.f32	s15, #32	; 0x41000000  8.0
   b44f8:	eeb4 8ae7 	vcmpe.f32	s16, s15
   b44fc:	eef1 fa10 	vmrs	APSR_nzcv, fpscr
   b4500:	bf4c      	ite	mi
   b4502:	2401      	movmi	r4, #1
   b4504:	2400      	movpl	r4, #0
        return true;
    else
        return false;
}
   b4506:	4620      	mov	r0, r4
   b4508:	b007      	add	sp, #28
   b450a:	ecbd 8b02 	vpop	{d8}
   b450e:	bd30      	pop	{r4, r5, pc}
   b4510:	000bae35 	.word	0x000bae35

000b4514 <_Z12tempTempladoi>:

bool tempTemplado(int puerto)
{
   b4514:	b510      	push	{r4, lr}
   b4516:	ed2d 8b02 	vpush	{d8}
   b451a:	b086      	sub	sp, #24
    DHT dht(puerto, DHT11);
   b451c:	b2c1      	uxtb	r1, r0
   b451e:	2306      	movs	r3, #6
   b4520:	220b      	movs	r2, #11
   b4522:	a801      	add	r0, sp, #4
   b4524:	f003 feec 	bl	b8300 <_ZN3DHTC1Ehhh>
    dht.begin();
   b4528:	a801      	add	r0, sp, #4
   b452a:	f003 fef0 	bl	b830e <_ZN3DHT5beginEv>
    float t = dht.getTempCelcius();
   b452e:	a801      	add	r0, sp, #4
   b4530:	f003 ffaa 	bl	b8488 <_ZN3DHT14getTempCelciusEv>

    // The fast read may cause an invalid value like 0.0000 or NuLL. Repeat until valid value.
    while (isnan(t) || (t == 0.0))
   b4534:	eeb4 0a40 	vcmp.f32	s0, s0
   b4538:	eef1 fa10 	vmrs	APSR_nzcv, fpscr
    float t = dht.getTempCelcius();
   b453c:	eeb0 8a40 	vmov.f32	s16, s0
    while (isnan(t) || (t == 0.0))
   b4540:	d6f5      	bvs.n	b452e <_Z12tempTempladoi+0x1a>
   b4542:	eeb5 0a40 	vcmp.f32	s0, #0.0
   b4546:	eef1 fa10 	vmrs	APSR_nzcv, fpscr
   b454a:	d0f0      	beq.n	b452e <_Z12tempTempladoi+0x1a>
    {
        t = dht.getTempCelcius();
    }

    Serial.printlnf("Temp: %f", t);
   b454c:	f005 fbdc 	bl	b9d08 <_Z16_fetch_usbserialv>
   b4550:	4604      	mov	r4, r0
   b4552:	ee18 0a10 	vmov	r0, s16
   b4556:	f006 f86b 	bl	ba630 <__aeabi_f2d>
   b455a:	4602      	mov	r2, r0
   b455c:	460b      	mov	r3, r1
   b455e:	4620      	mov	r0, r4
   b4560:	490c      	ldr	r1, [pc, #48]	; (b4594 <_Z12tempTempladoi+0x80>)
   b4562:	f7ff fddd 	bl	b4120 <_ZN5Print8printlnfEPKcz>
    if (t > 7 && t < 26)
   b4566:	eef1 7a0c 	vmov.f32	s15, #28	; 0x40e00000  7.0
   b456a:	eeb4 8ae7 	vcmpe.f32	s16, s15
   b456e:	eef1 fa10 	vmrs	APSR_nzcv, fpscr
   b4572:	dc04      	bgt.n	b457e <_Z12tempTempladoi+0x6a>
        return true;
    else
        return false;
   b4574:	2000      	movs	r0, #0
}
   b4576:	b006      	add	sp, #24
   b4578:	ecbd 8b02 	vpop	{d8}
   b457c:	bd10      	pop	{r4, pc}
    if (t > 7 && t < 26)
   b457e:	eef3 7a0a 	vmov.f32	s15, #58	; 0x41d00000  26.0
   b4582:	eeb4 8ae7 	vcmpe.f32	s16, s15
   b4586:	eef1 fa10 	vmrs	APSR_nzcv, fpscr
   b458a:	bf4c      	ite	mi
   b458c:	2001      	movmi	r0, #1
   b458e:	2000      	movpl	r0, #0
   b4590:	e7f1      	b.n	b4576 <_Z12tempTempladoi+0x62>
   b4592:	bf00      	nop
   b4594:	000bae35 	.word	0x000bae35

000b4598 <_Z9tempCalori>:

bool tempCalor(int puerto)
{
   b4598:	b530      	push	{r4, r5, lr}
   b459a:	ed2d 8b02 	vpush	{d8}
   b459e:	b087      	sub	sp, #28
    DHT dht(puerto, DHT11);
   b45a0:	b2c1      	uxtb	r1, r0
   b45a2:	2306      	movs	r3, #6
   b45a4:	220b      	movs	r2, #11
   b45a6:	a801      	add	r0, sp, #4
   b45a8:	f003 feaa 	bl	b8300 <_ZN3DHTC1Ehhh>
    dht.begin();
   b45ac:	a801      	add	r0, sp, #4
   b45ae:	f003 feae 	bl	b830e <_ZN3DHT5beginEv>
    float t = dht.getTempCelcius();
   b45b2:	a801      	add	r0, sp, #4
   b45b4:	f003 ff68 	bl	b8488 <_ZN3DHT14getTempCelciusEv>

    // The fast read may cause an invalid value like 0.0000 or NuLL. Repeat until valid value.
    while (isnan(t) | t == 0.0)
   b45b8:	eeb5 0a40 	vcmp.f32	s0, #0.0
   b45bc:	eef1 fa10 	vmrs	APSR_nzcv, fpscr
   b45c0:	eeb4 0a40 	vcmp.f32	s0, s0
   b45c4:	bf0c      	ite	eq
   b45c6:	2401      	moveq	r4, #1
   b45c8:	2400      	movne	r4, #0
   b45ca:	eef1 fa10 	vmrs	APSR_nzcv, fpscr
   b45ce:	bf68      	it	vs
   b45d0:	f044 0401 	orrvs.w	r4, r4, #1
    float t = dht.getTempCelcius();
   b45d4:	eeb0 8a40 	vmov.f32	s16, s0
    while (isnan(t) | t == 0.0)
   b45d8:	2c00      	cmp	r4, #0
   b45da:	d1ea      	bne.n	b45b2 <_Z9tempCalori+0x1a>
    {
        t = dht.getTempCelcius();
    }

    Serial.printlnf("Temp: %f", t);
   b45dc:	f005 fb94 	bl	b9d08 <_Z16_fetch_usbserialv>
   b45e0:	4605      	mov	r5, r0
   b45e2:	ee18 0a10 	vmov	r0, s16
   b45e6:	f006 f823 	bl	ba630 <__aeabi_f2d>
   b45ea:	4602      	mov	r2, r0
   b45ec:	460b      	mov	r3, r1
   b45ee:	4628      	mov	r0, r5
   b45f0:	490b      	ldr	r1, [pc, #44]	; (b4620 <_Z9tempCalori+0x88>)
   b45f2:	f7ff fd95 	bl	b4120 <_ZN5Print8printlnfEPKcz>
    if (t > 25 && t < 50)
   b45f6:	eef3 7a09 	vmov.f32	s15, #57	; 0x41c80000  25.0
   b45fa:	eeb4 8ae7 	vcmpe.f32	s16, s15
   b45fe:	eef1 fa10 	vmrs	APSR_nzcv, fpscr
   b4602:	dd08      	ble.n	b4616 <_Z9tempCalori+0x7e>
   b4604:	eddf 7a07 	vldr	s15, [pc, #28]	; b4624 <_Z9tempCalori+0x8c>
   b4608:	eeb4 8ae7 	vcmpe.f32	s16, s15
   b460c:	eef1 fa10 	vmrs	APSR_nzcv, fpscr
   b4610:	bf4c      	ite	mi
   b4612:	2401      	movmi	r4, #1
   b4614:	2400      	movpl	r4, #0
        return true;
    else
        return false;
}
   b4616:	4620      	mov	r0, r4
   b4618:	b007      	add	sp, #28
   b461a:	ecbd 8b02 	vpop	{d8}
   b461e:	bd30      	pop	{r4, r5, pc}
   b4620:	000bae35 	.word	0x000bae35
   b4624:	42480000 	.word	0x42480000

000b4628 <_Z10leerSensoriii>:

bool leerSensor(int id, int condicion, int puerto)
{
   b4628:	b508      	push	{r3, lr}
   b462a:	4603      	mov	r3, r0
   b462c:	3b01      	subs	r3, #1
   b462e:	4610      	mov	r0, r2
   b4630:	2b0b      	cmp	r3, #11
   b4632:	d868      	bhi.n	b4706 <_Z10leerSensoriii+0xde>
   b4634:	e8df f003 	tbb	[pc, r3]
   b4638:	1d140b06 	.word	0x1d140b06
   b463c:	40062b22 	.word	0x40062b22
   b4640:	5e554c46 	.word	0x5e554c46
    switch (id)
    {
    case 1:
        return (condicion == 0 ? noDistancia(puerto) : siDistancia(puerto));
   b4644:	bba1      	cbnz	r1, b46b0 <_Z10leerSensoriii+0x88>

    default:
        Serial.println("InvalidSensorError");
        return false;
    }
   b4646:	e8bd 4008 	ldmia.w	sp!, {r3, lr}
        return (condicion == 0 ? noDistancia(puerto) : siDistancia(puerto));
   b464a:	f7ff bd77 	b.w	b413c <_Z11noDistanciai>
        return (condicion == 0 ? noLuz(puerto) : siLuz(puerto));
   b464e:	b919      	cbnz	r1, b4658 <_Z10leerSensoriii+0x30>
   b4650:	e8bd 4008 	ldmia.w	sp!, {r3, lr}
        return (condicion == 0 ? noLuz(puerto) : siLuz(puerto));
   b4654:	f7ff bda5 	b.w	b41a2 <_Z5noLuzi>
   b4658:	e8bd 4008 	ldmia.w	sp!, {r3, lr}
        return (condicion == 0 ? noLuz(puerto) : siLuz(puerto));
   b465c:	f7ff bd8c 	b.w	b4178 <_Z5siLuzi>
        return (condicion == 0 ? noRuido(puerto) : siRuido(puerto));
   b4660:	b919      	cbnz	r1, b466a <_Z10leerSensoriii+0x42>
   b4662:	e8bd 4008 	ldmia.w	sp!, {r3, lr}
        return (condicion == 0 ? noRuido(puerto) : siRuido(puerto));
   b4666:	f7ff bdbb 	b.w	b41e0 <_Z7noRuidoi>
   b466a:	e8bd 4008 	ldmia.w	sp!, {r3, lr}
        return (condicion == 0 ? noRuido(puerto) : siRuido(puerto));
   b466e:	f7ff bdad 	b.w	b41cc <_Z7siRuidoi>
        return (condicion == 0 ? noBoton(puerto) : siBoton(puerto));
   b4672:	bb19      	cbnz	r1, b46bc <_Z10leerSensoriii+0x94>
   b4674:	e8bd 4008 	ldmia.w	sp!, {r3, lr}
        return (condicion == 0 ? noBoton(puerto) : siBoton(puerto));
   b4678:	f7ff bdcb 	b.w	b4212 <_Z7noBotoni>
        return (condicion == 0 ? noRotativo(puerto) : siRotativo(puerto));
   b467c:	b919      	cbnz	r1, b4686 <_Z10leerSensoriii+0x5e>
   b467e:	e8bd 4008 	ldmia.w	sp!, {r3, lr}
        return (condicion == 0 ? noRotativo(puerto) : siRotativo(puerto));
   b4682:	f7ff be19 	b.w	b42b8 <_Z10noRotativoi>
   b4686:	e8bd 4008 	ldmia.w	sp!, {r3, lr}
        return (condicion == 0 ? noRotativo(puerto) : siRotativo(puerto));
   b468a:	f7ff bdd1 	b.w	b4230 <_Z10siRotativoi>
        switch (condicion)
   b468e:	2901      	cmp	r1, #1
   b4690:	d006      	beq.n	b46a0 <_Z10leerSensoriii+0x78>
   b4692:	2902      	cmp	r1, #2
   b4694:	d008      	beq.n	b46a8 <_Z10leerSensoriii+0x80>
   b4696:	b959      	cbnz	r1, b46b0 <_Z10leerSensoriii+0x88>
   b4698:	e8bd 4008 	ldmia.w	sp!, {r3, lr}
            return tempFrio(puerto);
   b469c:	f7ff bef6 	b.w	b448c <_Z8tempFrioi>
   b46a0:	e8bd 4008 	ldmia.w	sp!, {r3, lr}
            return tempTemplado(puerto);
   b46a4:	f7ff bf36 	b.w	b4514 <_Z12tempTempladoi>
   b46a8:	e8bd 4008 	ldmia.w	sp!, {r3, lr}
            return tempCalor(puerto);
   b46ac:	f7ff bf74 	b.w	b4598 <_Z9tempCalori>
   b46b0:	e8bd 4008 	ldmia.w	sp!, {r3, lr}
        return (condicion == 0 ? noDistancia(puerto) : siDistancia(puerto));
   b46b4:	f7ff bd51 	b.w	b415a <_Z11siDistanciai>
        return (condicion == 0 ? noAgua(puerto) : siAgua(puerto));
   b46b8:	2900      	cmp	r1, #0
   b46ba:	d1db      	bne.n	b4674 <_Z10leerSensoriii+0x4c>
   b46bc:	e8bd 4008 	ldmia.w	sp!, {r3, lr}
        return (condicion == 0 ? noBoton(puerto) : siBoton(puerto));
   b46c0:	f7ff bd98 	b.w	b41f4 <_Z7siBotoni>
        return (condicion == 0 ? noBotonDualA(puerto) : siBotonDualA(puerto));
   b46c4:	2900      	cmp	r1, #0
   b46c6:	d0f9      	beq.n	b46bc <_Z10leerSensoriii+0x94>
   b46c8:	e8bd 4008 	ldmia.w	sp!, {r3, lr}
        return (condicion == 0 ? noBotonDualA(puerto) : siBotonDualA(puerto));
   b46cc:	f7ff be38 	b.w	b4340 <_Z12siBotonDualAi>
        return (condicion == 0 ? noBotonDualB(puerto) : siBotonDualB(puerto));
   b46d0:	b919      	cbnz	r1, b46da <_Z10leerSensoriii+0xb2>
   b46d2:	e8bd 4008 	ldmia.w	sp!, {r3, lr}
        return (condicion == 0 ? noBotonDualB(puerto) : siBotonDualB(puerto));
   b46d6:	f7ff be5d 	b.w	b4394 <_Z12noBotonDualBi>
   b46da:	e8bd 4008 	ldmia.w	sp!, {r3, lr}
        return (condicion == 0 ? noBotonDualB(puerto) : siBotonDualB(puerto));
   b46de:	f7ff be43 	b.w	b4368 <_Z12siBotonDualBi>
        return (condicion == 0 ? noBotonDual2(puerto) : siBotonDual2(puerto));
   b46e2:	b919      	cbnz	r1, b46ec <_Z10leerSensoriii+0xc4>
   b46e4:	e8bd 4008 	ldmia.w	sp!, {r3, lr}
        return (condicion == 0 ? noBotonDual2(puerto) : siBotonDual2(puerto));
   b46e8:	f7ff be7d 	b.w	b43e6 <_Z12noBotonDual2i>
   b46ec:	e8bd 4008 	ldmia.w	sp!, {r3, lr}
        return (condicion == 0 ? noBotonDual2(puerto) : siBotonDual2(puerto));
   b46f0:	f7ff be60 	b.w	b43b4 <_Z12siBotonDual2i>
        return (condicion == 0 ? noTurbia(puerto) : siTurbia(puerto));
   b46f4:	b919      	cbnz	r1, b46fe <_Z10leerSensoriii+0xd6>
   b46f6:	e8bd 4008 	ldmia.w	sp!, {r3, lr}
        return (condicion == 0 ? noTurbia(puerto) : siTurbia(puerto));
   b46fa:	f7ff beb2 	b.w	b4462 <_Z8noTurbiai>
   b46fe:	e8bd 4008 	ldmia.w	sp!, {r3, lr}
        return (condicion == 0 ? noTurbia(puerto) : siTurbia(puerto));
   b4702:	f7ff be88 	b.w	b4416 <_Z8siTurbiai>
        Serial.println("InvalidSensorError");
   b4706:	f005 faff 	bl	b9d08 <_Z16_fetch_usbserialv>
   b470a:	4902      	ldr	r1, [pc, #8]	; (b4714 <_Z10leerSensoriii+0xec>)
   b470c:	f005 f8fb 	bl	b9906 <_ZN5Print7printlnEPKc>
   b4710:	2000      	movs	r0, #0
   b4712:	bd08      	pop	{r3, pc}
   b4714:	000bae3e 	.word	0x000bae3e

000b4718 <_Z9ledApagarv>:
bool init = false;

int counter = 0;

void ledApagar()
{
   b4718:	b507      	push	{r0, r1, r2, lr}
   ledObject.setColorRGB(0, 0, 0, 0);
   b471a:	2300      	movs	r3, #0
   b471c:	4804      	ldr	r0, [pc, #16]	; (b4730 <_Z9ledApagarv+0x18>)
   b471e:	9300      	str	r3, [sp, #0]
   b4720:	461a      	mov	r2, r3
   b4722:	4619      	mov	r1, r3
   b4724:	f004 fb8a 	bl	b8e3c <_ZN12ChainableLED11setColorRGBEhhhh>
}
   b4728:	b003      	add	sp, #12
   b472a:	f85d fb04 	ldr.w	pc, [sp], #4
   b472e:	bf00      	nop
   b4730:	2003d6f8 	.word	0x2003d6f8

000b4734 <_Z7ledRojov>:
void ledRojo()
{
   b4734:	b507      	push	{r0, r1, r2, lr}
    // Serial.println("LedRojo");
    ledObject.setColorRGB(0, 255, 0, 0);
   b4736:	2300      	movs	r3, #0
   b4738:	4804      	ldr	r0, [pc, #16]	; (b474c <_Z7ledRojov+0x18>)
   b473a:	9300      	str	r3, [sp, #0]
   b473c:	22ff      	movs	r2, #255	; 0xff
   b473e:	4619      	mov	r1, r3
   b4740:	f004 fb7c 	bl	b8e3c <_ZN12ChainableLED11setColorRGBEhhhh>
}
   b4744:	b003      	add	sp, #12
   b4746:	f85d fb04 	ldr.w	pc, [sp], #4
   b474a:	bf00      	nop
   b474c:	2003d6f8 	.word	0x2003d6f8

000b4750 <_Z8ledVerdev>:
void ledVerde()
{
   b4750:	b507      	push	{r0, r1, r2, lr}
    ledObject.setColorRGB(0, 0, 255, 10);
   b4752:	230a      	movs	r3, #10
   b4754:	2200      	movs	r2, #0
   b4756:	9300      	str	r3, [sp, #0]
   b4758:	4803      	ldr	r0, [pc, #12]	; (b4768 <_Z8ledVerdev+0x18>)
   b475a:	23ff      	movs	r3, #255	; 0xff
   b475c:	4611      	mov	r1, r2
   b475e:	f004 fb6d 	bl	b8e3c <_ZN12ChainableLED11setColorRGBEhhhh>
}
   b4762:	b003      	add	sp, #12
   b4764:	f85d fb04 	ldr.w	pc, [sp], #4
   b4768:	2003d6f8 	.word	0x2003d6f8

000b476c <_Z7ledAzulv>:
void ledAzul()
{
   b476c:	b507      	push	{r0, r1, r2, lr}
    ledObject.setColorRGB(0, 0, 0, 255);
   b476e:	23ff      	movs	r3, #255	; 0xff
   b4770:	9300      	str	r3, [sp, #0]
   b4772:	2300      	movs	r3, #0
   b4774:	4803      	ldr	r0, [pc, #12]	; (b4784 <_Z7ledAzulv+0x18>)
   b4776:	461a      	mov	r2, r3
   b4778:	4619      	mov	r1, r3
   b477a:	f004 fb5f 	bl	b8e3c <_ZN12ChainableLED11setColorRGBEhhhh>
}
   b477e:	b003      	add	sp, #12
   b4780:	f85d fb04 	ldr.w	pc, [sp], #4
   b4784:	2003d6f8 	.word	0x2003d6f8

000b4788 <_Z11ledAmarillov>:
void ledAmarillo()
{
   b4788:	b507      	push	{r0, r1, r2, lr}
    ledObject.setColorRGB(0, 255, 233, 0);
   b478a:	2100      	movs	r1, #0
   b478c:	4804      	ldr	r0, [pc, #16]	; (b47a0 <_Z11ledAmarillov+0x18>)
   b478e:	9100      	str	r1, [sp, #0]
   b4790:	23e9      	movs	r3, #233	; 0xe9
   b4792:	22ff      	movs	r2, #255	; 0xff
   b4794:	f004 fb52 	bl	b8e3c <_ZN12ChainableLED11setColorRGBEhhhh>
}
   b4798:	b003      	add	sp, #12
   b479a:	f85d fb04 	ldr.w	pc, [sp], #4
   b479e:	bf00      	nop
   b47a0:	2003d6f8 	.word	0x2003d6f8

000b47a4 <_Z9ledMoradov>:
void ledMorado()
{
   b47a4:	b507      	push	{r0, r1, r2, lr}
    ledObject.setColorRGB(0, 108, 70, 117);
   b47a6:	2375      	movs	r3, #117	; 0x75
   b47a8:	9300      	str	r3, [sp, #0]
   b47aa:	4804      	ldr	r0, [pc, #16]	; (b47bc <_Z9ledMoradov+0x18>)
   b47ac:	2346      	movs	r3, #70	; 0x46
   b47ae:	226c      	movs	r2, #108	; 0x6c
   b47b0:	2100      	movs	r1, #0
   b47b2:	f004 fb43 	bl	b8e3c <_ZN12ChainableLED11setColorRGBEhhhh>
}
   b47b6:	b003      	add	sp, #12
   b47b8:	f85d fb04 	ldr.w	pc, [sp], #4
   b47bc:	2003d6f8 	.word	0x2003d6f8

000b47c0 <_Z10ledNaranjav>:
void ledNaranja()
{
   b47c0:	b507      	push	{r0, r1, r2, lr}
    ledObject.setColorRGB(0, 255, 128, 0);
   b47c2:	2100      	movs	r1, #0
   b47c4:	4804      	ldr	r0, [pc, #16]	; (b47d8 <_Z10ledNaranjav+0x18>)
   b47c6:	9100      	str	r1, [sp, #0]
   b47c8:	2380      	movs	r3, #128	; 0x80
   b47ca:	22ff      	movs	r2, #255	; 0xff
   b47cc:	f004 fb36 	bl	b8e3c <_ZN12ChainableLED11setColorRGBEhhhh>
}
   b47d0:	b003      	add	sp, #12
   b47d2:	f85d fb04 	ldr.w	pc, [sp], #4
   b47d6:	bf00      	nop
   b47d8:	2003d6f8 	.word	0x2003d6f8

000b47dc <_Z9ledBlancov>:
void ledBlanco()
{
   b47dc:	b507      	push	{r0, r1, r2, lr}
    ledObject.setColorRGB(0, 255, 255, 255);
   b47de:	23ff      	movs	r3, #255	; 0xff
   b47e0:	4804      	ldr	r0, [pc, #16]	; (b47f4 <_Z9ledBlancov+0x18>)
   b47e2:	9300      	str	r3, [sp, #0]
   b47e4:	461a      	mov	r2, r3
   b47e6:	2100      	movs	r1, #0
   b47e8:	f004 fb28 	bl	b8e3c <_ZN12ChainableLED11setColorRGBEhhhh>
}
   b47ec:	b003      	add	sp, #12
   b47ee:	f85d fb04 	ldr.w	pc, [sp], #4
   b47f2:	bf00      	nop
   b47f4:	2003d6f8 	.word	0x2003d6f8

000b47f8 <_Z11ledArcoirisv>:
void ledArcoiris()
{
   b47f8:	b510      	push	{r4, lr}
   switch (counter)
   b47fa:	4c11      	ldr	r4, [pc, #68]	; (b4840 <_Z11ledArcoirisv+0x48>)
   b47fc:	6823      	ldr	r3, [r4, #0]
   b47fe:	2b05      	cmp	r3, #5
   b4800:	d809      	bhi.n	b4816 <_Z11ledArcoirisv+0x1e>
   b4802:	e8df f003 	tbb	[pc, r3]
   b4806:	0d03      	.short	0x0d03
   b4808:	19161310 	.word	0x19161310
   {
   case 0:
      ledRojo();
   b480c:	f7ff ff92 	bl	b4734 <_Z7ledRojov>
      counter++;
      break;

   case 4:
      ledMorado();
      counter++;
   b4810:	6823      	ldr	r3, [r4, #0]
   b4812:	3301      	adds	r3, #1
      break;

   case 5:
      ledAzul();
      counter = 0;
   b4814:	6023      	str	r3, [r4, #0]
    for (double i = 0; i < 1; i += 0.01)
    {
        ledObject.setColorHSB(0, i, 0.75, 0.75);
    }*/

}
   b4816:	e8bd 4010 	ldmia.w	sp!, {r4, lr}
   delay(150);
   b481a:	2096      	movs	r0, #150	; 0x96
   b481c:	f005 b8de 	b.w	b99dc <delay>
      ledNaranja();
   b4820:	f7ff ffce 	bl	b47c0 <_Z10ledNaranjav>
      counter++;
   b4824:	e7f4      	b.n	b4810 <_Z11ledArcoirisv+0x18>
      ledAmarillo();
   b4826:	f7ff ffaf 	bl	b4788 <_Z11ledAmarillov>
      counter++;
   b482a:	e7f1      	b.n	b4810 <_Z11ledArcoirisv+0x18>
      ledVerde();
   b482c:	f7ff ff90 	bl	b4750 <_Z8ledVerdev>
      counter++;
   b4830:	e7ee      	b.n	b4810 <_Z11ledArcoirisv+0x18>
      ledMorado();
   b4832:	f7ff ffb7 	bl	b47a4 <_Z9ledMoradov>
   b4836:	e7eb      	b.n	b4810 <_Z11ledArcoirisv+0x18>
      ledAzul();
   b4838:	f7ff ff98 	bl	b476c <_Z7ledAzulv>
      counter = 0;
   b483c:	2300      	movs	r3, #0
   b483e:	e7e9      	b.n	b4814 <_Z11ledArcoirisv+0x1c>
   b4840:	2003d350 	.word	0x2003d350

000b4844 <_Z9pitidoON0v>:
//--------------------------------- M O D O   0 ---------------------------------
//-------------------------------------------------------------------------------

void 
pitidoON0()
{
   b4844:	b508      	push	{r3, lr}
   //Serial.println("Zumbador ON");
   digitalWrite(Zumbador_PIN, 1);
   b4846:	2101      	movs	r1, #1
   b4848:	2006      	movs	r0, #6
   b484a:	f005 fc98 	bl	ba17e <digitalWrite>
   digitalWrite(Zumbador_PIN, HIGH);
   b484e:	2101      	movs	r1, #1
   b4850:	2006      	movs	r0, #6
   b4852:	f005 fc94 	bl	ba17e <digitalWrite>
   digitalWrite(D7, HIGH);
   b4856:	2101      	movs	r1, #1
   b4858:	2007      	movs	r0, #7
   b485a:	f005 fc90 	bl	ba17e <digitalWrite>
   digitalWrite(D7, 1);
}
   b485e:	e8bd 4008 	ldmia.w	sp!, {r3, lr}
   digitalWrite(D7, 1);
   b4862:	2101      	movs	r1, #1
   b4864:	2007      	movs	r0, #7
   b4866:	f005 bc8a 	b.w	ba17e <digitalWrite>

000b486a <_Z10pitidoOFF0v>:

void pitidoOFF0()
{
   b486a:	b508      	push	{r3, lr}
   //Serial.println("Zumbador OFF");
   digitalWrite(Zumbador_PIN, 0);
   b486c:	2100      	movs	r1, #0
   b486e:	2006      	movs	r0, #6
   b4870:	f005 fc85 	bl	ba17e <digitalWrite>
   digitalWrite(Zumbador_PIN, LOW);
   b4874:	2100      	movs	r1, #0
   b4876:	2006      	movs	r0, #6
   b4878:	f005 fc81 	bl	ba17e <digitalWrite>
   digitalWrite(D7, LOW);
   b487c:	2100      	movs	r1, #0
   b487e:	2007      	movs	r0, #7
   b4880:	f005 fc7d 	bl	ba17e <digitalWrite>
   digitalWrite(D7, 0);
}
   b4884:	e8bd 4008 	ldmia.w	sp!, {r3, lr}
   digitalWrite(D7, 0);
   b4888:	2100      	movs	r1, #0
   b488a:	2007      	movs	r0, #7
   b488c:	f005 bc77 	b.w	ba17e <digitalWrite>

000b4890 <_Z12pitidoBlink0v>:

void pitidoBlink0()
{
   b4890:	b508      	push	{r3, lr}
   pitidoON0();
   b4892:	f7ff ffd7 	bl	b4844 <_Z9pitidoON0v>
   delay(100);
   b4896:	2064      	movs	r0, #100	; 0x64
   b4898:	f005 f8a0 	bl	b99dc <delay>
   pitidoOFF0();
   b489c:	f7ff ffe5 	bl	b486a <_Z10pitidoOFF0v>
   delay(100);
}
   b48a0:	e8bd 4008 	ldmia.w	sp!, {r3, lr}
   delay(100);
   b48a4:	2064      	movs	r0, #100	; 0x64
   b48a6:	f005 b899 	b.w	b99dc <delay>

000b48aa <_Z14ledAzulNaranjab>:

void ledAzulNaranja(boolean estado)
{
   if (estado)
   b48aa:	b108      	cbz	r0, b48b0 <_Z14ledAzulNaranjab+0x6>
   {
      ledAzul();
   b48ac:	f7ff bf5e 	b.w	b476c <_Z7ledAzulv>
   }
   else
   {
      ledNaranja();
   b48b0:	f7ff bf86 	b.w	b47c0 <_Z10ledNaranjav>

000b48b4 <_Z17ledMoradoAmarillob>:
   }
}
void ledMoradoAmarillo(boolean estado)
{
   if (estado)
   b48b4:	b108      	cbz	r0, b48ba <_Z17ledMoradoAmarillob+0x6>
   {
      ledAmarillo();
   b48b6:	f7ff bf67 	b.w	b4788 <_Z11ledAmarillov>
   }
   else
   {
      ledMorado();
   b48ba:	f7ff bf73 	b.w	b47a4 <_Z9ledMoradov>

000b48be <_Z12ledVerdeRojob>:
   }
}
void ledVerdeRojo(boolean estado)
{
   if (estado)
   b48be:	b108      	cbz	r0, b48c4 <_Z12ledVerdeRojob+0x6>
   {
      ledVerde();
   b48c0:	f7ff bf46 	b.w	b4750 <_Z8ledVerdev>
   }
   else
   {
      ledRojo();
   b48c4:	f7ff bf36 	b.w	b4734 <_Z7ledRojov>

000b48c8 <_Z9ledBlink0b>:
   }
}
void ledBlink0(boolean estado)
{
   b48c8:	b508      	push	{r3, lr}
   if (estado)
   b48ca:	b160      	cbz	r0, b48e6 <_Z9ledBlink0b+0x1e>
   {
      ledBlanco();
   b48cc:	f7ff ff86 	bl	b47dc <_Z9ledBlancov>
      delay(400);
   b48d0:	f44f 70c8 	mov.w	r0, #400	; 0x190
   b48d4:	f005 f882 	bl	b99dc <delay>
      ledApagar();
   b48d8:	f7ff ff1e 	bl	b4718 <_Z9ledApagarv>
   }
   else
   {
      ledApagar();
   }
}
   b48dc:	e8bd 4008 	ldmia.w	sp!, {r3, lr}
      delay(200);
   b48e0:	20c8      	movs	r0, #200	; 0xc8
   b48e2:	f005 b87b 	b.w	b99dc <delay>
}
   b48e6:	e8bd 4008 	ldmia.w	sp!, {r3, lr}
      ledApagar();
   b48ea:	f7ff bf15 	b.w	b4718 <_Z9ledApagarv>

000b48ee <_Z8ledOnOffb>:

void ledOnOff(boolean estado)
{
   if (estado)
   b48ee:	b108      	cbz	r0, b48f4 <_Z8ledOnOffb+0x6>
   {
      ledBlanco();
   b48f0:	f7ff bf74 	b.w	b47dc <_Z9ledBlancov>
   }
   else
   {
      ledApagar();
   b48f4:	f7ff bf10 	b.w	b4718 <_Z9ledApagarv>

000b48f8 <_Z12ledArcoiris0b>:
   }
}

void ledArcoiris0(boolean estado)
{
   if (estado)
   b48f8:	b108      	cbz	r0, b48fe <_Z12ledArcoiris0b+0x6>
   {
      ledArcoiris();
   b48fa:	f7ff bf7d 	b.w	b47f8 <_Z11ledArcoirisv>
   }
   else
   {
      ledApagar();
   b48fe:	f7ff bf0b 	b.w	b4718 <_Z9ledApagarv>

000b4902 <_Z13blinkAndSleepb>:
   }
}

void blinkAndSleep(boolean estado)
{
   if (estado)
   b4902:	b108      	cbz	r0, b4908 <_Z13blinkAndSleepb+0x6>
   {
      pitidoBlink0();
   b4904:	f7ff bfc4 	b.w	b4890 <_Z12pitidoBlink0v>
   }
   else
   {
      pitidoOFF0();
   b4908:	f7ff bfaf 	b.w	b486a <_Z10pitidoOFF0v>

000b490c <_Z8zumbadorb>:
   }
}
void zumbador(boolean estado)
{
   if (estado)
   b490c:	b108      	cbz	r0, b4912 <_Z8zumbadorb+0x6>
   {
      pitidoON0();
   b490e:	f7ff bf99 	b.w	b4844 <_Z9pitidoON0v>
   }
   else
   {
      pitidoOFF0();
   b4912:	f7ff bfaa 	b.w	b486a <_Z10pitidoOFF0v>
	...

000b4918 <_Z15activarActuadoriib>:
   }
}

void activarActuador(int id, int opcion, boolean valor)
{
   switch (id)
   b4918:	2801      	cmp	r0, #1
{
   b491a:	b538      	push	{r3, r4, r5, lr}
   b491c:	460d      	mov	r5, r1
   b491e:	4614      	mov	r4, r2
   switch (id)
   b4920:	d027      	beq.n	b4972 <_Z15activarActuadoriib+0x5a>
   b4922:	280d      	cmp	r0, #13
   b4924:	d03b      	beq.n	b499e <_Z15activarActuadoriib+0x86>
   b4926:	bb48      	cbnz	r0, b497c <_Z15activarActuadoriib+0x64>
   {
      pitidoOFF0();
   // Actuador led
   case 0:

      switch (opcion) {
   b4928:	2905      	cmp	r1, #5
   b492a:	d827      	bhi.n	b497c <_Z15activarActuadoriib+0x64>
   b492c:	e8df f001 	tbb	[pc, r1]
   b4930:	120d0803 	.word	0x120d0803
   b4934:	1c17      	.short	0x1c17
      
   default:
      Serial.println("Valor no valido");
      break;
   }
}
   b4936:	e8bd 4038 	ldmia.w	sp!, {r3, r4, r5, lr}
            ledVerdeRojo(valor);
   b493a:	4610      	mov	r0, r2
   b493c:	f7ff bfbf 	b.w	b48be <_Z12ledVerdeRojob>
}
   b4940:	e8bd 4038 	ldmia.w	sp!, {r3, r4, r5, lr}
            ledMoradoAmarillo(valor);
   b4944:	4610      	mov	r0, r2
   b4946:	f7ff bfb5 	b.w	b48b4 <_Z17ledMoradoAmarillob>
}
   b494a:	e8bd 4038 	ldmia.w	sp!, {r3, r4, r5, lr}
            ledAzulNaranja(valor);
   b494e:	4610      	mov	r0, r2
   b4950:	f7ff bfab 	b.w	b48aa <_Z14ledAzulNaranjab>
}
   b4954:	e8bd 4038 	ldmia.w	sp!, {r3, r4, r5, lr}
            ledBlink0(valor);
   b4958:	4610      	mov	r0, r2
   b495a:	f7ff bfb5 	b.w	b48c8 <_Z9ledBlink0b>
}
   b495e:	e8bd 4038 	ldmia.w	sp!, {r3, r4, r5, lr}
            ledArcoiris0(valor);
   b4962:	4610      	mov	r0, r2
   b4964:	f7ff bfc8 	b.w	b48f8 <_Z12ledArcoiris0b>
}
   b4968:	e8bd 4038 	ldmia.w	sp!, {r3, r4, r5, lr}
            ledOnOff(valor);
   b496c:	4610      	mov	r0, r2
   b496e:	f7ff bfbe 	b.w	b48ee <_Z8ledOnOffb>
      ledApagar();
   b4972:	f7ff fed1 	bl	b4718 <_Z9ledApagarv>
      switch (opcion) {
   b4976:	b145      	cbz	r5, b498a <_Z15activarActuadoriib+0x72>
   b4978:	2d01      	cmp	r5, #1
   b497a:	d00b      	beq.n	b4994 <_Z15activarActuadoriib+0x7c>
            Serial.println("Valor no valido");
   b497c:	f005 f9c4 	bl	b9d08 <_Z16_fetch_usbserialv>
}
   b4980:	e8bd 4038 	ldmia.w	sp!, {r3, r4, r5, lr}
            Serial.println("Valor no valido");
   b4984:	490f      	ldr	r1, [pc, #60]	; (b49c4 <_Z15activarActuadoriib+0xac>)
   b4986:	f004 bfbe 	b.w	b9906 <_ZN5Print7printlnEPKc>
            zumbador(valor);
   b498a:	4620      	mov	r0, r4
}
   b498c:	e8bd 4038 	ldmia.w	sp!, {r3, r4, r5, lr}
            zumbador(valor);
   b4990:	f7ff bfbc 	b.w	b490c <_Z8zumbadorb>
            blinkAndSleep(valor);
   b4994:	4620      	mov	r0, r4
}
   b4996:	e8bd 4038 	ldmia.w	sp!, {r3, r4, r5, lr}
            blinkAndSleep(valor);
   b499a:	f7ff bfb2 	b.w	b4902 <_Z13blinkAndSleepb>
      pitidoOFF0();
   b499e:	f7ff ff64 	bl	b486a <_Z10pitidoOFF0v>
      ledApagar();
   b49a2:	f7ff feb9 	bl	b4718 <_Z9ledApagarv>
      pinMode(A2, OUTPUT);
   b49a6:	2101      	movs	r1, #1
   b49a8:	2011      	movs	r0, #17
   b49aa:	f005 fbd7 	bl	ba15c <pinMode>
      if (valor) {
   b49ae:	b134      	cbz	r4, b49be <_Z15activarActuadoriib+0xa6>
         analogWrite(A2, 50, 40);
   b49b0:	2228      	movs	r2, #40	; 0x28
   b49b2:	2132      	movs	r1, #50	; 0x32
}
   b49b4:	e8bd 4038 	ldmia.w	sp!, {r3, r4, r5, lr}
         analogWrite(A2, 0, 0);
   b49b8:	2011      	movs	r0, #17
   b49ba:	f005 bc23 	b.w	ba204 <_Z11analogWritetmm>
   b49be:	4622      	mov	r2, r4
   b49c0:	4621      	mov	r1, r4
   b49c2:	e7f7      	b.n	b49b4 <_Z15activarActuadoriib+0x9c>
   b49c4:	000bae51 	.word	0x000bae51

000b49c8 <_Z8ledBlinkv>:
//-------------------------------------------------------------------------------
//--------------------------------- M O D O   1 ---------------------------------
//-------------------------------------------------------------------------------

void ledBlink()
{
   b49c8:	b508      	push	{r3, lr}
    ledBlanco();
   b49ca:	f7ff ff07 	bl	b47dc <_Z9ledBlancov>
    delay(400);
   b49ce:	f44f 70c8 	mov.w	r0, #400	; 0x190
   b49d2:	f005 f803 	bl	b99dc <delay>
    ledApagar();
   b49d6:	f7ff fe9f 	bl	b4718 <_Z9ledApagarv>
    delay(200);
}
   b49da:	e8bd 4008 	ldmia.w	sp!, {r3, lr}
    delay(200);
   b49de:	20c8      	movs	r0, #200	; 0xc8
   b49e0:	f004 bffc 	b.w	b99dc <delay>

000b49e4 <_Z9pitidoON1i>:

// Acciones del zumbador MODO 1
void pitidoON1(int puerto)
{
   b49e4:	b513      	push	{r0, r1, r4, lr}
    digitalWrite(puerto, 1);
   b49e6:	b284      	uxth	r4, r0
   b49e8:	4620      	mov	r0, r4
   b49ea:	2101      	movs	r1, #1
   b49ec:	f005 fbc7 	bl	ba17e <digitalWrite>
    digitalWrite(puerto, HIGH);
   b49f0:	4620      	mov	r0, r4
   b49f2:	2101      	movs	r1, #1
   b49f4:	f005 fbc3 	bl	ba17e <digitalWrite>
    digitalWrite(puerto + 1, HIGH);
   b49f8:	1c60      	adds	r0, r4, #1
   b49fa:	b280      	uxth	r0, r0
   b49fc:	2101      	movs	r1, #1
   b49fe:	9001      	str	r0, [sp, #4]
   b4a00:	f005 fbbd 	bl	ba17e <digitalWrite>
    digitalWrite(puerto + 1, 1);
   b4a04:	9801      	ldr	r0, [sp, #4]
   b4a06:	2101      	movs	r1, #1
}
   b4a08:	b002      	add	sp, #8
   b4a0a:	e8bd 4010 	ldmia.w	sp!, {r4, lr}
    digitalWrite(puerto + 1, 1);
   b4a0e:	f005 bbb6 	b.w	ba17e <digitalWrite>

000b4a12 <_Z10pitidoOFF1i>:

void pitidoOFF1(int puerto)
{
   b4a12:	b513      	push	{r0, r1, r4, lr}
    digitalWrite(puerto, 0);
   b4a14:	b284      	uxth	r4, r0
   b4a16:	4620      	mov	r0, r4
   b4a18:	2100      	movs	r1, #0
   b4a1a:	f005 fbb0 	bl	ba17e <digitalWrite>
    digitalWrite(puerto, LOW);
   b4a1e:	4620      	mov	r0, r4
   b4a20:	2100      	movs	r1, #0
   b4a22:	f005 fbac 	bl	ba17e <digitalWrite>
    digitalWrite(puerto + 1, LOW);
   b4a26:	1c60      	adds	r0, r4, #1
   b4a28:	b280      	uxth	r0, r0
   b4a2a:	2100      	movs	r1, #0
   b4a2c:	9001      	str	r0, [sp, #4]
   b4a2e:	f005 fba6 	bl	ba17e <digitalWrite>
    digitalWrite(puerto + 1, 0);
   b4a32:	9801      	ldr	r0, [sp, #4]
   b4a34:	2100      	movs	r1, #0
}
   b4a36:	b002      	add	sp, #8
   b4a38:	e8bd 4010 	ldmia.w	sp!, {r4, lr}
    digitalWrite(puerto + 1, 0);
   b4a3c:	f005 bb9f 	b.w	ba17e <digitalWrite>

000b4a40 <_Z12pitidoBlink1i>:

void pitidoBlink1(int puerto)
{
   b4a40:	b510      	push	{r4, lr}
   b4a42:	4604      	mov	r4, r0
    pitidoON1(puerto);
   b4a44:	f7ff ffce 	bl	b49e4 <_Z9pitidoON1i>
    delay(100);
   b4a48:	2064      	movs	r0, #100	; 0x64
   b4a4a:	f004 ffc7 	bl	b99dc <delay>
    pitidoOFF1(puerto);
   b4a4e:	4620      	mov	r0, r4
   b4a50:	f7ff ffdf 	bl	b4a12 <_Z10pitidoOFF1i>
    delay(100);
}
   b4a54:	e8bd 4010 	ldmia.w	sp!, {r4, lr}
    delay(100);
   b4a58:	2064      	movs	r0, #100	; 0x64
   b4a5a:	f004 bfbf 	b.w	b99dc <delay>
	...

000b4a60 <_Z10activarLEDii>:

// Recive el actuador que es, el tipo de actuador, el puerto al que esta conectado, el valor de los sensores para actuar en consecuencia y los puertos de dichos sensores.
void activarLED(int opcion, int puerto)
{
   b4a60:	b508      	push	{r3, lr}
   b4a62:	2807      	cmp	r0, #7
   b4a64:	d825      	bhi.n	b4ab2 <_Z10activarLEDii+0x52>
   b4a66:	e8df f000 	tbb	[pc, r0]
   b4a6a:	0804      	.short	0x0804
   b4a6c:	1814100c 	.word	0x1814100c
   b4a70:	201c      	.short	0x201c

    default:
        Serial.println("LedErrorOption");
        break;
    }
}
   b4a72:	e8bd 4008 	ldmia.w	sp!, {r3, lr}
        ledVerde();
   b4a76:	f7ff be6b 	b.w	b4750 <_Z8ledVerdev>
}
   b4a7a:	e8bd 4008 	ldmia.w	sp!, {r3, lr}
        ledRojo();
   b4a7e:	f7ff be59 	b.w	b4734 <_Z7ledRojov>
}
   b4a82:	e8bd 4008 	ldmia.w	sp!, {r3, lr}
        ledAmarillo();
   b4a86:	f7ff be7f 	b.w	b4788 <_Z11ledAmarillov>
}
   b4a8a:	e8bd 4008 	ldmia.w	sp!, {r3, lr}
        ledMorado();
   b4a8e:	f7ff be89 	b.w	b47a4 <_Z9ledMoradov>
}
   b4a92:	e8bd 4008 	ldmia.w	sp!, {r3, lr}
        ledAzul();
   b4a96:	f7ff be69 	b.w	b476c <_Z7ledAzulv>
}
   b4a9a:	e8bd 4008 	ldmia.w	sp!, {r3, lr}
        ledNaranja();
   b4a9e:	f7ff be8f 	b.w	b47c0 <_Z10ledNaranjav>
}
   b4aa2:	e8bd 4008 	ldmia.w	sp!, {r3, lr}
        ledBlink();
   b4aa6:	f7ff bf8f 	b.w	b49c8 <_Z8ledBlinkv>
}
   b4aaa:	e8bd 4008 	ldmia.w	sp!, {r3, lr}
        ledArcoiris();
   b4aae:	f7ff bea3 	b.w	b47f8 <_Z11ledArcoirisv>
        Serial.println("LedErrorOption");
   b4ab2:	f005 f929 	bl	b9d08 <_Z16_fetch_usbserialv>
}
   b4ab6:	e8bd 4008 	ldmia.w	sp!, {r3, lr}
        Serial.println("LedErrorOption");
   b4aba:	4901      	ldr	r1, [pc, #4]	; (b4ac0 <_Z10activarLEDii+0x60>)
   b4abc:	f004 bf23 	b.w	b9906 <_ZN5Print7printlnEPKc>
   b4ac0:	000bae61 	.word	0x000bae61

000b4ac4 <_Z15activarZumbadorii>:

void activarZumbador(int opcion, int puerto)
{
   b4ac4:	b538      	push	{r3, r4, r5, lr}
   b4ac6:	460c      	mov	r4, r1
   b4ac8:	4605      	mov	r5, r0
    pinMode(puerto, OUTPUT);
   b4aca:	2101      	movs	r1, #1
   b4acc:	b2a0      	uxth	r0, r4
   b4ace:	f005 fb45 	bl	ba15c <pinMode>

    switch (opcion)
   b4ad2:	b145      	cbz	r5, b4ae6 <_Z15activarZumbadorii+0x22>
   b4ad4:	2d01      	cmp	r5, #1
   b4ad6:	d00b      	beq.n	b4af0 <_Z15activarZumbadorii+0x2c>
        break;
    case 1:
        pitidoBlink1(puerto);
        break;
    default:
        Serial.println("Valor no valido");
   b4ad8:	f005 f916 	bl	b9d08 <_Z16_fetch_usbserialv>
        break;
    }
}
   b4adc:	e8bd 4038 	ldmia.w	sp!, {r3, r4, r5, lr}
        Serial.println("Valor no valido");
   b4ae0:	4906      	ldr	r1, [pc, #24]	; (b4afc <_Z15activarZumbadorii+0x38>)
   b4ae2:	f004 bf10 	b.w	b9906 <_ZN5Print7printlnEPKc>
        pitidoON1(puerto);
   b4ae6:	4620      	mov	r0, r4
}
   b4ae8:	e8bd 4038 	ldmia.w	sp!, {r3, r4, r5, lr}
        pitidoON1(puerto);
   b4aec:	f7ff bf7a 	b.w	b49e4 <_Z9pitidoON1i>
        pitidoBlink1(puerto);
   b4af0:	4620      	mov	r0, r4
}
   b4af2:	e8bd 4038 	ldmia.w	sp!, {r3, r4, r5, lr}
        pitidoBlink1(puerto);
   b4af6:	f7ff bfa3 	b.w	b4a40 <_Z12pitidoBlink1i>
   b4afa:	bf00      	nop
   b4afc:	000bae51 	.word	0x000bae51

000b4b00 <_Z17activarVentiladorii>:

void activarVentilador(int opcion, int puerto)
{
   b4b00:	b537      	push	{r0, r1, r2, r4, r5, lr}
   b4b02:	460c      	mov	r4, r1
   b4b04:	4605      	mov	r5, r0
   pitidoOFF0();
   b4b06:	f7ff feb0 	bl	b486a <_Z10pitidoOFF0v>
   ledApagar();
   b4b0a:	f7ff fe05 	bl	b4718 <_Z9ledApagarv>

   int p;
   switch (puerto)
   b4b0e:	2c04      	cmp	r4, #4
   b4b10:	bf9a      	itte	ls
   b4b12:	4b0d      	ldrls	r3, [pc, #52]	; (b4b48 <_Z17activarVentiladorii+0x48>)
   b4b14:	571b      	ldrsbls	r3, [r3, r4]
   ledApagar();
   b4b16:	f04f 33ff 	movhi.w	r3, #4294967295
    default:
        p = -1;
        break;
    }

   pinMode(p, OUTPUT);
   b4b1a:	b298      	uxth	r0, r3
   b4b1c:	2101      	movs	r1, #1
   b4b1e:	9001      	str	r0, [sp, #4]
   b4b20:	f005 fb1c 	bl	ba15c <pinMode>
    switch (opcion)
   b4b24:	2d01      	cmp	r5, #1
   b4b26:	d807      	bhi.n	b4b38 <_Z17activarVentiladorii+0x38>
    {
    case 0:
      analogWrite(p, 50, 50);
      break;
    case 1:
      analogWrite(p, 50, 50);
   b4b28:	2232      	movs	r2, #50	; 0x32
   b4b2a:	9801      	ldr	r0, [sp, #4]
   b4b2c:	4611      	mov	r1, r2
      Serial.println("Valor no valido");
      break;
    }


}
   b4b2e:	b003      	add	sp, #12
   b4b30:	e8bd 4030 	ldmia.w	sp!, {r4, r5, lr}
      analogWrite(p, 50, 50);
   b4b34:	f005 bb66 	b.w	ba204 <_Z11analogWritetmm>
      Serial.println("Valor no valido");
   b4b38:	f005 f8e6 	bl	b9d08 <_Z16_fetch_usbserialv>
   b4b3c:	4903      	ldr	r1, [pc, #12]	; (b4b4c <_Z17activarVentiladorii+0x4c>)
}
   b4b3e:	b003      	add	sp, #12
   b4b40:	e8bd 4030 	ldmia.w	sp!, {r4, r5, lr}
      Serial.println("Valor no valido");
   b4b44:	f004 bedf 	b.w	b9906 <_ZN5Print7printlnEPKc>
   b4b48:	000bb88a 	.word	0x000bb88a
   b4b4c:	000bae51 	.word	0x000bae51

000b4b50 <_Z10ventApagari>:

void ventApagar(int puerto)
{
      int p;
      switch (puerto)
   b4b50:	2804      	cmp	r0, #4
{
   b4b52:	b507      	push	{r0, r1, r2, lr}
   b4b54:	bf9a      	itte	ls
   b4b56:	4b08      	ldrls	r3, [pc, #32]	; (b4b78 <_Z10ventApagari+0x28>)
   b4b58:	5618      	ldrsbls	r0, [r3, r0]
   b4b5a:	f04f 30ff 	movhi.w	r0, #4294967295

      default:
         p = -1;
         break;
      }
      pinMode(p, OUTPUT);
   b4b5e:	b280      	uxth	r0, r0
   b4b60:	2101      	movs	r1, #1
   b4b62:	9001      	str	r0, [sp, #4]
   b4b64:	f005 fafa 	bl	ba15c <pinMode>
      analogWrite(p, 0, 0);
   b4b68:	2200      	movs	r2, #0
   b4b6a:	9801      	ldr	r0, [sp, #4]
   b4b6c:	4611      	mov	r1, r2
}
   b4b6e:	b003      	add	sp, #12
   b4b70:	f85d eb04 	ldr.w	lr, [sp], #4
      analogWrite(p, 0, 0);
   b4b74:	f005 bb46 	b.w	ba204 <_Z11analogWritetmm>
   b4b78:	000bb88a 	.word	0x000bb88a

000b4b7c <_Z14apagarActuadorii>:

void apagarActuador(int id, int puerto)
{
   b4b7c:	b538      	push	{r3, r4, r5, lr}
   b4b7e:	460c      	mov	r4, r1
    id == 0 ? ledApagar() : digitalWrite(puerto, 0);
   b4b80:	4605      	mov	r5, r0
   b4b82:	b918      	cbnz	r0, b4b8c <_Z14apagarActuadorii+0x10>
    if (id == 13){
      ventApagar(puerto);
    }

}
   b4b84:	e8bd 4038 	ldmia.w	sp!, {r3, r4, r5, lr}
    id == 0 ? ledApagar() : digitalWrite(puerto, 0);
   b4b88:	f7ff bdc6 	b.w	b4718 <_Z9ledApagarv>
   b4b8c:	2100      	movs	r1, #0
   b4b8e:	b2a0      	uxth	r0, r4
   b4b90:	f005 faf5 	bl	ba17e <digitalWrite>
    if (id == 13){
   b4b94:	2d0d      	cmp	r5, #13
   b4b96:	d104      	bne.n	b4ba2 <_Z14apagarActuadorii+0x26>
      ventApagar(puerto);
   b4b98:	4620      	mov	r0, r4
}
   b4b9a:	e8bd 4038 	ldmia.w	sp!, {r3, r4, r5, lr}
      ventApagar(puerto);
   b4b9e:	f7ff bfd7 	b.w	b4b50 <_Z10ventApagari>
}
   b4ba2:	bd38      	pop	{r3, r4, r5, pc}

000b4ba4 <_Z15actuadorHandleriii>:

void actuadorHandler(int id, int opcion, int puerto)
{
   b4ba4:	4603      	mov	r3, r0
    if (id < 2)
   b4ba6:	2b01      	cmp	r3, #1
{
   b4ba8:	4608      	mov	r0, r1
   b4baa:	4611      	mov	r1, r2
    if (id < 2)
   b4bac:	dc04      	bgt.n	b4bb8 <_Z15actuadorHandleriii+0x14>
        id == 0 ? activarLED(opcion, puerto) : activarZumbador(opcion, puerto);
   b4bae:	b90b      	cbnz	r3, b4bb4 <_Z15actuadorHandleriii+0x10>
   b4bb0:	f7ff bf56 	b.w	b4a60 <_Z10activarLEDii>
   b4bb4:	f7ff bf86 	b.w	b4ac4 <_Z15activarZumbadorii>
   if (id == 13)
   b4bb8:	2b0d      	cmp	r3, #13
   b4bba:	d101      	bne.n	b4bc0 <_Z15actuadorHandleriii+0x1c>
      activarVentilador(opcion, puerto);
   b4bbc:	f7ff bfa0 	b.w	b4b00 <_Z17activarVentiladorii>
}
   b4bc0:	4770      	bx	lr
	...

000b4bc4 <_Z10borradoALLi>:
   switch (modo)
   b4bc4:	2801      	cmp	r0, #1
   b4bc6:	d00b      	beq.n	b4be0 <_Z10borradoALLi+0x1c>
   b4bc8:	2802      	cmp	r0, #2
   b4bca:	d00b      	beq.n	b4be4 <_Z10borradoALLi+0x20>
   b4bcc:	b988      	cbnz	r0, b4bf2 <_Z10borradoALLi+0x2e>
      bloques[0] = bloque;
   b4bce:	4b09      	ldr	r3, [pc, #36]	; (b4bf4 <_Z10borradoALLi+0x30>)
   b4bd0:	6018      	str	r0, [r3, #0]
   b4bd2:	f8c3 0144 	str.w	r0, [r3, #324]	; 0x144
      numSensoresBloque = 0;
   b4bd6:	4b08      	ldr	r3, [pc, #32]	; (b4bf8 <_Z10borradoALLi+0x34>)
   b4bd8:	6018      	str	r0, [r3, #0]
      numActuadoresBloque = 0;
   b4bda:	4b08      	ldr	r3, [pc, #32]	; (b4bfc <_Z10borradoALLi+0x38>)
   b4bdc:	6018      	str	r0, [r3, #0]
      break;
   b4bde:	4770      	bx	lr
   b4be0:	f7ff ba72 	b.w	b40c8 <_Z10borradoALLi.part.0>
      posicion = 0;
   b4be4:	4a06      	ldr	r2, [pc, #24]	; (b4c00 <_Z10borradoALLi+0x3c>)
   b4be6:	2300      	movs	r3, #0
   b4be8:	6013      	str	r3, [r2, #0]
      bucle = false;
   b4bea:	4a06      	ldr	r2, [pc, #24]	; (b4c04 <_Z10borradoALLi+0x40>)
   b4bec:	7013      	strb	r3, [r2, #0]
      tam_bucle = 0;
   b4bee:	4a06      	ldr	r2, [pc, #24]	; (b4c08 <_Z10borradoALLi+0x44>)
   b4bf0:	6013      	str	r3, [r2, #0]
}
   b4bf2:	4770      	bx	lr
   b4bf4:	2003cd34 	.word	0x2003cd34
   b4bf8:	2003da38 	.word	0x2003da38
   b4bfc:	2003da30 	.word	0x2003da30
   b4c00:	2003da40 	.word	0x2003da40
   b4c04:	2003d30c 	.word	0x2003d30c
   b4c08:	2003dc40 	.word	0x2003dc40

000b4c0c <_Z10borradoPOPv>:
      break;
   }
}

void borradoPOP(){
   posicion--;
   b4c0c:	4a0e      	ldr	r2, [pc, #56]	; (b4c48 <_Z10borradoPOPv+0x3c>)
   b4c0e:	6813      	ldr	r3, [r2, #0]
   b4c10:	3b01      	subs	r3, #1
   b4c12:	6013      	str	r3, [r2, #0]

   if (notas[posicion] == -2) { // Ultima es N iter
   b4c14:	4a0d      	ldr	r2, [pc, #52]	; (b4c4c <_Z10borradoPOPv+0x40>)
   b4c16:	f852 1023 	ldr.w	r1, [r2, r3, lsl #2]
   b4c1a:	1c8a      	adds	r2, r1, #2
   b4c1c:	4a0c      	ldr	r2, [pc, #48]	; (b4c50 <_Z10borradoPOPv+0x44>)
   b4c1e:	d107      	bne.n	b4c30 <_Z10borradoPOPv+0x24>
      bucle = true;
   b4c20:	2101      	movs	r1, #1
   b4c22:	7011      	strb	r1, [r2, #0]
      tam_bucle = duraciones[posicion];
   b4c24:	4a0b      	ldr	r2, [pc, #44]	; (b4c54 <_Z10borradoPOPv+0x48>)
   b4c26:	f852 2023 	ldr.w	r2, [r2, r3, lsl #2]
   b4c2a:	4b0b      	ldr	r3, [pc, #44]	; (b4c58 <_Z10borradoPOPv+0x4c>)
   b4c2c:	601a      	str	r2, [r3, #0]
   b4c2e:	4770      	bx	lr

   } else if (notas[posicion] == -1) { // Ultima es LOOP
   b4c30:	3101      	adds	r1, #1
   b4c32:	d102      	bne.n	b4c3a <_Z10borradoPOPv+0x2e>
      bucle = false;
   b4c34:	2300      	movs	r3, #0
   b4c36:	7013      	strb	r3, [r2, #0]
   b4c38:	4770      	bx	lr

   } else {
      if (bucle) {
   b4c3a:	7813      	ldrb	r3, [r2, #0]
   b4c3c:	b11b      	cbz	r3, b4c46 <_Z10borradoPOPv+0x3a>
         tam_bucle--;
   b4c3e:	4a06      	ldr	r2, [pc, #24]	; (b4c58 <_Z10borradoPOPv+0x4c>)
   b4c40:	6813      	ldr	r3, [r2, #0]
   b4c42:	3b01      	subs	r3, #1
   b4c44:	6013      	str	r3, [r2, #0]
      }
   }
}
   b4c46:	4770      	bx	lr
   b4c48:	2003da40 	.word	0x2003da40
   b4c4c:	2003d710 	.word	0x2003d710
   b4c50:	2003d30c 	.word	0x2003d30c
   b4c54:	2003d3c8 	.word	0x2003d3c8
   b4c58:	2003dc40 	.word	0x2003dc40

000b4c5c <_Z15decodificarNOTAi>:

//--------------------------------  REPRODUCCION  -------------------------------------

int decodificarNOTA(int nota) {
   b4c5c:	b508      	push	{r3, lr}
   b4c5e:	2807      	cmp	r0, #7
   b4c60:	d816      	bhi.n	b4c90 <_Z15decodificarNOTAi+0x34>
   b4c62:	e8df f000 	tbb	[pc, r0]
   b4c66:	0704      	.short	0x0704
   b4c68:	0f0d0b09 	.word	0x0f0d0b09
   b4c6c:	1311      	.short	0x1311
   switch (nota)
   {
   case 0:
      return DO;
   b4c6e:	4b0c      	ldr	r3, [pc, #48]	; (b4ca0 <_Z15decodificarNOTAi+0x44>)

   case 6:
      return SI;

   case 7:
      return DO_;
   b4c70:	6818      	ldr	r0, [r3, #0]

   default:
      Serial.println("Nota invlida");
      return -1;
   }
}
   b4c72:	bd08      	pop	{r3, pc}
      return RE;
   b4c74:	4b0b      	ldr	r3, [pc, #44]	; (b4ca4 <_Z15decodificarNOTAi+0x48>)
   b4c76:	e7fb      	b.n	b4c70 <_Z15decodificarNOTAi+0x14>
      return MI;
   b4c78:	4b0b      	ldr	r3, [pc, #44]	; (b4ca8 <_Z15decodificarNOTAi+0x4c>)
   b4c7a:	e7f9      	b.n	b4c70 <_Z15decodificarNOTAi+0x14>
      return FA;
   b4c7c:	4b0b      	ldr	r3, [pc, #44]	; (b4cac <_Z15decodificarNOTAi+0x50>)
   b4c7e:	e7f7      	b.n	b4c70 <_Z15decodificarNOTAi+0x14>
      return SOL;
   b4c80:	4b0b      	ldr	r3, [pc, #44]	; (b4cb0 <_Z15decodificarNOTAi+0x54>)
   b4c82:	e7f5      	b.n	b4c70 <_Z15decodificarNOTAi+0x14>
      return LA;
   b4c84:	4b0b      	ldr	r3, [pc, #44]	; (b4cb4 <_Z15decodificarNOTAi+0x58>)
   b4c86:	e7f3      	b.n	b4c70 <_Z15decodificarNOTAi+0x14>
      return SI;
   b4c88:	4b0b      	ldr	r3, [pc, #44]	; (b4cb8 <_Z15decodificarNOTAi+0x5c>)
   b4c8a:	e7f1      	b.n	b4c70 <_Z15decodificarNOTAi+0x14>
      return DO_;
   b4c8c:	4b0b      	ldr	r3, [pc, #44]	; (b4cbc <_Z15decodificarNOTAi+0x60>)
   b4c8e:	e7ef      	b.n	b4c70 <_Z15decodificarNOTAi+0x14>
      Serial.println("Nota invlida");
   b4c90:	f005 f83a 	bl	b9d08 <_Z16_fetch_usbserialv>
   b4c94:	490a      	ldr	r1, [pc, #40]	; (b4cc0 <_Z15decodificarNOTAi+0x64>)
   b4c96:	f004 fe36 	bl	b9906 <_ZN5Print7printlnEPKc>
      return -1;
   b4c9a:	f04f 30ff 	mov.w	r0, #4294967295
   b4c9e:	e7e8      	b.n	b4c72 <_Z15decodificarNOTAi+0x16>
   b4ca0:	2003cc5c 	.word	0x2003cc5c
   b4ca4:	2003cc70 	.word	0x2003cc70
   b4ca8:	2003cc6c 	.word	0x2003cc6c
   b4cac:	2003cc64 	.word	0x2003cc64
   b4cb0:	2003cc78 	.word	0x2003cc78
   b4cb4:	2003cc68 	.word	0x2003cc68
   b4cb8:	2003cc74 	.word	0x2003cc74
   b4cbc:	2003cc60 	.word	0x2003cc60
   b4cc0:	000bae70 	.word	0x000bae70

000b4cc4 <_Z15decodificarTIPOi>:

int decodificarTIPO(int tipo) {
   switch (tipo)
   b4cc4:	2802      	cmp	r0, #2
int decodificarTIPO(int tipo) {
   b4cc6:	b508      	push	{r3, lr}
   b4cc8:	d803      	bhi.n	b4cd2 <_Z15decodificarTIPOi+0xe>
   b4cca:	4b06      	ldr	r3, [pc, #24]	; (b4ce4 <_Z15decodificarTIPOi+0x20>)
   b4ccc:	f933 0010 	ldrsh.w	r0, [r3, r0, lsl #1]

   default:
      Serial.println("Tipo invlido");
      return -1;
   }
}
   b4cd0:	bd08      	pop	{r3, pc}
      Serial.println("Tipo invlido");
   b4cd2:	f005 f819 	bl	b9d08 <_Z16_fetch_usbserialv>
   b4cd6:	4904      	ldr	r1, [pc, #16]	; (b4ce8 <_Z15decodificarTIPOi+0x24>)
   b4cd8:	f004 fe15 	bl	b9906 <_ZN5Print7printlnEPKc>
   b4cdc:	f04f 30ff 	mov.w	r0, #4294967295
   b4ce0:	e7f6      	b.n	b4cd0 <_Z15decodificarTIPOi+0xc>
   b4ce2:	bf00      	nop
   b4ce4:	000bb890 	.word	0x000bb890
   b4ce8:	000bae7f 	.word	0x000bae7f

000b4cec <_Z19decodificarNOTA_msgi>:

String decodificarNOTA_msg(int nota) {
   b4cec:	b510      	push	{r4, lr}
   b4cee:	4604      	mov	r4, r0
   b4cf0:	2907      	cmp	r1, #7
   b4cf2:	d819      	bhi.n	b4d28 <_Z19decodificarNOTA_msgi+0x3c>
   b4cf4:	e8df f001 	tbb	[pc, r1]
   b4cf8:	0e0c0a04 	.word	0x0e0c0a04
   b4cfc:	16141210 	.word	0x16141210
   switch (nota)
   {
   case 0:
      return "DO";
   b4d00:	490a      	ldr	r1, [pc, #40]	; (b4d2c <_Z19decodificarNOTA_msgi+0x40>)

   case 7:
      return "do";

   default:
      return "Nota invlida";
   b4d02:	4620      	mov	r0, r4
   b4d04:	f004 fd31 	bl	b976a <_ZN6StringC1EPK19__FlashStringHelper>
   }
}
   b4d08:	4620      	mov	r0, r4
   b4d0a:	bd10      	pop	{r4, pc}
      return "RE";
   b4d0c:	4908      	ldr	r1, [pc, #32]	; (b4d30 <_Z19decodificarNOTA_msgi+0x44>)
   b4d0e:	e7f8      	b.n	b4d02 <_Z19decodificarNOTA_msgi+0x16>
      return "MI";
   b4d10:	4908      	ldr	r1, [pc, #32]	; (b4d34 <_Z19decodificarNOTA_msgi+0x48>)
   b4d12:	e7f6      	b.n	b4d02 <_Z19decodificarNOTA_msgi+0x16>
      return "FA";
   b4d14:	4908      	ldr	r1, [pc, #32]	; (b4d38 <_Z19decodificarNOTA_msgi+0x4c>)
   b4d16:	e7f4      	b.n	b4d02 <_Z19decodificarNOTA_msgi+0x16>
      return "SOL";
   b4d18:	4908      	ldr	r1, [pc, #32]	; (b4d3c <_Z19decodificarNOTA_msgi+0x50>)
   b4d1a:	e7f2      	b.n	b4d02 <_Z19decodificarNOTA_msgi+0x16>
      return "LA";
   b4d1c:	4908      	ldr	r1, [pc, #32]	; (b4d40 <_Z19decodificarNOTA_msgi+0x54>)
   b4d1e:	e7f0      	b.n	b4d02 <_Z19decodificarNOTA_msgi+0x16>
      return "SI";
   b4d20:	4908      	ldr	r1, [pc, #32]	; (b4d44 <_Z19decodificarNOTA_msgi+0x58>)
   b4d22:	e7ee      	b.n	b4d02 <_Z19decodificarNOTA_msgi+0x16>
      return "do";
   b4d24:	4908      	ldr	r1, [pc, #32]	; (b4d48 <_Z19decodificarNOTA_msgi+0x5c>)
   b4d26:	e7ec      	b.n	b4d02 <_Z19decodificarNOTA_msgi+0x16>
      return "Nota invlida";
   b4d28:	4908      	ldr	r1, [pc, #32]	; (b4d4c <_Z19decodificarNOTA_msgi+0x60>)
   b4d2a:	e7ea      	b.n	b4d02 <_Z19decodificarNOTA_msgi+0x16>
   b4d2c:	000bb2d2 	.word	0x000bb2d2
   b4d30:	000bae8e 	.word	0x000bae8e
   b4d34:	000bae91 	.word	0x000bae91
   b4d38:	000bae94 	.word	0x000bae94
   b4d3c:	000bae97 	.word	0x000bae97
   b4d40:	000bae9b 	.word	0x000bae9b
   b4d44:	000bae9e 	.word	0x000bae9e
   b4d48:	000bb490 	.word	0x000bb490
   b4d4c:	000bae70 	.word	0x000bae70

000b4d50 <_Z19decodificarTIPO_msgi>:

String decodificarTIPO_msg(int tipo) {
   switch (tipo)
   b4d50:	2901      	cmp	r1, #1
String decodificarTIPO_msg(int tipo) {
   b4d52:	b510      	push	{r4, lr}
   b4d54:	4604      	mov	r4, r0
   switch (tipo)
   b4d56:	d007      	beq.n	b4d68 <_Z19decodificarTIPO_msgi+0x18>
   b4d58:	2902      	cmp	r1, #2
   b4d5a:	d007      	beq.n	b4d6c <_Z19decodificarTIPO_msgi+0x1c>
   b4d5c:	b941      	cbnz	r1, b4d70 <_Z19decodificarTIPO_msgi+0x20>
   {
   case 0:
      return "_C";
   b4d5e:	4905      	ldr	r1, [pc, #20]	; (b4d74 <_Z19decodificarTIPO_msgi+0x24>)

   case 2:
      return "_B";

   default:
      return "Tipo invlido";
   b4d60:	f004 fd03 	bl	b976a <_ZN6StringC1EPK19__FlashStringHelper>
   }
}
   b4d64:	4620      	mov	r0, r4
   b4d66:	bd10      	pop	{r4, pc}
      return "_N";
   b4d68:	4903      	ldr	r1, [pc, #12]	; (b4d78 <_Z19decodificarTIPO_msgi+0x28>)
   b4d6a:	e7f9      	b.n	b4d60 <_Z19decodificarTIPO_msgi+0x10>
      return "_B";
   b4d6c:	4903      	ldr	r1, [pc, #12]	; (b4d7c <_Z19decodificarTIPO_msgi+0x2c>)
   b4d6e:	e7f7      	b.n	b4d60 <_Z19decodificarTIPO_msgi+0x10>
      return "Tipo invlido";
   b4d70:	4903      	ldr	r1, [pc, #12]	; (b4d80 <_Z19decodificarTIPO_msgi+0x30>)
   b4d72:	e7f5      	b.n	b4d60 <_Z19decodificarTIPO_msgi+0x10>
   b4d74:	000baea1 	.word	0x000baea1
   b4d78:	000baea4 	.word	0x000baea4
   b4d7c:	000baea7 	.word	0x000baea7
   b4d80:	000bae7f 	.word	0x000bae7f

000b4d84 <_Z14reproducirNOTAii>:

void reproducirNOTA(int nota, int tipo) {
   b4d84:	b513      	push	{r0, r1, r4, lr}
   b4d86:	460c      	mov	r4, r1
   int frecuencia = decodificarNOTA(nota);
   b4d88:	f7ff ff68 	bl	b4c5c <_Z15decodificarNOTAi>
   b4d8c:	9001      	str	r0, [sp, #4]
   int duracion = decodificarTIPO(tipo);
   b4d8e:	4620      	mov	r0, r4
   b4d90:	f7ff ff98 	bl	b4cc4 <_Z15decodificarTIPOi>

   tone(Zumbador_PIN, frecuencia);
   b4d94:	9901      	ldr	r1, [sp, #4]
   b4d96:	2200      	movs	r2, #0
   int duracion = decodificarTIPO(tipo);
   b4d98:	4604      	mov	r4, r0
   tone(Zumbador_PIN, frecuencia);
   b4d9a:	2006      	movs	r0, #6
   b4d9c:	f004 ffde 	bl	b9d5c <tone>
   delay(duracion);
   b4da0:	4620      	mov	r0, r4
   b4da2:	f004 fe1b 	bl	b99dc <delay>
   noTone(Zumbador_PIN);
   b4da6:	2006      	movs	r0, #6
   b4da8:	f004 ffef 	bl	b9d8a <noTone>
   delay(30);
   b4dac:	201e      	movs	r0, #30
}
   b4dae:	b002      	add	sp, #8
   b4db0:	e8bd 4010 	ldmia.w	sp!, {r4, lr}
   delay(30);
   b4db4:	f004 be12 	b.w	b99dc <delay>

000b4db8 <_Z13isValidSensori>:
   return type == 0;
}

// TRUE Si el disposivo no ha sido utilizado en el bloque ACTUAL.
bool isValidSensor(int deviceID)
{
   b4db8:	b510      	push	{r4, lr}
  for (int i = 0; i < bloques[numBloque].numSensores; i++)
   b4dba:	4b0d      	ldr	r3, [pc, #52]	; (b4df0 <_Z13isValidSensori+0x38>)
   b4dbc:	681a      	ldr	r2, [r3, #0]
   b4dbe:	4b0d      	ldr	r3, [pc, #52]	; (b4df4 <_Z13isValidSensori+0x3c>)
   b4dc0:	f44f 713b 	mov.w	r1, #748	; 0x2ec
   b4dc4:	434a      	muls	r2, r1
   b4dc6:	5899      	ldr	r1, [r3, r2]
   b4dc8:	4413      	add	r3, r2
   b4dca:	2200      	movs	r2, #0
   b4dcc:	4291      	cmp	r1, r2
   b4dce:	dd0d      	ble.n	b4dec <_Z13isValidSensori+0x34>
  {
    if (bloques[numBloque].sensores[i].id == deviceID)
   b4dd0:	685c      	ldr	r4, [r3, #4]
   b4dd2:	4284      	cmp	r4, r0
   b4dd4:	f103 0310 	add.w	r3, r3, #16
   b4dd8:	d106      	bne.n	b4de8 <_Z13isValidSensori+0x30>
    {
      Serial.println("Invalid sensor! -> Sensor repetido en el bloque");
   b4dda:	f004 ff95 	bl	b9d08 <_Z16_fetch_usbserialv>
   b4dde:	4906      	ldr	r1, [pc, #24]	; (b4df8 <_Z13isValidSensori+0x40>)
   b4de0:	f004 fd91 	bl	b9906 <_ZN5Print7printlnEPKc>
   b4de4:	2000      	movs	r0, #0
      return false;
    }
  };

  return true;
}
   b4de6:	bd10      	pop	{r4, pc}
  for (int i = 0; i < bloques[numBloque].numSensores; i++)
   b4de8:	3201      	adds	r2, #1
   b4dea:	e7ef      	b.n	b4dcc <_Z13isValidSensori+0x14>
  return true;
   b4dec:	2001      	movs	r0, #1
   b4dee:	e7fa      	b.n	b4de6 <_Z13isValidSensori+0x2e>
   b4df0:	2003cc84 	.word	0x2003cc84
   b4df4:	2003cd34 	.word	0x2003cd34
   b4df8:	000baeaa 	.word	0x000baeaa

000b4dfc <_Z11isNewSensori>:

// -1 si el sensor es nuevo, o el puerto donde esta siendo usado.
int isNewSensor(int deviceID)
{
   b4dfc:	b5f0      	push	{r4, r5, r6, r7, lr}
  for (int i = 0; i <= numBloque; i++)
   b4dfe:	4b11      	ldr	r3, [pc, #68]	; (b4e44 <_Z11isNewSensori+0x48>)
   b4e00:	4a11      	ldr	r2, [pc, #68]	; (b4e48 <_Z11isNewSensori+0x4c>)
   b4e02:	681e      	ldr	r6, [r3, #0]
   b4e04:	4694      	mov	ip, r2
   b4e06:	2300      	movs	r3, #0
   b4e08:	429e      	cmp	r6, r3
   b4e0a:	db17      	blt.n	b4e3c <_Z11isNewSensori+0x40>
  {
    for (int j = 0; j < bloques[i].numSensores; j++)
   b4e0c:	6817      	ldr	r7, [r2, #0]
   b4e0e:	4615      	mov	r5, r2
   b4e10:	2100      	movs	r1, #0
   b4e12:	428f      	cmp	r7, r1
   b4e14:	dd0e      	ble.n	b4e34 <_Z11isNewSensori+0x38>
    {
      if (bloques[i].sensores[j].id == deviceID)
   b4e16:	686c      	ldr	r4, [r5, #4]
   b4e18:	4284      	cmp	r4, r0
   b4e1a:	f105 0510 	add.w	r5, r5, #16
   b4e1e:	d107      	bne.n	b4e30 <_Z11isNewSensori+0x34>
        return bloques[i].sensores[j].puerto;
   b4e20:	f44f 723b 	mov.w	r2, #748	; 0x2ec
   b4e24:	4353      	muls	r3, r2
   b4e26:	eb03 1301 	add.w	r3, r3, r1, lsl #4
   b4e2a:	4463      	add	r3, ip
   b4e2c:	6918      	ldr	r0, [r3, #16]
    }
  }
  return -1;
}
   b4e2e:	bdf0      	pop	{r4, r5, r6, r7, pc}
    for (int j = 0; j < bloques[i].numSensores; j++)
   b4e30:	3101      	adds	r1, #1
   b4e32:	e7ee      	b.n	b4e12 <_Z11isNewSensori+0x16>
  for (int i = 0; i <= numBloque; i++)
   b4e34:	3301      	adds	r3, #1
   b4e36:	f502 723b 	add.w	r2, r2, #748	; 0x2ec
   b4e3a:	e7e5      	b.n	b4e08 <_Z11isNewSensori+0xc>
  return -1;
   b4e3c:	f04f 30ff 	mov.w	r0, #4294967295
   b4e40:	e7f5      	b.n	b4e2e <_Z11isNewSensori+0x32>
   b4e42:	bf00      	nop
   b4e44:	2003cc84 	.word	0x2003cc84
   b4e48:	2003cd34 	.word	0x2003cd34

000b4e4c <_Z15isValidActuadorii>:


bool isValidActuador(int deviceState, int actuadorID)
{
   b4e4c:	e92d 41f0 	stmdb	sp!, {r4, r5, r6, r7, r8, lr}
    }
    
    // Comprobar que no se ha empleado en el bloque anterior, si existe
    if ( numBloque == 1)
    {
      for (int j = 0; j < bloques[0].numActuadores; j++)
   b4e50:	4d19      	ldr	r5, [pc, #100]	; (b4eb8 <_Z15isValidActuadorii+0x6c>)
  for (int i = 0; i <= numBloque; i++)
   b4e52:	4b1a      	ldr	r3, [pc, #104]	; (b4ebc <_Z15isValidActuadorii+0x70>)
      for (int j = 0; j < bloques[0].numActuadores; j++)
   b4e54:	f8d5 e144 	ldr.w	lr, [r5, #324]	; 0x144
  for (int i = 0; i <= numBloque; i++)
   b4e58:	681f      	ldr	r7, [r3, #0]
{
   b4e5a:	4684      	mov	ip, r0
      for (int j = 0; j < bloques[0].numActuadores; j++)
   b4e5c:	462b      	mov	r3, r5
  for (int i = 0; i <= numBloque; i++)
   b4e5e:	2400      	movs	r4, #0
   b4e60:	42a7      	cmp	r7, r4
   b4e62:	db23      	blt.n	b4eac <_Z15isValidActuadorii+0x60>
    if ( i == numBloque ) 
   b4e64:	d110      	bne.n	b4e88 <_Z15isValidActuadorii+0x3c>
      for (int j = 0; j < bloques[i].numActuadores; j++)
   b4e66:	f8d3 8144 	ldr.w	r8, [r3, #324]	; 0x144
   b4e6a:	461a      	mov	r2, r3
   b4e6c:	2600      	movs	r6, #0
   b4e6e:	45b0      	cmp	r8, r6
   b4e70:	dd0a      	ble.n	b4e88 <_Z15isValidActuadorii+0x3c>
        if (bloques[i].actuadores[j].condicion == deviceState && bloques[i].actuadores[j].id == actuadorID)
   b4e72:	f8d2 014c 	ldr.w	r0, [r2, #332]	; 0x14c
   b4e76:	4560      	cmp	r0, ip
   b4e78:	d103      	bne.n	b4e82 <_Z15isValidActuadorii+0x36>
   b4e7a:	f8d2 0148 	ldr.w	r0, [r2, #328]	; 0x148
   b4e7e:	4288      	cmp	r0, r1
   b4e80:	d017      	beq.n	b4eb2 <_Z15isValidActuadorii+0x66>
      for (int j = 0; j < bloques[i].numActuadores; j++)
   b4e82:	3601      	adds	r6, #1
   b4e84:	3214      	adds	r2, #20
   b4e86:	e7f2      	b.n	b4e6e <_Z15isValidActuadorii+0x22>
    if ( numBloque == 1)
   b4e88:	2f01      	cmp	r7, #1
   b4e8a:	d10b      	bne.n	b4ea4 <_Z15isValidActuadorii+0x58>
   b4e8c:	462e      	mov	r6, r5
      for (int j = 0; j < bloques[0].numActuadores; j++)
   b4e8e:	2200      	movs	r2, #0
   b4e90:	4596      	cmp	lr, r2
   b4e92:	dd07      	ble.n	b4ea4 <_Z15isValidActuadorii+0x58>
      {
        // Mismo actuador
        if (bloques[0].actuadores[j].id == actuadorID)
   b4e94:	f8d6 0148 	ldr.w	r0, [r6, #328]	; 0x148
   b4e98:	4288      	cmp	r0, r1
   b4e9a:	f106 0614 	add.w	r6, r6, #20
   b4e9e:	d008      	beq.n	b4eb2 <_Z15isValidActuadorii+0x66>
      for (int j = 0; j < bloques[0].numActuadores; j++)
   b4ea0:	3201      	adds	r2, #1
   b4ea2:	e7f5      	b.n	b4e90 <_Z15isValidActuadorii+0x44>
  for (int i = 0; i <= numBloque; i++)
   b4ea4:	3401      	adds	r4, #1
   b4ea6:	f503 733b 	add.w	r3, r3, #748	; 0x2ec
   b4eaa:	e7d9      	b.n	b4e60 <_Z15isValidActuadorii+0x14>
      }
      
    }
  }
  
  return true;
   b4eac:	2001      	movs	r0, #1
}
   b4eae:	e8bd 81f0 	ldmia.w	sp!, {r4, r5, r6, r7, r8, pc}
          return false;
   b4eb2:	2000      	movs	r0, #0
   b4eb4:	e7fb      	b.n	b4eae <_Z15isValidActuadorii+0x62>
   b4eb6:	bf00      	nop
   b4eb8:	2003cd34 	.word	0x2003cd34
   b4ebc:	2003cc84 	.word	0x2003cc84

000b4ec0 <_Z13isNewActuadori>:


// -1 si no ha sido usado en ningun bloque, o el puerto donde se encuantra conectado.
int isNewActuador(int deviceID)
{
   b4ec0:	b5f0      	push	{r4, r5, r6, r7, lr}
  for (int j = 0; j <= numBloque; j++)
   b4ec2:	4b13      	ldr	r3, [pc, #76]	; (b4f10 <_Z13isNewActuadori+0x50>)
   b4ec4:	4a13      	ldr	r2, [pc, #76]	; (b4f14 <_Z13isNewActuadori+0x54>)
   b4ec6:	681e      	ldr	r6, [r3, #0]
   b4ec8:	4694      	mov	ip, r2
   b4eca:	2300      	movs	r3, #0
   b4ecc:	429e      	cmp	r6, r3
   b4ece:	db1b      	blt.n	b4f08 <_Z13isNewActuadori+0x48>
  {
    for (int i = 0; i < bloques[j].numActuadores; i++)
   b4ed0:	f8d2 7144 	ldr.w	r7, [r2, #324]	; 0x144
   b4ed4:	4615      	mov	r5, r2
   b4ed6:	2100      	movs	r1, #0
   b4ed8:	428f      	cmp	r7, r1
   b4eda:	dd11      	ble.n	b4f00 <_Z13isNewActuadori+0x40>
    {
      if (bloques[j].actuadores[i].id == deviceID)
   b4edc:	f8d5 4148 	ldr.w	r4, [r5, #328]	; 0x148
   b4ee0:	4284      	cmp	r4, r0
   b4ee2:	f105 0514 	add.w	r5, r5, #20
   b4ee6:	d109      	bne.n	b4efc <_Z13isNewActuadori+0x3c>
      {
        return bloques[j].actuadores[i].puerto;
   b4ee8:	f44f 723b 	mov.w	r2, #748	; 0x2ec
   b4eec:	4353      	muls	r3, r2
   b4eee:	2214      	movs	r2, #20
   b4ef0:	fb02 3301 	mla	r3, r2, r1, r3
   b4ef4:	4463      	add	r3, ip
   b4ef6:	f8d3 0154 	ldr.w	r0, [r3, #340]	; 0x154
      }
    }
  }

  return -1;
}
   b4efa:	bdf0      	pop	{r4, r5, r6, r7, pc}
    for (int i = 0; i < bloques[j].numActuadores; i++)
   b4efc:	3101      	adds	r1, #1
   b4efe:	e7eb      	b.n	b4ed8 <_Z13isNewActuadori+0x18>
  for (int j = 0; j <= numBloque; j++)
   b4f00:	3301      	adds	r3, #1
   b4f02:	f502 723b 	add.w	r2, r2, #748	; 0x2ec
   b4f06:	e7e1      	b.n	b4ecc <_Z13isNewActuadori+0xc>
  return -1;
   b4f08:	f04f 30ff 	mov.w	r0, #4294967295
   b4f0c:	e7f5      	b.n	b4efa <_Z13isNewActuadori+0x3a>
   b4f0e:	bf00      	nop
   b4f10:	2003cc84 	.word	0x2003cc84
   b4f14:	2003cd34 	.word	0x2003cd34

000b4f18 <_Z14isActuadorDualii>:

// True si el actuador es usado tanto para THEN como ELSE; Necesario para no apagarlo y encenderlo constantemente.
bool isActuadorDual(int deviceID, int bloque)
{
   b4f18:	b530      	push	{r4, r5, lr}
  int contador = 0;
  for (int i = 0; i < bloques[bloque].numActuadores; i++)
   b4f1a:	4b0c      	ldr	r3, [pc, #48]	; (b4f4c <_Z14isActuadorDualii+0x34>)
   b4f1c:	f44f 723b 	mov.w	r2, #748	; 0x2ec
   b4f20:	fb02 3101 	mla	r1, r2, r1, r3
   b4f24:	2200      	movs	r2, #0
   b4f26:	f8d1 4144 	ldr.w	r4, [r1, #324]	; 0x144
  int contador = 0;
   b4f2a:	4613      	mov	r3, r2
  for (int i = 0; i < bloques[bloque].numActuadores; i++)
   b4f2c:	4294      	cmp	r4, r2
   b4f2e:	dd08      	ble.n	b4f42 <_Z14isActuadorDualii+0x2a>
  {
    if (bloques[bloque].actuadores[i].id == deviceID)
   b4f30:	f8d1 5148 	ldr.w	r5, [r1, #328]	; 0x148
   b4f34:	4285      	cmp	r5, r0
   b4f36:	d101      	bne.n	b4f3c <_Z14isActuadorDualii+0x24>
      contador++;

    if (contador > 1)
   b4f38:	b92b      	cbnz	r3, b4f46 <_Z14isActuadorDualii+0x2e>
   b4f3a:	2301      	movs	r3, #1
  for (int i = 0; i < bloques[bloque].numActuadores; i++)
   b4f3c:	3201      	adds	r2, #1
   b4f3e:	3114      	adds	r1, #20
   b4f40:	e7f4      	b.n	b4f2c <_Z14isActuadorDualii+0x14>
      return true;
  }

  return false;
   b4f42:	2000      	movs	r0, #0
}
   b4f44:	bd30      	pop	{r4, r5, pc}
      return true;
   b4f46:	4618      	mov	r0, r3
   b4f48:	e7fc      	b.n	b4f44 <_Z14isActuadorDualii+0x2c>
   b4f4a:	bf00      	nop
   b4f4c:	2003cd34 	.word	0x2003cd34

000b4f50 <_Z12makeEvaluate6BLOQUE>:

// Evaluate recorre el vector de sensores, leyendo su valor y concatenandolo con el valor del siguiente
// en funcion de la condicin que los une (AND u OR). Comenienzando por el primer sensor.
bool makeEvaluate(Bloque bloque)
{
   b4f50:	b084      	sub	sp, #16
   b4f52:	b5f8      	push	{r3, r4, r5, r6, r7, lr}
   b4f54:	ac06      	add	r4, sp, #24
   b4f56:	e884 000f 	stmia.w	r4, {r0, r1, r2, r3}
   bool valorEvaluado = leerSensor(bloque.sensores[0].id, bloque.sensores[0].condicion, bloque.sensores[0].puerto);
   b4f5a:	e9dd 0107 	ldrd	r0, r1, [sp, #28]
   b4f5e:	9a0a      	ldr	r2, [sp, #40]	; 0x28
   b4f60:	f7ff fb62 	bl	b4628 <_Z10leerSensoriii>
   b4f64:	ad06      	add	r5, sp, #24
   b4f66:	4604      	mov	r4, r0

   for (int i = 1; i < bloque.numSensores; i++)
   b4f68:	afbc      	add	r7, sp, #752	; 0x2f0
   b4f6a:	2601      	movs	r6, #1
   b4f6c:	9b06      	ldr	r3, [sp, #24]
   b4f6e:	42b3      	cmp	r3, r6
   b4f70:	dd12      	ble.n	b4f98 <_Z12makeEvaluate6BLOQUE+0x48>
   {
      Sensor sigSensor = bloque.sensores[i];
      bool nextValor = leerSensor(sigSensor.id, sigSensor.condicion, sigSensor.puerto);
   b4f72:	e9d5 0105 	ldrd	r0, r1, [r5, #20]
   b4f76:	6a2a      	ldr	r2, [r5, #32]
   b4f78:	f7ff fb56 	bl	b4628 <_Z10leerSensoriii>

      if (bloque.condiciones.condicionesBloque[i - 1])
   b4f7c:	f817 3b01 	ldrb.w	r3, [r7], #1
   b4f80:	b133      	cbz	r3, b4f90 <_Z12makeEvaluate6BLOQUE+0x40>
         valorEvaluado = (valorEvaluado && nextValor);
   b4f82:	2c00      	cmp	r4, #0
   b4f84:	bf08      	it	eq
   b4f86:	2000      	moveq	r0, #0
   for (int i = 1; i < bloque.numSensores; i++)
   b4f88:	3601      	adds	r6, #1
   b4f8a:	3510      	adds	r5, #16
   b4f8c:	4604      	mov	r4, r0
   b4f8e:	e7ed      	b.n	b4f6c <_Z12makeEvaluate6BLOQUE+0x1c>
         valorEvaluado = (valorEvaluado && nextValor);
   b4f90:	2c00      	cmp	r4, #0
   b4f92:	bf18      	it	ne
   b4f94:	4620      	movne	r0, r4
   b4f96:	e7f7      	b.n	b4f88 <_Z12makeEvaluate6BLOQUE+0x38>
      else
         valorEvaluado = (valorEvaluado || nextValor);
   }

   return valorEvaluado;
}
   b4f98:	4620      	mov	r0, r4
   b4f9a:	e8bd 40f8 	ldmia.w	sp!, {r3, r4, r5, r6, r7, lr}
   b4f9e:	b004      	add	sp, #16
   b4fa0:	4770      	bx	lr
	...

000b4fa4 <_Z18ejecutarEvaluacionbi>:

void ejecutarEvaluacion(bool evaluacion, int bloque) {
   b4fa4:	e92d 43f7 	stmdb	sp!, {r0, r1, r2, r4, r5, r6, r7, r8, r9, lr}
   b4fa8:	4c16      	ldr	r4, [pc, #88]	; (b5004 <_Z18ejecutarEvaluacionbi+0x60>)
   b4faa:	f44f 733b 	mov.w	r3, #748	; 0x2ec
   b4fae:	fb03 4401 	mla	r4, r3, r1, r4
   b4fb2:	4607      	mov	r7, r0
   b4fb4:	460d      	mov	r5, r1

  for (int j = 0; j < bloques[bloque].numActuadores; j++)
   b4fb6:	2600      	movs	r6, #0
   b4fb8:	46a1      	mov	r9, r4
   b4fba:	f8d9 3144 	ldr.w	r3, [r9, #324]	; 0x144
   b4fbe:	42b3      	cmp	r3, r6
   b4fc0:	dd1c      	ble.n	b4ffc <_Z18ejecutarEvaluacionbi+0x58>
  {
    Actuador actuador = bloques[bloque].actuadores[j];
    
    if (evaluacion == actuador.evaluate)
   b4fc2:	f894 3158 	ldrb.w	r3, [r4, #344]	; 0x158
    Actuador actuador = bloques[bloque].actuadores[j];
   b4fc6:	f8d4 8148 	ldr.w	r8, [r4, #328]	; 0x148
   b4fca:	f8d4 2154 	ldr.w	r2, [r4, #340]	; 0x154
    if (evaluacion == actuador.evaluate)
   b4fce:	42bb      	cmp	r3, r7
   b4fd0:	d107      	bne.n	b4fe2 <_Z18ejecutarEvaluacionbi+0x3e>
    {
      actuadorHandler(actuador.id, actuador.condicion, actuador.puerto);
   b4fd2:	f8d4 114c 	ldr.w	r1, [r4, #332]	; 0x14c
   b4fd6:	4640      	mov	r0, r8
   b4fd8:	f7ff fde4 	bl	b4ba4 <_Z15actuadorHandleriii>
  for (int j = 0; j < bloques[bloque].numActuadores; j++)
   b4fdc:	3601      	adds	r6, #1
   b4fde:	3414      	adds	r4, #20
   b4fe0:	e7eb      	b.n	b4fba <_Z18ejecutarEvaluacionbi+0x16>
    }
    
    else
    {
      if (!isActuadorDual(actuador.id, bloque))
   b4fe2:	4629      	mov	r1, r5
   b4fe4:	4640      	mov	r0, r8
   b4fe6:	9201      	str	r2, [sp, #4]
   b4fe8:	f7ff ff96 	bl	b4f18 <_Z14isActuadorDualii>
   b4fec:	9a01      	ldr	r2, [sp, #4]
   b4fee:	2800      	cmp	r0, #0
   b4ff0:	d1f4      	bne.n	b4fdc <_Z18ejecutarEvaluacionbi+0x38>
      {
        apagarActuador(actuador.id, actuador.puerto);
   b4ff2:	4611      	mov	r1, r2
   b4ff4:	4640      	mov	r0, r8
   b4ff6:	f7ff fdc1 	bl	b4b7c <_Z14apagarActuadorii>
   b4ffa:	e7ef      	b.n	b4fdc <_Z18ejecutarEvaluacionbi+0x38>
      }
    }
    
  }

}
   b4ffc:	b003      	add	sp, #12
   b4ffe:	e8bd 83f0 	ldmia.w	sp!, {r4, r5, r6, r7, r8, r9, pc}
   b5002:	bf00      	nop
   b5004:	2003cd34 	.word	0x2003cd34

000b5008 <_Z4atoiPc>:
      Serial.print(buffer[i], HEX);
   }
}

int atoi(char *str)
{
   b5008:	b530      	push	{r4, r5, lr}
   int num = 0;
   int i = 0;
   bool isNegetive = false;
   if (str[i] == '-')
   b500a:	7803      	ldrb	r3, [r0, #0]
   b500c:	2b2d      	cmp	r3, #45	; 0x2d
   {
      isNegetive = true;
   b500e:	bf0c      	ite	eq
   b5010:	2201      	moveq	r2, #1
   bool isNegetive = false;
   b5012:	2200      	movne	r2, #0
   int i = 0;
   b5014:	4613      	mov	r3, r2
   b5016:	4403      	add	r3, r0
      i++;
   }

   while (str[i] && (str[i] >= '0' && str[i] <= '9'))
   {
      num = num * 10 + (str[i] - '0');
   b5018:	240a      	movs	r4, #10
      i++;
   b501a:	2000      	movs	r0, #0
   while (str[i] && (str[i] >= '0' && str[i] <= '9'))
   b501c:	f813 1b01 	ldrb.w	r1, [r3], #1
   b5020:	3930      	subs	r1, #48	; 0x30
   b5022:	b2cd      	uxtb	r5, r1
   b5024:	2d09      	cmp	r5, #9
   b5026:	d802      	bhi.n	b502e <_Z4atoiPc+0x26>
      num = num * 10 + (str[i] - '0');
   b5028:	fb04 1000 	mla	r0, r4, r0, r1
   while (str[i] && (str[i] >= '0' && str[i] <= '9'))
   b502c:	e7f6      	b.n	b501c <_Z4atoiPc+0x14>
      i++;
   }

   if (isNegetive)
   b502e:	b102      	cbz	r2, b5032 <_Z4atoiPc+0x2a>
      num = -1 * num;
   b5030:	4240      	negs	r0, r0
   return num;
}
   b5032:	bd30      	pop	{r4, r5, pc}

000b5034 <_Z5splitPcS_Pi>:

void split(char cadena[], char delim[], int solution[])
{
   b5034:	b538      	push	{r3, r4, r5, lr}
   b5036:	4614      	mov	r4, r2
   b5038:	460d      	mov	r5, r1
   char *ptr = strtok(cadena, delim);
   b503a:	f005 fe25 	bl	bac88 <strtok>
   int j = 0;
   b503e:	3c04      	subs	r4, #4
   while (ptr != NULL)
   b5040:	b140      	cbz	r0, b5054 <_Z5splitPcS_Pi+0x20>
   {
      solution[j] = atoi(ptr);
   b5042:	f7ff ffe1 	bl	b5008 <_Z4atoiPc>
      j++;
      ptr = strtok(NULL, delim);
   b5046:	4629      	mov	r1, r5
      solution[j] = atoi(ptr);
   b5048:	f844 0f04 	str.w	r0, [r4, #4]!
      ptr = strtok(NULL, delim);
   b504c:	2000      	movs	r0, #0
   b504e:	f005 fe1b 	bl	bac88 <strtok>
   while (ptr != NULL)
   b5052:	e7f5      	b.n	b5040 <_Z5splitPcS_Pi+0xc>
   }
}
   b5054:	bd38      	pop	{r3, r4, r5, pc}
	...

000b5058 <_Z17readDataFromBlockhPhh>:
      tarjeta++;
   }
}

bool readDataFromBlock(byte blockAddr, byte buffer[], byte size)
{
   b5058:	b537      	push	{r0, r1, r2, r4, r5, lr}
   b505a:	f88d 2007 	strb.w	r2, [sp, #7]
   // Serial.print(F("Leer datos del sector ")); Serial.print(blockAddr);
   status = (MFRC522::StatusCode)mfrc522.MIFARE_Read(blockAddr, buffer, &size);
   b505e:	f10d 0307 	add.w	r3, sp, #7
   b5062:	460a      	mov	r2, r1
   b5064:	4601      	mov	r1, r0
   b5066:	480d      	ldr	r0, [pc, #52]	; (b509c <_Z17readDataFromBlockhPhh+0x44>)
   b5068:	4d0d      	ldr	r5, [pc, #52]	; (b50a0 <_Z17readDataFromBlockhPhh+0x48>)
   b506a:	f002 ff7f 	bl	b7f6c <_ZN7MFRC52211MIFARE_ReadEhPhS0_>
   if (status != MFRC522::STATUS_OK)
   b506e:	2801      	cmp	r0, #1
   status = (MFRC522::StatusCode)mfrc522.MIFARE_Read(blockAddr, buffer, &size);
   b5070:	7028      	strb	r0, [r5, #0]
   if (status != MFRC522::STATUS_OK)
   b5072:	d010      	beq.n	b5096 <_Z17readDataFromBlockhPhh+0x3e>
   {
      Serial.print(F("MIFARE_Read() failed: "));
   b5074:	f004 fe48 	bl	b9d08 <_Z16_fetch_usbserialv>
   b5078:	490a      	ldr	r1, [pc, #40]	; (b50a4 <_Z17readDataFromBlockhPhh+0x4c>)
   b507a:	f004 fc31 	bl	b98e0 <_ZN5Print5printEPKc>
      Serial.println(mfrc522.GetStatusCodeName(status));
   b507e:	f004 fe43 	bl	b9d08 <_Z16_fetch_usbserialv>
   b5082:	7829      	ldrb	r1, [r5, #0]
   b5084:	4604      	mov	r4, r0
   b5086:	4805      	ldr	r0, [pc, #20]	; (b509c <_Z17readDataFromBlockhPhh+0x44>)
   b5088:	f002 fcc4 	bl	b7a14 <_ZN7MFRC52217GetStatusCodeNameEh>
   b508c:	4601      	mov	r1, r0
   b508e:	4620      	mov	r0, r4
   b5090:	f004 fc39 	bl	b9906 <_ZN5Print7printlnEPKc>
   b5094:	2000      	movs	r0, #0
      return false;
   }
   return true;
}
   b5096:	b003      	add	sp, #12
   b5098:	bd30      	pop	{r4, r5, pc}
   b509a:	bf00      	nop
   b509c:	2003d700 	.word	0x2003d700
   b50a0:	2003dc3c 	.word	0x2003dc3c
   b50a4:	000baeda 	.word	0x000baeda

000b50a8 <_Z8getTagIDPi>:

void getTagID(int infoTag[])
{
   b50a8:	b5f0      	push	{r4, r5, r6, r7, lr}
   b50aa:	b08d      	sub	sp, #52	; 0x34

   status = (MFRC522::StatusCode)mfrc522.PCD_Authenticate(MFRC522::PICC_CMD_MF_AUTH_KEY_A, trailerBlock, &key, &(mfrc522.uid));
   b50ac:	4d1e      	ldr	r5, [pc, #120]	; (b5128 <_Z8getTagIDPi+0x80>)
   b50ae:	4a1f      	ldr	r2, [pc, #124]	; (b512c <_Z8getTagIDPi+0x84>)
   b50b0:	9500      	str	r5, [sp, #0]
   b50b2:	4b1f      	ldr	r3, [pc, #124]	; (b5130 <_Z8getTagIDPi+0x88>)
   b50b4:	7812      	ldrb	r2, [r2, #0]
   b50b6:	4f1f      	ldr	r7, [pc, #124]	; (b5134 <_Z8getTagIDPi+0x8c>)
{
   b50b8:	4606      	mov	r6, r0
   status = (MFRC522::StatusCode)mfrc522.PCD_Authenticate(MFRC522::PICC_CMD_MF_AUTH_KEY_A, trailerBlock, &key, &(mfrc522.uid));
   b50ba:	2160      	movs	r1, #96	; 0x60
   b50bc:	4628      	mov	r0, r5
   b50be:	f002 ff76 	bl	b7fae <_ZN7MFRC52216PCD_AuthenticateEhhPNS_10MIFARE_KeyEPNS_3UidE>
   if (status != MFRC522::STATUS_OK)
   b50c2:	2801      	cmp	r0, #1
   status = (MFRC522::StatusCode)mfrc522.PCD_Authenticate(MFRC522::PICC_CMD_MF_AUTH_KEY_A, trailerBlock, &key, &(mfrc522.uid));
   b50c4:	7038      	strb	r0, [r7, #0]
   if (status != MFRC522::STATUS_OK)
   b50c6:	d00f      	beq.n	b50e8 <_Z8getTagIDPi+0x40>
   {
      Serial.print(F("PCD_Authenticate() failed: "));
   b50c8:	f004 fe1e 	bl	b9d08 <_Z16_fetch_usbserialv>
   b50cc:	491a      	ldr	r1, [pc, #104]	; (b5138 <_Z8getTagIDPi+0x90>)
   b50ce:	f004 fc07 	bl	b98e0 <_ZN5Print5printEPKc>
      Serial.println(mfrc522.GetStatusCodeName(status));
   b50d2:	f004 fe19 	bl	b9d08 <_Z16_fetch_usbserialv>
   b50d6:	7839      	ldrb	r1, [r7, #0]
   b50d8:	4604      	mov	r4, r0
   b50da:	4628      	mov	r0, r5
   b50dc:	f002 fc9a 	bl	b7a14 <_ZN7MFRC52217GetStatusCodeNameEh>
   b50e0:	4601      	mov	r1, r0
   b50e2:	4620      	mov	r0, r4
   b50e4:	f004 fc0f 	bl	b9906 <_ZN5Print7printlnEPKc>
   //writeDataToBLock(blockAddr);

   // Read data from the block's Tag.
   byte buffer[18];
   byte size = sizeof(buffer);
   if (!readDataFromBlock(blockAddr, buffer, size))
   b50e8:	4b14      	ldr	r3, [pc, #80]	; (b513c <_Z8getTagIDPi+0x94>)
   b50ea:	2212      	movs	r2, #18
   b50ec:	7818      	ldrb	r0, [r3, #0]
   b50ee:	a907      	add	r1, sp, #28
   b50f0:	f7ff ffb2 	bl	b5058 <_Z17readDataFromBlockhPhh>
   b50f4:	b1b0      	cbz	r0, b5124 <_Z8getTagIDPi+0x7c>
   // Convert from hex to String:
   char tagInfo[16];
   int i = 0;
   for (byte j = 0; j < sizeof(buffer); j++)
   {
      tagInfo[i] = (char)buffer[j];
   b50f6:	ac07      	add	r4, sp, #28
   b50f8:	cc0f      	ldmia	r4!, {r0, r1, r2, r3}
   b50fa:	ad03      	add	r5, sp, #12
   b50fc:	c50f      	stmia	r5!, {r0, r1, r2, r3}
   b50fe:	6823      	ldr	r3, [r4, #0]
   b5100:	802b      	strh	r3, [r5, #0]
      i++;
      // Serial.write(buffer[j]);
      // tagInfo += Serial.write(buffer[j]);
   }
   Serial.printlnf("TagInfo: %s", tagInfo);
   b5102:	f004 fe01 	bl	b9d08 <_Z16_fetch_usbserialv>
   b5106:	490e      	ldr	r1, [pc, #56]	; (b5140 <_Z8getTagIDPi+0x98>)
   b5108:	aa03      	add	r2, sp, #12
   b510a:	f7ff f809 	bl	b4120 <_ZN5Print8printlnfEPKcz>
   split(tagInfo, delim, infoTag);
   b510e:	490d      	ldr	r1, [pc, #52]	; (b5144 <_Z8getTagIDPi+0x9c>)
   b5110:	4632      	mov	r2, r6
   b5112:	a803      	add	r0, sp, #12
   b5114:	f7ff ff8e 	bl	b5034 <_Z5splitPcS_Pi>

   // Evitamos seguir leyendo la misma tag.
   mfrc522.PICC_HaltA();
   b5118:	4803      	ldr	r0, [pc, #12]	; (b5128 <_Z8getTagIDPi+0x80>)
   b511a:	f002 ff02 	bl	b7f22 <_ZN7MFRC52210PICC_HaltAEv>
   // Stop encryption on PCD
   mfrc522.PCD_StopCrypto1();
   b511e:	4802      	ldr	r0, [pc, #8]	; (b5128 <_Z8getTagIDPi+0x80>)
   b5120:	f002 fd5f 	bl	b7be2 <_ZN7MFRC52215PCD_StopCrypto1Ev>
}
   b5124:	b00d      	add	sp, #52	; 0x34
   b5126:	bdf0      	pop	{r4, r5, r6, r7, pc}
   b5128:	2003d700 	.word	0x2003d700
   b512c:	2003cca4 	.word	0x2003cca4
   b5130:	2003d6f1 	.word	0x2003d6f1
   b5134:	2003dc3c 	.word	0x2003dc3c
   b5138:	000baef1 	.word	0x000baef1
   b513c:	2003cc7c 	.word	0x2003cc7c
   b5140:	000baf0d 	.word	0x000baf0d
   b5144:	2003cc7d 	.word	0x2003cc7d

000b5148 <_Z13asignarPuertoi>:


int asignarPuerto(int type)
{
   b5148:	b510      	push	{r4, lr}
   int option;
   
   if (esAnalogico(type))
   b514a:	b940      	cbnz	r0, b515e <_Z13asignarPuertoi+0x16>
   {
      option = puertoAnalogico;
   b514c:	4b32      	ldr	r3, [pc, #200]	; (b5218 <_Z13asignarPuertoi+0xd0>)
   }
   else
      option = puertoDigital;
   b514e:	681c      	ldr	r4, [r3, #0]

   switch (option)
   b5150:	2c05      	cmp	r4, #5
   b5152:	d858      	bhi.n	b5206 <_Z13asignarPuertoi+0xbe>
   b5154:	e8df f004 	tbb	[pc, r4]
   b5158:	32221305 	.word	0x32221305
   b515c:	483d      	.short	0x483d
      option = puertoDigital;
   b515e:	4b2f      	ldr	r3, [pc, #188]	; (b521c <_Z13asignarPuertoi+0xd4>)
   b5160:	e7f5      	b.n	b514e <_Z13asignarPuertoi+0x6>
   {
   case 0:
      Serial.print("Conectar al puerto A0\n");
   b5162:	f004 fdd1 	bl	b9d08 <_Z16_fetch_usbserialv>
   b5166:	492e      	ldr	r1, [pc, #184]	; (b5220 <_Z13asignarPuertoi+0xd8>)
   b5168:	f004 fbba 	bl	b98e0 <_ZN5Print5printEPKc>
      puertoAnalogico++;
   b516c:	4a2a      	ldr	r2, [pc, #168]	; (b5218 <_Z13asignarPuertoi+0xd0>)
   b516e:	6813      	ldr	r3, [r2, #0]
   b5170:	3301      	adds	r3, #1
   b5172:	6013      	str	r3, [r2, #0]
      puertoAnalogico_bloque++;
   b5174:	4a2b      	ldr	r2, [pc, #172]	; (b5224 <_Z13asignarPuertoi+0xdc>)
      return 2;

   case 4:
      Serial.print("Conectar al puerto D4\n");
      puertoDigital++;
      puertoDigital_bloque++;
   b5176:	6813      	ldr	r3, [r2, #0]
   b5178:	3301      	adds	r3, #1
   b517a:	6013      	str	r3, [r2, #0]
      return 4;
   b517c:	e01c      	b.n	b51b8 <_Z13asignarPuertoi+0x70>
      Serial.print("Conectar al puerto A2\n");
   b517e:	f004 fdc3 	bl	b9d08 <_Z16_fetch_usbserialv>
   b5182:	4929      	ldr	r1, [pc, #164]	; (b5228 <_Z13asignarPuertoi+0xe0>)
   b5184:	f004 fbac 	bl	b98e0 <_ZN5Print5printEPKc>
      puertoAnalogico++;
   b5188:	4a23      	ldr	r2, [pc, #140]	; (b5218 <_Z13asignarPuertoi+0xd0>)
   b518a:	6813      	ldr	r3, [r2, #0]
   b518c:	3301      	adds	r3, #1
   b518e:	6013      	str	r3, [r2, #0]
      puertoAnalogico_bloque++;
   b5190:	4a24      	ldr	r2, [pc, #144]	; (b5224 <_Z13asignarPuertoi+0xdc>)
      puertoDigital_bloque++;
   b5192:	6813      	ldr	r3, [r2, #0]
   b5194:	3301      	adds	r3, #1
   b5196:	6013      	str	r3, [r2, #0]
      return 2;
   b5198:	2402      	movs	r4, #2
   b519a:	e00d      	b.n	b51b8 <_Z13asignarPuertoi+0x70>
      Serial.print("Conectar al puerto A4\n");
   b519c:	f004 fdb4 	bl	b9d08 <_Z16_fetch_usbserialv>
   b51a0:	4922      	ldr	r1, [pc, #136]	; (b522c <_Z13asignarPuertoi+0xe4>)
   b51a2:	f004 fb9d 	bl	b98e0 <_ZN5Print5printEPKc>
      puertoAnalogico = -1;
   b51a6:	4b1c      	ldr	r3, [pc, #112]	; (b5218 <_Z13asignarPuertoi+0xd0>)
   b51a8:	f04f 32ff 	mov.w	r2, #4294967295
   b51ac:	601a      	str	r2, [r3, #0]
      puertoAnalogico_bloque++;
   b51ae:	4a1d      	ldr	r2, [pc, #116]	; (b5224 <_Z13asignarPuertoi+0xdc>)
   b51b0:	6813      	ldr	r3, [r2, #0]
   b51b2:	3301      	adds	r3, #1
   b51b4:	6013      	str	r3, [r2, #0]
      return 4;
   b51b6:	2404      	movs	r4, #4

   default:
      Serial.print("Error: No hay mas puertos disponibles \n");
      return -1;
   }
}
   b51b8:	4620      	mov	r0, r4
   b51ba:	bd10      	pop	{r4, pc}
      Serial.print("Conectar al puerto D2\n");
   b51bc:	f004 fda4 	bl	b9d08 <_Z16_fetch_usbserialv>
   b51c0:	491b      	ldr	r1, [pc, #108]	; (b5230 <_Z13asignarPuertoi+0xe8>)
   b51c2:	f004 fb8d 	bl	b98e0 <_ZN5Print5printEPKc>
      puertoDigital++;
   b51c6:	4a15      	ldr	r2, [pc, #84]	; (b521c <_Z13asignarPuertoi+0xd4>)
   b51c8:	6813      	ldr	r3, [r2, #0]
   b51ca:	3301      	adds	r3, #1
   b51cc:	6013      	str	r3, [r2, #0]
      puertoDigital_bloque++;
   b51ce:	4a19      	ldr	r2, [pc, #100]	; (b5234 <_Z13asignarPuertoi+0xec>)
   b51d0:	e7df      	b.n	b5192 <_Z13asignarPuertoi+0x4a>
      Serial.print("Conectar al puerto D4\n");
   b51d2:	f004 fd99 	bl	b9d08 <_Z16_fetch_usbserialv>
   b51d6:	4918      	ldr	r1, [pc, #96]	; (b5238 <_Z13asignarPuertoi+0xf0>)
   b51d8:	f004 fb82 	bl	b98e0 <_ZN5Print5printEPKc>
      puertoDigital++;
   b51dc:	4a0f      	ldr	r2, [pc, #60]	; (b521c <_Z13asignarPuertoi+0xd4>)
   b51de:	6813      	ldr	r3, [r2, #0]
   b51e0:	3301      	adds	r3, #1
   b51e2:	6013      	str	r3, [r2, #0]
      puertoDigital_bloque++;
   b51e4:	4a13      	ldr	r2, [pc, #76]	; (b5234 <_Z13asignarPuertoi+0xec>)
   b51e6:	e7c6      	b.n	b5176 <_Z13asignarPuertoi+0x2e>
      Serial.print("Conectar al puerto D6\n");
   b51e8:	f004 fd8e 	bl	b9d08 <_Z16_fetch_usbserialv>
   b51ec:	4913      	ldr	r1, [pc, #76]	; (b523c <_Z13asignarPuertoi+0xf4>)
   b51ee:	f004 fb77 	bl	b98e0 <_ZN5Print5printEPKc>
      puertoDigital = -1;
   b51f2:	4b0a      	ldr	r3, [pc, #40]	; (b521c <_Z13asignarPuertoi+0xd4>)
   b51f4:	f04f 32ff 	mov.w	r2, #4294967295
   b51f8:	601a      	str	r2, [r3, #0]
      puertoDigital_bloque++;
   b51fa:	4a0e      	ldr	r2, [pc, #56]	; (b5234 <_Z13asignarPuertoi+0xec>)
   b51fc:	6813      	ldr	r3, [r2, #0]
   b51fe:	3301      	adds	r3, #1
   b5200:	6013      	str	r3, [r2, #0]
      return 6;
   b5202:	2406      	movs	r4, #6
   b5204:	e7d8      	b.n	b51b8 <_Z13asignarPuertoi+0x70>
      Serial.print("Error: No hay mas puertos disponibles \n");
   b5206:	f004 fd7f 	bl	b9d08 <_Z16_fetch_usbserialv>
   b520a:	490d      	ldr	r1, [pc, #52]	; (b5240 <_Z13asignarPuertoi+0xf8>)
   b520c:	f004 fb68 	bl	b98e0 <_ZN5Print5printEPKc>
      return -1;
   b5210:	f04f 34ff 	mov.w	r4, #4294967295
   b5214:	e7d0      	b.n	b51b8 <_Z13asignarPuertoi+0x70>
   b5216:	bf00      	nop
   b5218:	2003da48 	.word	0x2003da48
   b521c:	2003cc88 	.word	0x2003cc88
   b5220:	000baf19 	.word	0x000baf19
   b5224:	2003da4c 	.word	0x2003da4c
   b5228:	000baf30 	.word	0x000baf30
   b522c:	000baf47 	.word	0x000baf47
   b5230:	000baf5e 	.word	0x000baf5e
   b5234:	2003da50 	.word	0x2003da50
   b5238:	000baf75 	.word	0x000baf75
   b523c:	000baf8c 	.word	0x000baf8c
   b5240:	000bafa3 	.word	0x000bafa3

000b5244 <setup>:
// Unconnected mode ON, evita conexion wifi.

SYSTEM_MODE(SEMI_AUTOMATIC);

void setup()
{
   b5244:	b570      	push	{r4, r5, r6, lr}
   b5246:	b08a      	sub	sp, #40	; 0x28
inline CloudDisconnectOptions::CloudDisconnectOptions(unsigned flags, system_tick_t timeout, bool graceful,
        bool clearSession) :
        flags_(flags),
        timeout_(timeout),
        graceful_(graceful),
        clearSession_(clearSession) {
   b5248:	2400      	movs	r4, #0
  // Unconnected mode ON
  Particle.disconnect();
   b524a:	a807      	add	r0, sp, #28
   b524c:	e9cd 4407 	strd	r4, r4, [sp, #28]
        bool clearSession) :
   b5250:	f8ad 4024 	strh.w	r4, [sp, #36]	; 0x24
   b5254:	f004 fc68 	bl	b9b28 <_ZN10CloudClass10disconnectERK22CloudDisconnectOptions>
    void on(void) {
        network_on(*this, 0, 0, NULL);
    }

    void off(void) {
        network_off(*this, 0, 0, NULL);
   b5258:	4843      	ldr	r0, [pc, #268]	; (b5368 <setup+0x124>)
   b525a:	4623      	mov	r3, r4
   b525c:	4622      	mov	r2, r4
   b525e:	4621      	mov	r1, r4
   b5260:	6840      	ldr	r0, [r0, #4]

template <hal_spi_interface_t Interface>
class SpiProxy {
public:
    static SPIClass& instance() {
        static SPIClass instance(Interface);
   b5262:	4c42      	ldr	r4, [pc, #264]	; (b536c <setup+0x128>)
   b5264:	f004 f860 	bl	b9328 <network_off>
  WiFi.off();

  // Particle setup
  Serial.begin(9600);
   b5268:	f004 fd4e 	bl	b9d08 <_Z16_fetch_usbserialv>
   b526c:	f44f 5116 	mov.w	r1, #9600	; 0x2580
   b5270:	f004 fd3e 	bl	b9cf0 <_ZN9USBSerial5beginEl>
   b5274:	7821      	ldrb	r1, [r4, #0]
   b5276:	f3bf 8f5b 	dmb	ish
   b527a:	f011 0101 	ands.w	r1, r1, #1
   b527e:	d10b      	bne.n	b5298 <setup+0x54>
   b5280:	4620      	mov	r0, r4
   b5282:	9105      	str	r1, [sp, #20]
   b5284:	f7fe ff18 	bl	b40b8 <__cxa_guard_acquire>
   b5288:	9905      	ldr	r1, [sp, #20]
   b528a:	b128      	cbz	r0, b5298 <setup+0x54>
   b528c:	4838      	ldr	r0, [pc, #224]	; (b5370 <setup+0x12c>)
   b528e:	f004 f917 	bl	b94c0 <_ZN8SPIClassC1E19hal_spi_interface_t>
   b5292:	4620      	mov	r0, r4
   b5294:	f7fe ff15 	bl	b40c2 <__cxa_guard_release>

    hal_spi_interface_t interface() {
         return instance().interface();
    }
    void begin() {
        instance().begin();
   b5298:	4835      	ldr	r0, [pc, #212]	; (b5370 <setup+0x12c>)
  for (byte i = 0; i < 6; i++)
  {
    key.keyByte[i] = 0xFF;
  }

  MODE = EEPROM.read(0);
   b529a:	4c36      	ldr	r4, [pc, #216]	; (b5374 <setup+0x130>)
  display.begin(SSD1306_SWITCHCAPVCC, 0x3C);
   b529c:	2501      	movs	r5, #1
   b529e:	f004 f919 	bl	b94d4 <_ZN8SPIClass5beginEv>
   b52a2:	462b      	mov	r3, r5
   b52a4:	223c      	movs	r2, #60	; 0x3c
   b52a6:	2102      	movs	r1, #2
   b52a8:	4833      	ldr	r0, [pc, #204]	; (b5378 <setup+0x134>)
   b52aa:	9500      	str	r5, [sp, #0]
   b52ac:	f003 fa68 	bl	b8780 <_ZN16Adafruit_SSD13065beginEhhbb>
  display.clearDisplay();
   b52b0:	4831      	ldr	r0, [pc, #196]	; (b5378 <setup+0x134>)
   b52b2:	f003 fa57 	bl	b8764 <_ZN16Adafruit_SSD130612clearDisplayEv>
  display.display();
   b52b6:	4830      	ldr	r0, [pc, #192]	; (b5378 <setup+0x134>)
   b52b8:	f003 fcbc 	bl	b8c34 <_ZN16Adafruit_SSD13067displayEv>
  mfrc522.PCD_Init();
   b52bc:	482f      	ldr	r0, [pc, #188]	; (b537c <setup+0x138>)
   b52be:	f002 fcf4 	bl	b7caa <_ZN7MFRC5228PCD_InitEv>
    key.keyByte[i] = 0xFF;
   b52c2:	4a2f      	ldr	r2, [pc, #188]	; (b5380 <setup+0x13c>)
   b52c4:	21ff      	movs	r1, #255	; 0xff
   b52c6:	7011      	strb	r1, [r2, #0]
   b52c8:	7051      	strb	r1, [r2, #1]
   b52ca:	7091      	strb	r1, [r2, #2]
   b52cc:	70d1      	strb	r1, [r2, #3]
   b52ce:	7111      	strb	r1, [r2, #4]
   b52d0:	7151      	strb	r1, [r2, #5]
  MODE = EEPROM.read(0);
   b52d2:	f004 fff5 	bl	ba2c0 <_Z21__fetch_global_EEPROMv>

    EERef( const int index )
        : index( index )                 {}

    //Access/read members.
    uint8_t operator*() const            { return HAL_EEPROM_Read(index); }
   b52d6:	2000      	movs	r0, #0
   b52d8:	f003 fe92 	bl	b9000 <HAL_EEPROM_Read>

  // EEPROM empty
  if ( MODE == 0xFF ) {
   b52dc:	28ff      	cmp	r0, #255	; 0xff
  MODE = EEPROM.read(0);
   b52de:	7020      	strb	r0, [r4, #0]
  if ( MODE == 0xFF ) {
   b52e0:	d10d      	bne.n	b52fe <setup+0xba>
    
    Serial.println("EEPROM empty");
   b52e2:	f004 fd11 	bl	b9d08 <_Z16_fetch_usbserialv>
    MODE = 0;
   b52e6:	2600      	movs	r6, #0
    Serial.println("EEPROM empty");
   b52e8:	4926      	ldr	r1, [pc, #152]	; (b5384 <setup+0x140>)
   b52ea:	f004 fb0c 	bl	b9906 <_ZN5Print7printlnEPKc>
    MODE = 0;
   b52ee:	7026      	strb	r6, [r4, #0]
    EEPROM.put(0, MODE);
   b52f0:	f004 ffe6 	bl	ba2c0 <_Z21__fetch_global_EEPROMv>
        return t;
    }

    template <typename T> const T &put( int idx, const T &t )
    {
        HAL_EEPROM_Put(idx, &t, sizeof(T));
   b52f4:	462a      	mov	r2, r5
   b52f6:	4621      	mov	r1, r4
   b52f8:	4630      	mov	r0, r6
   b52fa:	f003 fe89 	bl	b9010 <HAL_EEPROM_Put>

  }

  if ( MODE == 0 ) {
   b52fe:	7824      	ldrb	r4, [r4, #0]
   b5300:	bb54      	cbnz	r4, b5358 <setup+0x114>

    // MODO BSICO iniciado
    pinMode(Zumbador_PIN, OUTPUT);
   b5302:	2101      	movs	r1, #1
   b5304:	2006      	movs	r0, #6
   b5306:	f004 ff29 	bl	ba15c <pinMode>
    ledObject.init();
   b530a:	481f      	ldr	r0, [pc, #124]	; (b5388 <setup+0x144>)
   b530c:	f003 fdde 	bl	b8ecc <_ZN12ChainableLED4initEv>
    init = true;
   b5310:	4b1e      	ldr	r3, [pc, #120]	; (b538c <setup+0x148>)
   b5312:	2201      	movs	r2, #1
   b5314:	701a      	strb	r2, [r3, #0]

    Bloque bloque;
    numBloque++;
   b5316:	4a1e      	ldr	r2, [pc, #120]	; (b5390 <setup+0x14c>)
   b5318:	6813      	ldr	r3, [r2, #0]
   b531a:	3301      	adds	r3, #1
   b531c:	6013      	str	r3, [r2, #0]
    bloques[numBloque] = bloque;
   b531e:	f44f 713b 	mov.w	r1, #748	; 0x2ec
   b5322:	4a1c      	ldr	r2, [pc, #112]	; (b5394 <setup+0x150>)
   b5324:	434b      	muls	r3, r1
   b5326:	18d1      	adds	r1, r2, r3
   b5328:	50d4      	str	r4, [r2, r3]
   b532a:	f8c1 4144 	str.w	r4, [r1, #324]	; 0x144
    // MODO MUSICA iniciado
    pinMode(Zumbador_PIN, OUTPUT);
    //showBitmap(0,2,"");
  }

  display.drawBitmap(0,0, sucreLogo_data, sucreLogo_width, sucreLogo_height, 1);
   b532e:	2340      	movs	r3, #64	; 0x40
   b5330:	2201      	movs	r2, #1
   b5332:	e9cd 3201 	strd	r3, r2, [sp, #4]
   b5336:	2200      	movs	r2, #0
   b5338:	2380      	movs	r3, #128	; 0x80
   b533a:	4611      	mov	r1, r2
   b533c:	9300      	str	r3, [sp, #0]
   b533e:	480e      	ldr	r0, [pc, #56]	; (b5378 <setup+0x134>)
   b5340:	4b15      	ldr	r3, [pc, #84]	; (b5398 <setup+0x154>)
   b5342:	f002 f907 	bl	b7554 <_ZN12Adafruit_GFX10drawBitmapEssPKhsst>
  display.display();
   b5346:	480c      	ldr	r0, [pc, #48]	; (b5378 <setup+0x134>)
   b5348:	f003 fc74 	bl	b8c34 <_ZN16Adafruit_SSD13067displayEv>

#ifdef __cplusplus
extern "C" {
#endif

inline system_tick_t millis(void) { return HAL_Timer_Get_Milli_Seconds(); }
   b534c:	f003 fe48 	bl	b8fe0 <HAL_Timer_Get_Milli_Seconds>
  startTime = millis();
   b5350:	4b12      	ldr	r3, [pc, #72]	; (b539c <setup+0x158>)
   b5352:	6018      	str	r0, [r3, #0]
  
}
   b5354:	b00a      	add	sp, #40	; 0x28
   b5356:	bd70      	pop	{r4, r5, r6, pc}
  } else if ( MODE == 1 ) {
   b5358:	2c01      	cmp	r4, #1
   b535a:	d0e8      	beq.n	b532e <setup+0xea>
    pinMode(Zumbador_PIN, OUTPUT);
   b535c:	2101      	movs	r1, #1
   b535e:	2006      	movs	r0, #6
   b5360:	f004 fefc 	bl	ba15c <pinMode>
   b5364:	e7e3      	b.n	b532e <setup+0xea>
   b5366:	bf00      	nop
   b5368:	2003e710 	.word	0x2003e710
   b536c:	2003cd14 	.word	0x2003cd14
   b5370:	2003cd18 	.word	0x2003cd18
   b5374:	2003cd22 	.word	0x2003cd22
   b5378:	2003d358 	.word	0x2003d358
   b537c:	2003d700 	.word	0x2003d700
   b5380:	2003d6f1 	.word	0x2003d6f1
   b5384:	000bafcb 	.word	0x000bafcb
   b5388:	2003d6f8 	.word	0x2003d6f8
   b538c:	2003d6f0 	.word	0x2003d6f0
   b5390:	2003cc84 	.word	0x2003cc84
   b5394:	2003cd34 	.word	0x2003cd34
   b5398:	000bb896 	.word	0x000bb896
   b539c:	2003dc38 	.word	0x2003dc38

000b53a0 <_GLOBAL__sub_I__Z13leerSensorLuzv>:
ChainableLED ledObject = ChainableLED(led_PIN1, led_PIN2, NUM_LEDS);
   b53a0:	2305      	movs	r3, #5
    if (play) {
      reproducir();
      play = false;
    }
  }
   b53a2:	b570      	push	{r4, r5, r6, lr}
   b53a4:	461a      	mov	r2, r3
   b53a6:	2104      	movs	r1, #4
   b53a8:	48a9      	ldr	r0, [pc, #676]	; (b5650 <_GLOBAL__sub_I__Z13leerSensorLuzv+0x2b0>)
String tarjetas[80] = {"1#0#1#9#1","1#0#1#11#1", "1#0#1#8#1", "1#0#0#12#1", "1#1#0#13#1"};
   b53aa:	4daa      	ldr	r5, [pc, #680]	; (b5654 <_GLOBAL__sub_I__Z13leerSensorLuzv+0x2b4>)
   b53ac:	4eaa      	ldr	r6, [pc, #680]	; (b5658 <_GLOBAL__sub_I__Z13leerSensorLuzv+0x2b8>)
   b53ae:	f003 fcdb 	bl	b8d68 <_ZN12ChainableLEDC1Ehhh>
    int bloque;
    int puerto;
    bool evaluate;
} Actuador;

typedef struct BLOQUE
   b53b2:	4baa      	ldr	r3, [pc, #680]	; (b565c <_GLOBAL__sub_I__Z13leerSensorLuzv+0x2bc>)
Adafruit_SSD1306 display(-1);
   b53b4:	48aa      	ldr	r0, [pc, #680]	; (b5660 <_GLOBAL__sub_I__Z13leerSensorLuzv+0x2c0>)
   b53b6:	2400      	movs	r4, #0
   b53b8:	601c      	str	r4, [r3, #0]
   b53ba:	f8c3 4144 	str.w	r4, [r3, #324]	; 0x144
   b53be:	f8c3 42ec 	str.w	r4, [r3, #748]	; 0x2ec
   b53c2:	f8c3 4430 	str.w	r4, [r3, #1072]	; 0x430
   b53c6:	f04f 31ff 	mov.w	r1, #4294967295
   b53ca:	f003 f8d7 	bl	b857c <_ZN16Adafruit_SSD1306C1Ea>
String dispositivos[2] = {"-", "-"};
   b53ce:	49a5      	ldr	r1, [pc, #660]	; (b5664 <_GLOBAL__sub_I__Z13leerSensorLuzv+0x2c4>)
   b53d0:	48a5      	ldr	r0, [pc, #660]	; (b5668 <_GLOBAL__sub_I__Z13leerSensorLuzv+0x2c8>)
   b53d2:	f004 f9ca 	bl	b976a <_ZN6StringC1EPK19__FlashStringHelper>
   b53d6:	49a3      	ldr	r1, [pc, #652]	; (b5664 <_GLOBAL__sub_I__Z13leerSensorLuzv+0x2c4>)
   b53d8:	48a4      	ldr	r0, [pc, #656]	; (b566c <_GLOBAL__sub_I__Z13leerSensorLuzv+0x2cc>)
   b53da:	f004 f9c6 	bl	b976a <_ZN6StringC1EPK19__FlashStringHelper>
String tarjetas_modoBasico[16] = { "0#2#0","0#3#0","0#4#1","0#9#1","0#10#1","0#11#1","0#1#1#0","0#1#1#1","0#0#1#0","0#0#1#1","0#0#1#2","0#0#1#3","0#0#1#4","0#0#1#5"};
   b53de:	49a4      	ldr	r1, [pc, #656]	; (b5670 <_GLOBAL__sub_I__Z13leerSensorLuzv+0x2d0>)
   b53e0:	48a4      	ldr	r0, [pc, #656]	; (b5674 <_GLOBAL__sub_I__Z13leerSensorLuzv+0x2d4>)
   b53e2:	f004 f9c2 	bl	b976a <_ZN6StringC1EPK19__FlashStringHelper>
   b53e6:	49a4      	ldr	r1, [pc, #656]	; (b5678 <_GLOBAL__sub_I__Z13leerSensorLuzv+0x2d8>)
   b53e8:	48a4      	ldr	r0, [pc, #656]	; (b567c <_GLOBAL__sub_I__Z13leerSensorLuzv+0x2dc>)
   b53ea:	f004 f9be 	bl	b976a <_ZN6StringC1EPK19__FlashStringHelper>
   b53ee:	49a4      	ldr	r1, [pc, #656]	; (b5680 <_GLOBAL__sub_I__Z13leerSensorLuzv+0x2e0>)
   b53f0:	48a4      	ldr	r0, [pc, #656]	; (b5684 <_GLOBAL__sub_I__Z13leerSensorLuzv+0x2e4>)
   b53f2:	f004 f9ba 	bl	b976a <_ZN6StringC1EPK19__FlashStringHelper>
   b53f6:	49a4      	ldr	r1, [pc, #656]	; (b5688 <_GLOBAL__sub_I__Z13leerSensorLuzv+0x2e8>)
   b53f8:	48a4      	ldr	r0, [pc, #656]	; (b568c <_GLOBAL__sub_I__Z13leerSensorLuzv+0x2ec>)
   b53fa:	f004 f9b6 	bl	b976a <_ZN6StringC1EPK19__FlashStringHelper>
   b53fe:	49a4      	ldr	r1, [pc, #656]	; (b5690 <_GLOBAL__sub_I__Z13leerSensorLuzv+0x2f0>)
   b5400:	48a4      	ldr	r0, [pc, #656]	; (b5694 <_GLOBAL__sub_I__Z13leerSensorLuzv+0x2f4>)
   b5402:	f004 f9b2 	bl	b976a <_ZN6StringC1EPK19__FlashStringHelper>
   b5406:	49a4      	ldr	r1, [pc, #656]	; (b5698 <_GLOBAL__sub_I__Z13leerSensorLuzv+0x2f8>)
   b5408:	48a4      	ldr	r0, [pc, #656]	; (b569c <_GLOBAL__sub_I__Z13leerSensorLuzv+0x2fc>)
   b540a:	f004 f9ae 	bl	b976a <_ZN6StringC1EPK19__FlashStringHelper>
   b540e:	49a4      	ldr	r1, [pc, #656]	; (b56a0 <_GLOBAL__sub_I__Z13leerSensorLuzv+0x300>)
   b5410:	48a4      	ldr	r0, [pc, #656]	; (b56a4 <_GLOBAL__sub_I__Z13leerSensorLuzv+0x304>)
   b5412:	f004 f9aa 	bl	b976a <_ZN6StringC1EPK19__FlashStringHelper>
   b5416:	49a4      	ldr	r1, [pc, #656]	; (b56a8 <_GLOBAL__sub_I__Z13leerSensorLuzv+0x308>)
   b5418:	48a4      	ldr	r0, [pc, #656]	; (b56ac <_GLOBAL__sub_I__Z13leerSensorLuzv+0x30c>)
   b541a:	f004 f9a6 	bl	b976a <_ZN6StringC1EPK19__FlashStringHelper>
   b541e:	49a4      	ldr	r1, [pc, #656]	; (b56b0 <_GLOBAL__sub_I__Z13leerSensorLuzv+0x310>)
   b5420:	48a4      	ldr	r0, [pc, #656]	; (b56b4 <_GLOBAL__sub_I__Z13leerSensorLuzv+0x314>)
   b5422:	f004 f9a2 	bl	b976a <_ZN6StringC1EPK19__FlashStringHelper>
   b5426:	49a4      	ldr	r1, [pc, #656]	; (b56b8 <_GLOBAL__sub_I__Z13leerSensorLuzv+0x318>)
   b5428:	48a4      	ldr	r0, [pc, #656]	; (b56bc <_GLOBAL__sub_I__Z13leerSensorLuzv+0x31c>)
   b542a:	f004 f99e 	bl	b976a <_ZN6StringC1EPK19__FlashStringHelper>
   b542e:	49a4      	ldr	r1, [pc, #656]	; (b56c0 <_GLOBAL__sub_I__Z13leerSensorLuzv+0x320>)
   b5430:	48a4      	ldr	r0, [pc, #656]	; (b56c4 <_GLOBAL__sub_I__Z13leerSensorLuzv+0x324>)
   b5432:	f004 f99a 	bl	b976a <_ZN6StringC1EPK19__FlashStringHelper>
   b5436:	49a4      	ldr	r1, [pc, #656]	; (b56c8 <_GLOBAL__sub_I__Z13leerSensorLuzv+0x328>)
   b5438:	48a4      	ldr	r0, [pc, #656]	; (b56cc <_GLOBAL__sub_I__Z13leerSensorLuzv+0x32c>)
   b543a:	f004 f996 	bl	b976a <_ZN6StringC1EPK19__FlashStringHelper>
   b543e:	49a4      	ldr	r1, [pc, #656]	; (b56d0 <_GLOBAL__sub_I__Z13leerSensorLuzv+0x330>)
   b5440:	48a4      	ldr	r0, [pc, #656]	; (b56d4 <_GLOBAL__sub_I__Z13leerSensorLuzv+0x334>)
   b5442:	f004 f992 	bl	b976a <_ZN6StringC1EPK19__FlashStringHelper>
   b5446:	49a4      	ldr	r1, [pc, #656]	; (b56d8 <_GLOBAL__sub_I__Z13leerSensorLuzv+0x338>)
   b5448:	48a4      	ldr	r0, [pc, #656]	; (b56dc <_GLOBAL__sub_I__Z13leerSensorLuzv+0x33c>)
   b544a:	f004 f98e 	bl	b976a <_ZN6StringC1EPK19__FlashStringHelper>
   b544e:	4982      	ldr	r1, [pc, #520]	; (b5658 <_GLOBAL__sub_I__Z13leerSensorLuzv+0x2b8>)
   b5450:	48a3      	ldr	r0, [pc, #652]	; (b56e0 <_GLOBAL__sub_I__Z13leerSensorLuzv+0x340>)
   b5452:	f004 f98a 	bl	b976a <_ZN6StringC1EPK19__FlashStringHelper>
   b5456:	4980      	ldr	r1, [pc, #512]	; (b5658 <_GLOBAL__sub_I__Z13leerSensorLuzv+0x2b8>)
   b5458:	48a2      	ldr	r0, [pc, #648]	; (b56e4 <_GLOBAL__sub_I__Z13leerSensorLuzv+0x344>)
   b545a:	f004 f986 	bl	b976a <_ZN6StringC1EPK19__FlashStringHelper>
                        "1#2","1#3#0","1#3#1","1#4","1#5" };
   b545e:	49a2      	ldr	r1, [pc, #648]	; (b56e8 <_GLOBAL__sub_I__Z13leerSensorLuzv+0x348>)
   b5460:	48a2      	ldr	r0, [pc, #648]	; (b56ec <_GLOBAL__sub_I__Z13leerSensorLuzv+0x34c>)
   b5462:	f004 f982 	bl	b976a <_ZN6StringC1EPK19__FlashStringHelper>
   b5466:	49a2      	ldr	r1, [pc, #648]	; (b56f0 <_GLOBAL__sub_I__Z13leerSensorLuzv+0x350>)
   b5468:	48a2      	ldr	r0, [pc, #648]	; (b56f4 <_GLOBAL__sub_I__Z13leerSensorLuzv+0x354>)
   b546a:	f004 f97e 	bl	b976a <_ZN6StringC1EPK19__FlashStringHelper>
   b546e:	49a2      	ldr	r1, [pc, #648]	; (b56f8 <_GLOBAL__sub_I__Z13leerSensorLuzv+0x358>)
   b5470:	48a2      	ldr	r0, [pc, #648]	; (b56fc <_GLOBAL__sub_I__Z13leerSensorLuzv+0x35c>)
   b5472:	f004 f97a 	bl	b976a <_ZN6StringC1EPK19__FlashStringHelper>
   b5476:	49a2      	ldr	r1, [pc, #648]	; (b5700 <_GLOBAL__sub_I__Z13leerSensorLuzv+0x360>)
   b5478:	48a2      	ldr	r0, [pc, #648]	; (b5704 <_GLOBAL__sub_I__Z13leerSensorLuzv+0x364>)
   b547a:	f004 f976 	bl	b976a <_ZN6StringC1EPK19__FlashStringHelper>
   b547e:	49a2      	ldr	r1, [pc, #648]	; (b5708 <_GLOBAL__sub_I__Z13leerSensorLuzv+0x368>)
   b5480:	48a2      	ldr	r0, [pc, #648]	; (b570c <_GLOBAL__sub_I__Z13leerSensorLuzv+0x36c>)
   b5482:	f004 f972 	bl	b976a <_ZN6StringC1EPK19__FlashStringHelper>
   b5486:	49a2      	ldr	r1, [pc, #648]	; (b5710 <_GLOBAL__sub_I__Z13leerSensorLuzv+0x370>)
   b5488:	48a2      	ldr	r0, [pc, #648]	; (b5714 <_GLOBAL__sub_I__Z13leerSensorLuzv+0x374>)
   b548a:	f004 f96e 	bl	b976a <_ZN6StringC1EPK19__FlashStringHelper>
   b548e:	49a2      	ldr	r1, [pc, #648]	; (b5718 <_GLOBAL__sub_I__Z13leerSensorLuzv+0x378>)
   b5490:	48a2      	ldr	r0, [pc, #648]	; (b571c <_GLOBAL__sub_I__Z13leerSensorLuzv+0x37c>)
   b5492:	f004 f96a 	bl	b976a <_ZN6StringC1EPK19__FlashStringHelper>
   b5496:	49a2      	ldr	r1, [pc, #648]	; (b5720 <_GLOBAL__sub_I__Z13leerSensorLuzv+0x380>)
   b5498:	48a2      	ldr	r0, [pc, #648]	; (b5724 <_GLOBAL__sub_I__Z13leerSensorLuzv+0x384>)
   b549a:	f004 f966 	bl	b976a <_ZN6StringC1EPK19__FlashStringHelper>
   b549e:	49a2      	ldr	r1, [pc, #648]	; (b5728 <_GLOBAL__sub_I__Z13leerSensorLuzv+0x388>)
   b54a0:	48a2      	ldr	r0, [pc, #648]	; (b572c <_GLOBAL__sub_I__Z13leerSensorLuzv+0x38c>)
   b54a2:	f004 f962 	bl	b976a <_ZN6StringC1EPK19__FlashStringHelper>
   b54a6:	49a2      	ldr	r1, [pc, #648]	; (b5730 <_GLOBAL__sub_I__Z13leerSensorLuzv+0x390>)
   b54a8:	48a2      	ldr	r0, [pc, #648]	; (b5734 <_GLOBAL__sub_I__Z13leerSensorLuzv+0x394>)
   b54aa:	f004 f95e 	bl	b976a <_ZN6StringC1EPK19__FlashStringHelper>
   b54ae:	49a2      	ldr	r1, [pc, #648]	; (b5738 <_GLOBAL__sub_I__Z13leerSensorLuzv+0x398>)
   b54b0:	48a2      	ldr	r0, [pc, #648]	; (b573c <_GLOBAL__sub_I__Z13leerSensorLuzv+0x39c>)
   b54b2:	f004 f95a 	bl	b976a <_ZN6StringC1EPK19__FlashStringHelper>
   b54b6:	49a2      	ldr	r1, [pc, #648]	; (b5740 <_GLOBAL__sub_I__Z13leerSensorLuzv+0x3a0>)
   b54b8:	48a2      	ldr	r0, [pc, #648]	; (b5744 <_GLOBAL__sub_I__Z13leerSensorLuzv+0x3a4>)
   b54ba:	f004 f956 	bl	b976a <_ZN6StringC1EPK19__FlashStringHelper>
   b54be:	49a2      	ldr	r1, [pc, #648]	; (b5748 <_GLOBAL__sub_I__Z13leerSensorLuzv+0x3a8>)
   b54c0:	48a2      	ldr	r0, [pc, #648]	; (b574c <_GLOBAL__sub_I__Z13leerSensorLuzv+0x3ac>)
   b54c2:	f004 f952 	bl	b976a <_ZN6StringC1EPK19__FlashStringHelper>
   b54c6:	49a2      	ldr	r1, [pc, #648]	; (b5750 <_GLOBAL__sub_I__Z13leerSensorLuzv+0x3b0>)
   b54c8:	48a2      	ldr	r0, [pc, #648]	; (b5754 <_GLOBAL__sub_I__Z13leerSensorLuzv+0x3b4>)
   b54ca:	f004 f94e 	bl	b976a <_ZN6StringC1EPK19__FlashStringHelper>
   b54ce:	49a2      	ldr	r1, [pc, #648]	; (b5758 <_GLOBAL__sub_I__Z13leerSensorLuzv+0x3b8>)
   b54d0:	48a2      	ldr	r0, [pc, #648]	; (b575c <_GLOBAL__sub_I__Z13leerSensorLuzv+0x3bc>)
   b54d2:	f004 f94a 	bl	b976a <_ZN6StringC1EPK19__FlashStringHelper>
   b54d6:	49a2      	ldr	r1, [pc, #648]	; (b5760 <_GLOBAL__sub_I__Z13leerSensorLuzv+0x3c0>)
   b54d8:	48a2      	ldr	r0, [pc, #648]	; (b5764 <_GLOBAL__sub_I__Z13leerSensorLuzv+0x3c4>)
   b54da:	f004 f946 	bl	b976a <_ZN6StringC1EPK19__FlashStringHelper>
   b54de:	49a2      	ldr	r1, [pc, #648]	; (b5768 <_GLOBAL__sub_I__Z13leerSensorLuzv+0x3c8>)
   b54e0:	48a2      	ldr	r0, [pc, #648]	; (b576c <_GLOBAL__sub_I__Z13leerSensorLuzv+0x3cc>)
   b54e2:	f004 f942 	bl	b976a <_ZN6StringC1EPK19__FlashStringHelper>
   b54e6:	49a2      	ldr	r1, [pc, #648]	; (b5770 <_GLOBAL__sub_I__Z13leerSensorLuzv+0x3d0>)
   b54e8:	48a2      	ldr	r0, [pc, #648]	; (b5774 <_GLOBAL__sub_I__Z13leerSensorLuzv+0x3d4>)
   b54ea:	f004 f93e 	bl	b976a <_ZN6StringC1EPK19__FlashStringHelper>
   b54ee:	49a2      	ldr	r1, [pc, #648]	; (b5778 <_GLOBAL__sub_I__Z13leerSensorLuzv+0x3d8>)
   b54f0:	48a2      	ldr	r0, [pc, #648]	; (b577c <_GLOBAL__sub_I__Z13leerSensorLuzv+0x3dc>)
   b54f2:	f004 f93a 	bl	b976a <_ZN6StringC1EPK19__FlashStringHelper>
   b54f6:	49a2      	ldr	r1, [pc, #648]	; (b5780 <_GLOBAL__sub_I__Z13leerSensorLuzv+0x3e0>)
   b54f8:	48a2      	ldr	r0, [pc, #648]	; (b5784 <_GLOBAL__sub_I__Z13leerSensorLuzv+0x3e4>)
   b54fa:	f004 f936 	bl	b976a <_ZN6StringC1EPK19__FlashStringHelper>
   b54fe:	49a2      	ldr	r1, [pc, #648]	; (b5788 <_GLOBAL__sub_I__Z13leerSensorLuzv+0x3e8>)
   b5500:	48a2      	ldr	r0, [pc, #648]	; (b578c <_GLOBAL__sub_I__Z13leerSensorLuzv+0x3ec>)
   b5502:	f004 f932 	bl	b976a <_ZN6StringC1EPK19__FlashStringHelper>
   b5506:	49a2      	ldr	r1, [pc, #648]	; (b5790 <_GLOBAL__sub_I__Z13leerSensorLuzv+0x3f0>)
   b5508:	48a2      	ldr	r0, [pc, #648]	; (b5794 <_GLOBAL__sub_I__Z13leerSensorLuzv+0x3f4>)
   b550a:	f004 f92e 	bl	b976a <_ZN6StringC1EPK19__FlashStringHelper>
   b550e:	49a2      	ldr	r1, [pc, #648]	; (b5798 <_GLOBAL__sub_I__Z13leerSensorLuzv+0x3f8>)
   b5510:	48a2      	ldr	r0, [pc, #648]	; (b579c <_GLOBAL__sub_I__Z13leerSensorLuzv+0x3fc>)
   b5512:	f004 f92a 	bl	b976a <_ZN6StringC1EPK19__FlashStringHelper>
   b5516:	49a2      	ldr	r1, [pc, #648]	; (b57a0 <_GLOBAL__sub_I__Z13leerSensorLuzv+0x400>)
   b5518:	48a2      	ldr	r0, [pc, #648]	; (b57a4 <_GLOBAL__sub_I__Z13leerSensorLuzv+0x404>)
   b551a:	f004 f926 	bl	b976a <_ZN6StringC1EPK19__FlashStringHelper>
   b551e:	49a2      	ldr	r1, [pc, #648]	; (b57a8 <_GLOBAL__sub_I__Z13leerSensorLuzv+0x408>)
   b5520:	48a2      	ldr	r0, [pc, #648]	; (b57ac <_GLOBAL__sub_I__Z13leerSensorLuzv+0x40c>)
   b5522:	f004 f922 	bl	b976a <_ZN6StringC1EPK19__FlashStringHelper>
   b5526:	49a2      	ldr	r1, [pc, #648]	; (b57b0 <_GLOBAL__sub_I__Z13leerSensorLuzv+0x410>)
   b5528:	48a2      	ldr	r0, [pc, #648]	; (b57b4 <_GLOBAL__sub_I__Z13leerSensorLuzv+0x414>)
   b552a:	f004 f91e 	bl	b976a <_ZN6StringC1EPK19__FlashStringHelper>
   b552e:	49a2      	ldr	r1, [pc, #648]	; (b57b8 <_GLOBAL__sub_I__Z13leerSensorLuzv+0x418>)
   b5530:	48a2      	ldr	r0, [pc, #648]	; (b57bc <_GLOBAL__sub_I__Z13leerSensorLuzv+0x41c>)
   b5532:	f004 f91a 	bl	b976a <_ZN6StringC1EPK19__FlashStringHelper>
   b5536:	49a2      	ldr	r1, [pc, #648]	; (b57c0 <_GLOBAL__sub_I__Z13leerSensorLuzv+0x420>)
   b5538:	48a2      	ldr	r0, [pc, #648]	; (b57c4 <_GLOBAL__sub_I__Z13leerSensorLuzv+0x424>)
   b553a:	f004 f916 	bl	b976a <_ZN6StringC1EPK19__FlashStringHelper>
                        "2#1#0","2#2#0","2#2#1","2#2#2","2#2#3","2#2#4","2#2#5","2#2#6","2#2#7","2#2#8"};
   b553e:	49a2      	ldr	r1, [pc, #648]	; (b57c8 <_GLOBAL__sub_I__Z13leerSensorLuzv+0x428>)
   b5540:	48a2      	ldr	r0, [pc, #648]	; (b57cc <_GLOBAL__sub_I__Z13leerSensorLuzv+0x42c>)
   b5542:	f004 f912 	bl	b976a <_ZN6StringC1EPK19__FlashStringHelper>
   b5546:	49a2      	ldr	r1, [pc, #648]	; (b57d0 <_GLOBAL__sub_I__Z13leerSensorLuzv+0x430>)
   b5548:	48a2      	ldr	r0, [pc, #648]	; (b57d4 <_GLOBAL__sub_I__Z13leerSensorLuzv+0x434>)
   b554a:	f004 f90e 	bl	b976a <_ZN6StringC1EPK19__FlashStringHelper>
   b554e:	49a2      	ldr	r1, [pc, #648]	; (b57d8 <_GLOBAL__sub_I__Z13leerSensorLuzv+0x438>)
   b5550:	48a2      	ldr	r0, [pc, #648]	; (b57dc <_GLOBAL__sub_I__Z13leerSensorLuzv+0x43c>)
   b5552:	f004 f90a 	bl	b976a <_ZN6StringC1EPK19__FlashStringHelper>
   b5556:	49a2      	ldr	r1, [pc, #648]	; (b57e0 <_GLOBAL__sub_I__Z13leerSensorLuzv+0x440>)
   b5558:	48a2      	ldr	r0, [pc, #648]	; (b57e4 <_GLOBAL__sub_I__Z13leerSensorLuzv+0x444>)
   b555a:	f004 f906 	bl	b976a <_ZN6StringC1EPK19__FlashStringHelper>
   b555e:	49a2      	ldr	r1, [pc, #648]	; (b57e8 <_GLOBAL__sub_I__Z13leerSensorLuzv+0x448>)
   b5560:	48a2      	ldr	r0, [pc, #648]	; (b57ec <_GLOBAL__sub_I__Z13leerSensorLuzv+0x44c>)
   b5562:	f004 f902 	bl	b976a <_ZN6StringC1EPK19__FlashStringHelper>
   b5566:	49a2      	ldr	r1, [pc, #648]	; (b57f0 <_GLOBAL__sub_I__Z13leerSensorLuzv+0x450>)
   b5568:	48a2      	ldr	r0, [pc, #648]	; (b57f4 <_GLOBAL__sub_I__Z13leerSensorLuzv+0x454>)
   b556a:	f004 f8fe 	bl	b976a <_ZN6StringC1EPK19__FlashStringHelper>
   b556e:	49a2      	ldr	r1, [pc, #648]	; (b57f8 <_GLOBAL__sub_I__Z13leerSensorLuzv+0x458>)
   b5570:	48a2      	ldr	r0, [pc, #648]	; (b57fc <_GLOBAL__sub_I__Z13leerSensorLuzv+0x45c>)
   b5572:	f004 f8fa 	bl	b976a <_ZN6StringC1EPK19__FlashStringHelper>
   b5576:	49a2      	ldr	r1, [pc, #648]	; (b5800 <_GLOBAL__sub_I__Z13leerSensorLuzv+0x460>)
   b5578:	48a2      	ldr	r0, [pc, #648]	; (b5804 <_GLOBAL__sub_I__Z13leerSensorLuzv+0x464>)
   b557a:	f004 f8f6 	bl	b976a <_ZN6StringC1EPK19__FlashStringHelper>
   b557e:	49a2      	ldr	r1, [pc, #648]	; (b5808 <_GLOBAL__sub_I__Z13leerSensorLuzv+0x468>)
   b5580:	48a2      	ldr	r0, [pc, #648]	; (b580c <_GLOBAL__sub_I__Z13leerSensorLuzv+0x46c>)
   b5582:	f004 f8f2 	bl	b976a <_ZN6StringC1EPK19__FlashStringHelper>
   b5586:	49a2      	ldr	r1, [pc, #648]	; (b5810 <_GLOBAL__sub_I__Z13leerSensorLuzv+0x470>)
   b5588:	48a2      	ldr	r0, [pc, #648]	; (b5814 <_GLOBAL__sub_I__Z13leerSensorLuzv+0x474>)
   b558a:	f004 f8ee 	bl	b976a <_ZN6StringC1EPK19__FlashStringHelper>
   b558e:	49a2      	ldr	r1, [pc, #648]	; (b5818 <_GLOBAL__sub_I__Z13leerSensorLuzv+0x478>)
   b5590:	48a2      	ldr	r0, [pc, #648]	; (b581c <_GLOBAL__sub_I__Z13leerSensorLuzv+0x47c>)
   b5592:	f004 f8ea 	bl	b976a <_ZN6StringC1EPK19__FlashStringHelper>
   b5596:	49a2      	ldr	r1, [pc, #648]	; (b5820 <_GLOBAL__sub_I__Z13leerSensorLuzv+0x480>)
   b5598:	48a2      	ldr	r0, [pc, #648]	; (b5824 <_GLOBAL__sub_I__Z13leerSensorLuzv+0x484>)
   b559a:	f004 f8e6 	bl	b976a <_ZN6StringC1EPK19__FlashStringHelper>
   b559e:	49a2      	ldr	r1, [pc, #648]	; (b5828 <_GLOBAL__sub_I__Z13leerSensorLuzv+0x488>)
   b55a0:	48a2      	ldr	r0, [pc, #648]	; (b582c <_GLOBAL__sub_I__Z13leerSensorLuzv+0x48c>)
   b55a2:	f004 f8e2 	bl	b976a <_ZN6StringC1EPK19__FlashStringHelper>
   b55a6:	49a2      	ldr	r1, [pc, #648]	; (b5830 <_GLOBAL__sub_I__Z13leerSensorLuzv+0x490>)
   b55a8:	48a2      	ldr	r0, [pc, #648]	; (b5834 <_GLOBAL__sub_I__Z13leerSensorLuzv+0x494>)
   b55aa:	f004 f8de 	bl	b976a <_ZN6StringC1EPK19__FlashStringHelper>
   b55ae:	49a2      	ldr	r1, [pc, #648]	; (b5838 <_GLOBAL__sub_I__Z13leerSensorLuzv+0x498>)
   b55b0:	48a2      	ldr	r0, [pc, #648]	; (b583c <_GLOBAL__sub_I__Z13leerSensorLuzv+0x49c>)
   b55b2:	f004 f8da 	bl	b976a <_ZN6StringC1EPK19__FlashStringHelper>
   b55b6:	49a2      	ldr	r1, [pc, #648]	; (b5840 <_GLOBAL__sub_I__Z13leerSensorLuzv+0x4a0>)
   b55b8:	48a2      	ldr	r0, [pc, #648]	; (b5844 <_GLOBAL__sub_I__Z13leerSensorLuzv+0x4a4>)
   b55ba:	f004 f8d6 	bl	b976a <_ZN6StringC1EPK19__FlashStringHelper>
   b55be:	49a2      	ldr	r1, [pc, #648]	; (b5848 <_GLOBAL__sub_I__Z13leerSensorLuzv+0x4a8>)
   b55c0:	48a2      	ldr	r0, [pc, #648]	; (b584c <_GLOBAL__sub_I__Z13leerSensorLuzv+0x4ac>)
   b55c2:	f004 f8d2 	bl	b976a <_ZN6StringC1EPK19__FlashStringHelper>
   b55c6:	49a2      	ldr	r1, [pc, #648]	; (b5850 <_GLOBAL__sub_I__Z13leerSensorLuzv+0x4b0>)
   b55c8:	48a2      	ldr	r0, [pc, #648]	; (b5854 <_GLOBAL__sub_I__Z13leerSensorLuzv+0x4b4>)
   b55ca:	f004 f8ce 	bl	b976a <_ZN6StringC1EPK19__FlashStringHelper>
   b55ce:	49a2      	ldr	r1, [pc, #648]	; (b5858 <_GLOBAL__sub_I__Z13leerSensorLuzv+0x4b8>)
   b55d0:	48a2      	ldr	r0, [pc, #648]	; (b585c <_GLOBAL__sub_I__Z13leerSensorLuzv+0x4bc>)
   b55d2:	f004 f8ca 	bl	b976a <_ZN6StringC1EPK19__FlashStringHelper>
   b55d6:	49a2      	ldr	r1, [pc, #648]	; (b5860 <_GLOBAL__sub_I__Z13leerSensorLuzv+0x4c0>)
   b55d8:	48a2      	ldr	r0, [pc, #648]	; (b5864 <_GLOBAL__sub_I__Z13leerSensorLuzv+0x4c4>)
   b55da:	f004 f8c6 	bl	b976a <_ZN6StringC1EPK19__FlashStringHelper>
   b55de:	49a2      	ldr	r1, [pc, #648]	; (b5868 <_GLOBAL__sub_I__Z13leerSensorLuzv+0x4c8>)
   b55e0:	48a2      	ldr	r0, [pc, #648]	; (b586c <_GLOBAL__sub_I__Z13leerSensorLuzv+0x4cc>)
   b55e2:	f004 f8c2 	bl	b976a <_ZN6StringC1EPK19__FlashStringHelper>
   b55e6:	49a2      	ldr	r1, [pc, #648]	; (b5870 <_GLOBAL__sub_I__Z13leerSensorLuzv+0x4d0>)
   b55e8:	48a2      	ldr	r0, [pc, #648]	; (b5874 <_GLOBAL__sub_I__Z13leerSensorLuzv+0x4d4>)
   b55ea:	f004 f8be 	bl	b976a <_ZN6StringC1EPK19__FlashStringHelper>
   b55ee:	49a2      	ldr	r1, [pc, #648]	; (b5878 <_GLOBAL__sub_I__Z13leerSensorLuzv+0x4d8>)
   b55f0:	48a2      	ldr	r0, [pc, #648]	; (b587c <_GLOBAL__sub_I__Z13leerSensorLuzv+0x4dc>)
   b55f2:	f004 f8ba 	bl	b976a <_ZN6StringC1EPK19__FlashStringHelper>
   b55f6:	49a2      	ldr	r1, [pc, #648]	; (b5880 <_GLOBAL__sub_I__Z13leerSensorLuzv+0x4e0>)
   b55f8:	48a2      	ldr	r0, [pc, #648]	; (b5884 <_GLOBAL__sub_I__Z13leerSensorLuzv+0x4e4>)
   b55fa:	f004 f8b6 	bl	b976a <_ZN6StringC1EPK19__FlashStringHelper>
   b55fe:	49a2      	ldr	r1, [pc, #648]	; (b5888 <_GLOBAL__sub_I__Z13leerSensorLuzv+0x4e8>)
   b5600:	48a2      	ldr	r0, [pc, #648]	; (b588c <_GLOBAL__sub_I__Z13leerSensorLuzv+0x4ec>)
   b5602:	f004 f8b2 	bl	b976a <_ZN6StringC1EPK19__FlashStringHelper>
   b5606:	49a2      	ldr	r1, [pc, #648]	; (b5890 <_GLOBAL__sub_I__Z13leerSensorLuzv+0x4f0>)
   b5608:	48a2      	ldr	r0, [pc, #648]	; (b5894 <_GLOBAL__sub_I__Z13leerSensorLuzv+0x4f4>)
   b560a:	f004 f8ae 	bl	b976a <_ZN6StringC1EPK19__FlashStringHelper>
   b560e:	49a2      	ldr	r1, [pc, #648]	; (b5898 <_GLOBAL__sub_I__Z13leerSensorLuzv+0x4f8>)
   b5610:	48a2      	ldr	r0, [pc, #648]	; (b589c <_GLOBAL__sub_I__Z13leerSensorLuzv+0x4fc>)
   b5612:	f004 f8aa 	bl	b976a <_ZN6StringC1EPK19__FlashStringHelper>
   b5616:	49a2      	ldr	r1, [pc, #648]	; (b58a0 <_GLOBAL__sub_I__Z13leerSensorLuzv+0x500>)
   b5618:	48a2      	ldr	r0, [pc, #648]	; (b58a4 <_GLOBAL__sub_I__Z13leerSensorLuzv+0x504>)
   b561a:	f004 f8a6 	bl	b976a <_ZN6StringC1EPK19__FlashStringHelper>
   b561e:	49a2      	ldr	r1, [pc, #648]	; (b58a8 <_GLOBAL__sub_I__Z13leerSensorLuzv+0x508>)
   b5620:	48a2      	ldr	r0, [pc, #648]	; (b58ac <_GLOBAL__sub_I__Z13leerSensorLuzv+0x50c>)
   b5622:	f004 f8a2 	bl	b976a <_ZN6StringC1EPK19__FlashStringHelper>
   b5626:	49a2      	ldr	r1, [pc, #648]	; (b58b0 <_GLOBAL__sub_I__Z13leerSensorLuzv+0x510>)
   b5628:	48a2      	ldr	r0, [pc, #648]	; (b58b4 <_GLOBAL__sub_I__Z13leerSensorLuzv+0x514>)
   b562a:	f004 f89e 	bl	b976a <_ZN6StringC1EPK19__FlashStringHelper>
   b562e:	49a2      	ldr	r1, [pc, #648]	; (b58b8 <_GLOBAL__sub_I__Z13leerSensorLuzv+0x518>)
   b5630:	48a2      	ldr	r0, [pc, #648]	; (b58bc <_GLOBAL__sub_I__Z13leerSensorLuzv+0x51c>)
   b5632:	f004 f89a 	bl	b976a <_ZN6StringC1EPK19__FlashStringHelper>
   b5636:	49a2      	ldr	r1, [pc, #648]	; (b58c0 <_GLOBAL__sub_I__Z13leerSensorLuzv+0x520>)
   b5638:	48a2      	ldr	r0, [pc, #648]	; (b58c4 <_GLOBAL__sub_I__Z13leerSensorLuzv+0x524>)
   b563a:	f004 f896 	bl	b976a <_ZN6StringC1EPK19__FlashStringHelper>
   b563e:	49a2      	ldr	r1, [pc, #648]	; (b58c8 <_GLOBAL__sub_I__Z13leerSensorLuzv+0x528>)
   b5640:	48a2      	ldr	r0, [pc, #648]	; (b58cc <_GLOBAL__sub_I__Z13leerSensorLuzv+0x52c>)
   b5642:	f004 f892 	bl	b976a <_ZN6StringC1EPK19__FlashStringHelper>
   b5646:	49a2      	ldr	r1, [pc, #648]	; (b58d0 <_GLOBAL__sub_I__Z13leerSensorLuzv+0x530>)
   b5648:	48a2      	ldr	r0, [pc, #648]	; (b58d4 <_GLOBAL__sub_I__Z13leerSensorLuzv+0x534>)
   b564a:	f004 f88e 	bl	b976a <_ZN6StringC1EPK19__FlashStringHelper>
   b564e:	e143      	b.n	b58d8 <_GLOBAL__sub_I__Z13leerSensorLuzv+0x538>
   b5650:	2003d6f8 	.word	0x2003d6f8
   b5654:	2003dc94 	.word	0x2003dc94
   b5658:	000bafca 	.word	0x000bafca
   b565c:	2003cd34 	.word	0x2003cd34
   b5660:	2003d358 	.word	0x2003d358
   b5664:	000bafd8 	.word	0x000bafd8
   b5668:	2003d3a8 	.word	0x2003d3a8
   b566c:	2003d3b8 	.word	0x2003d3b8
   b5670:	000bb046 	.word	0x000bb046
   b5674:	2003e384 	.word	0x2003e384
   b5678:	000bb05a 	.word	0x000bb05a
   b567c:	2003e394 	.word	0x2003e394
   b5680:	000bb18a 	.word	0x000bb18a
   b5684:	2003e3a4 	.word	0x2003e3a4
   b5688:	000bafda 	.word	0x000bafda
   b568c:	2003e3b4 	.word	0x2003e3b4
   b5690:	000bafe0 	.word	0x000bafe0
   b5694:	2003e3c4 	.word	0x2003e3c4
   b5698:	000bafe7 	.word	0x000bafe7
   b569c:	2003e3d4 	.word	0x2003e3d4
   b56a0:	000bafee 	.word	0x000bafee
   b56a4:	2003e3e4 	.word	0x2003e3e4
   b56a8:	000baff6 	.word	0x000baff6
   b56ac:	2003e3f4 	.word	0x2003e3f4
   b56b0:	000baffe 	.word	0x000baffe
   b56b4:	2003e404 	.word	0x2003e404
   b56b8:	000bb006 	.word	0x000bb006
   b56bc:	2003e414 	.word	0x2003e414
   b56c0:	000bb00e 	.word	0x000bb00e
   b56c4:	2003e424 	.word	0x2003e424
   b56c8:	000bb016 	.word	0x000bb016
   b56cc:	2003e434 	.word	0x2003e434
   b56d0:	000bb01e 	.word	0x000bb01e
   b56d4:	2003e444 	.word	0x2003e444
   b56d8:	000bb026 	.word	0x000bb026
   b56dc:	2003e454 	.word	0x2003e454
   b56e0:	2003e464 	.word	0x2003e464
   b56e4:	2003e474 	.word	0x2003e474
   b56e8:	000bb02e 	.word	0x000bb02e
   b56ec:	2003e1c4 	.word	0x2003e1c4
   b56f0:	000bb038 	.word	0x000bb038
   b56f4:	2003e1d4 	.word	0x2003e1d4
   b56f8:	000bb042 	.word	0x000bb042
   b56fc:	2003e1e4 	.word	0x2003e1e4
   b5700:	000bb04c 	.word	0x000bb04c
   b5704:	2003e1f4 	.word	0x2003e1f4
   b5708:	000bb056 	.word	0x000bb056
   b570c:	2003e204 	.word	0x2003e204
   b5710:	000bb060 	.word	0x000bb060
   b5714:	2003e214 	.word	0x2003e214
   b5718:	000bb06a 	.word	0x000bb06a
   b571c:	2003e224 	.word	0x2003e224
   b5720:	000bb074 	.word	0x000bb074
   b5724:	2003e234 	.word	0x2003e234
   b5728:	000bb07e 	.word	0x000bb07e
   b572c:	2003e244 	.word	0x2003e244
   b5730:	000bb088 	.word	0x000bb088
   b5734:	2003e254 	.word	0x2003e254
   b5738:	000bb092 	.word	0x000bb092
   b573c:	2003e264 	.word	0x2003e264
   b5740:	000bb09c 	.word	0x000bb09c
   b5744:	2003e274 	.word	0x2003e274
   b5748:	000bb0a6 	.word	0x000bb0a6
   b574c:	2003e284 	.word	0x2003e284
   b5750:	000bb0b0 	.word	0x000bb0b0
   b5754:	2003e294 	.word	0x2003e294
   b5758:	000bb0ba 	.word	0x000bb0ba
   b575c:	2003e2a4 	.word	0x2003e2a4
   b5760:	000bb0c4 	.word	0x000bb0c4
   b5764:	2003e2b4 	.word	0x2003e2b4
   b5768:	000bb0ce 	.word	0x000bb0ce
   b576c:	2003e2c4 	.word	0x2003e2c4
   b5770:	000bb0d8 	.word	0x000bb0d8
   b5774:	2003e2d4 	.word	0x2003e2d4
   b5778:	000bb0e2 	.word	0x000bb0e2
   b577c:	2003e2e4 	.word	0x2003e2e4
   b5780:	000bb0ec 	.word	0x000bb0ec
   b5784:	2003e2f4 	.word	0x2003e2f4
   b5788:	000bb0f6 	.word	0x000bb0f6
   b578c:	2003e304 	.word	0x2003e304
   b5790:	000bb100 	.word	0x000bb100
   b5794:	2003e314 	.word	0x2003e314
   b5798:	000bb10a 	.word	0x000bb10a
   b579c:	2003e324 	.word	0x2003e324
   b57a0:	000bb012 	.word	0x000bb012
   b57a4:	2003e334 	.word	0x2003e334
   b57a8:	000bb114 	.word	0x000bb114
   b57ac:	2003e344 	.word	0x2003e344
   b57b0:	000bb11a 	.word	0x000bb11a
   b57b4:	2003e354 	.word	0x2003e354
   b57b8:	000bb022 	.word	0x000bb022
   b57bc:	2003e364 	.word	0x2003e364
   b57c0:	000bb02a 	.word	0x000bb02a
   b57c4:	2003e374 	.word	0x2003e374
   b57c8:	000bb120 	.word	0x000bb120
   b57cc:	2003e484 	.word	0x2003e484
   b57d0:	000bb128 	.word	0x000bb128
   b57d4:	2003e494 	.word	0x2003e494
   b57d8:	000bb130 	.word	0x000bb130
   b57dc:	2003e4a4 	.word	0x2003e4a4
   b57e0:	000bb138 	.word	0x000bb138
   b57e4:	2003e4b4 	.word	0x2003e4b4
   b57e8:	000bb140 	.word	0x000bb140
   b57ec:	2003e4c4 	.word	0x2003e4c4
   b57f0:	000bb148 	.word	0x000bb148
   b57f4:	2003e4d4 	.word	0x2003e4d4
   b57f8:	000bb150 	.word	0x000bb150
   b57fc:	2003e4e4 	.word	0x2003e4e4
   b5800:	000bb158 	.word	0x000bb158
   b5804:	2003e4f4 	.word	0x2003e4f4
   b5808:	000bb160 	.word	0x000bb160
   b580c:	2003e504 	.word	0x2003e504
   b5810:	000bb168 	.word	0x000bb168
   b5814:	2003e514 	.word	0x2003e514
   b5818:	000bb170 	.word	0x000bb170
   b581c:	2003e524 	.word	0x2003e524
   b5820:	000bb178 	.word	0x000bb178
   b5824:	2003e534 	.word	0x2003e534
   b5828:	000bb180 	.word	0x000bb180
   b582c:	2003e544 	.word	0x2003e544
   b5830:	000bb188 	.word	0x000bb188
   b5834:	2003e554 	.word	0x2003e554
   b5838:	000bb190 	.word	0x000bb190
   b583c:	2003e564 	.word	0x2003e564
   b5840:	000bb198 	.word	0x000bb198
   b5844:	2003e574 	.word	0x2003e574
   b5848:	000bb1a0 	.word	0x000bb1a0
   b584c:	2003e584 	.word	0x2003e584
   b5850:	000bb1a8 	.word	0x000bb1a8
   b5854:	2003e594 	.word	0x2003e594
   b5858:	000bb1b0 	.word	0x000bb1b0
   b585c:	2003e5a4 	.word	0x2003e5a4
   b5860:	000bb1b8 	.word	0x000bb1b8
   b5864:	2003e5b4 	.word	0x2003e5b4
   b5868:	000bb1c0 	.word	0x000bb1c0
   b586c:	2003e5c4 	.word	0x2003e5c4
   b5870:	000bb1c8 	.word	0x000bb1c8
   b5874:	2003e5d4 	.word	0x2003e5d4
   b5878:	000bb1d0 	.word	0x000bb1d0
   b587c:	2003e5e4 	.word	0x2003e5e4
   b5880:	000bb1d8 	.word	0x000bb1d8
   b5884:	2003e5f4 	.word	0x2003e5f4
   b5888:	000bb1e0 	.word	0x000bb1e0
   b588c:	2003e604 	.word	0x2003e604
   b5890:	000bb1e6 	.word	0x000bb1e6
   b5894:	2003e614 	.word	0x2003e614
   b5898:	000bb1ec 	.word	0x000bb1ec
   b589c:	2003e624 	.word	0x2003e624
   b58a0:	000bb1f2 	.word	0x000bb1f2
   b58a4:	2003e634 	.word	0x2003e634
   b58a8:	000bb1f8 	.word	0x000bb1f8
   b58ac:	2003e644 	.word	0x2003e644
   b58b0:	000bb1fe 	.word	0x000bb1fe
   b58b4:	2003e654 	.word	0x2003e654
   b58b8:	000bb204 	.word	0x000bb204
   b58bc:	2003e664 	.word	0x2003e664
   b58c0:	000bb20a 	.word	0x000bb20a
   b58c4:	2003e674 	.word	0x2003e674
   b58c8:	000bb210 	.word	0x000bb210
   b58cc:	2003e684 	.word	0x2003e684
   b58d0:	000bb216 	.word	0x000bb216
   b58d4:	2003e694 	.word	0x2003e694
   b58d8:	492d      	ldr	r1, [pc, #180]	; (b5990 <_GLOBAL__sub_I__Z13leerSensorLuzv+0x5f0>)
   b58da:	482e      	ldr	r0, [pc, #184]	; (b5994 <_GLOBAL__sub_I__Z13leerSensorLuzv+0x5f4>)
   b58dc:	f003 ff45 	bl	b976a <_ZN6StringC1EPK19__FlashStringHelper>
String tarjetas_comunes[8] = {"6#0#0","6#0#1","6#0#2","6#1#0","6#2#0","6#2#1","6#2#2"};
   b58e0:	492d      	ldr	r1, [pc, #180]	; (b5998 <_GLOBAL__sub_I__Z13leerSensorLuzv+0x5f8>)
   b58e2:	482e      	ldr	r0, [pc, #184]	; (b599c <_GLOBAL__sub_I__Z13leerSensorLuzv+0x5fc>)
   b58e4:	f003 ff41 	bl	b976a <_ZN6StringC1EPK19__FlashStringHelper>
   b58e8:	492d      	ldr	r1, [pc, #180]	; (b59a0 <_GLOBAL__sub_I__Z13leerSensorLuzv+0x600>)
   b58ea:	482e      	ldr	r0, [pc, #184]	; (b59a4 <_GLOBAL__sub_I__Z13leerSensorLuzv+0x604>)
   b58ec:	f003 ff3d 	bl	b976a <_ZN6StringC1EPK19__FlashStringHelper>
   b58f0:	492d      	ldr	r1, [pc, #180]	; (b59a8 <_GLOBAL__sub_I__Z13leerSensorLuzv+0x608>)
   b58f2:	482e      	ldr	r0, [pc, #184]	; (b59ac <_GLOBAL__sub_I__Z13leerSensorLuzv+0x60c>)
   b58f4:	f003 ff39 	bl	b976a <_ZN6StringC1EPK19__FlashStringHelper>
   b58f8:	492d      	ldr	r1, [pc, #180]	; (b59b0 <_GLOBAL__sub_I__Z13leerSensorLuzv+0x610>)
   b58fa:	482e      	ldr	r0, [pc, #184]	; (b59b4 <_GLOBAL__sub_I__Z13leerSensorLuzv+0x614>)
   b58fc:	f003 ff35 	bl	b976a <_ZN6StringC1EPK19__FlashStringHelper>
   b5900:	492d      	ldr	r1, [pc, #180]	; (b59b8 <_GLOBAL__sub_I__Z13leerSensorLuzv+0x618>)
   b5902:	482e      	ldr	r0, [pc, #184]	; (b59bc <_GLOBAL__sub_I__Z13leerSensorLuzv+0x61c>)
   b5904:	f003 ff31 	bl	b976a <_ZN6StringC1EPK19__FlashStringHelper>
   b5908:	492d      	ldr	r1, [pc, #180]	; (b59c0 <_GLOBAL__sub_I__Z13leerSensorLuzv+0x620>)
   b590a:	482e      	ldr	r0, [pc, #184]	; (b59c4 <_GLOBAL__sub_I__Z13leerSensorLuzv+0x624>)
   b590c:	f003 ff2d 	bl	b976a <_ZN6StringC1EPK19__FlashStringHelper>
   b5910:	492d      	ldr	r1, [pc, #180]	; (b59c8 <_GLOBAL__sub_I__Z13leerSensorLuzv+0x628>)
   b5912:	482e      	ldr	r0, [pc, #184]	; (b59cc <_GLOBAL__sub_I__Z13leerSensorLuzv+0x62c>)
   b5914:	f003 ff29 	bl	b976a <_ZN6StringC1EPK19__FlashStringHelper>
   b5918:	491d      	ldr	r1, [pc, #116]	; (b5990 <_GLOBAL__sub_I__Z13leerSensorLuzv+0x5f0>)
   b591a:	482d      	ldr	r0, [pc, #180]	; (b59d0 <_GLOBAL__sub_I__Z13leerSensorLuzv+0x630>)
   b591c:	f003 ff25 	bl	b976a <_ZN6StringC1EPK19__FlashStringHelper>
String tarjetas[80] = {"1#0#1#9#1","1#0#1#11#1", "1#0#1#8#1", "1#0#0#12#1", "1#1#0#13#1"};
   b5920:	492c      	ldr	r1, [pc, #176]	; (b59d4 <_GLOBAL__sub_I__Z13leerSensorLuzv+0x634>)
   b5922:	482d      	ldr	r0, [pc, #180]	; (b59d8 <_GLOBAL__sub_I__Z13leerSensorLuzv+0x638>)
   b5924:	f003 ff21 	bl	b976a <_ZN6StringC1EPK19__FlashStringHelper>
   b5928:	492c      	ldr	r1, [pc, #176]	; (b59dc <_GLOBAL__sub_I__Z13leerSensorLuzv+0x63c>)
   b592a:	482d      	ldr	r0, [pc, #180]	; (b59e0 <_GLOBAL__sub_I__Z13leerSensorLuzv+0x640>)
   b592c:	f003 ff1d 	bl	b976a <_ZN6StringC1EPK19__FlashStringHelper>
   b5930:	492c      	ldr	r1, [pc, #176]	; (b59e4 <_GLOBAL__sub_I__Z13leerSensorLuzv+0x644>)
   b5932:	482d      	ldr	r0, [pc, #180]	; (b59e8 <_GLOBAL__sub_I__Z13leerSensorLuzv+0x648>)
   b5934:	f003 ff19 	bl	b976a <_ZN6StringC1EPK19__FlashStringHelper>
   b5938:	492c      	ldr	r1, [pc, #176]	; (b59ec <_GLOBAL__sub_I__Z13leerSensorLuzv+0x64c>)
   b593a:	482d      	ldr	r0, [pc, #180]	; (b59f0 <_GLOBAL__sub_I__Z13leerSensorLuzv+0x650>)
   b593c:	f003 ff15 	bl	b976a <_ZN6StringC1EPK19__FlashStringHelper>
   b5940:	492c      	ldr	r1, [pc, #176]	; (b59f4 <_GLOBAL__sub_I__Z13leerSensorLuzv+0x654>)
   b5942:	482d      	ldr	r0, [pc, #180]	; (b59f8 <_GLOBAL__sub_I__Z13leerSensorLuzv+0x658>)
   b5944:	f003 ff11 	bl	b976a <_ZN6StringC1EPK19__FlashStringHelper>
   b5948:	1928      	adds	r0, r5, r4
   b594a:	4631      	mov	r1, r6
   b594c:	3410      	adds	r4, #16
   b594e:	f003 ff0c 	bl	b976a <_ZN6StringC1EPK19__FlashStringHelper>
   b5952:	f5b4 6f96 	cmp.w	r4, #1200	; 0x4b0
   b5956:	d1f7      	bne.n	b5948 <_GLOBAL__sub_I__Z13leerSensorLuzv+0x5a8>
MFRC522 mfrc522(SS_PIN, RST_PIN);
   b5958:	4828      	ldr	r0, [pc, #160]	; (b59fc <_GLOBAL__sub_I__Z13leerSensorLuzv+0x65c>)
String secuencia[30];
   b595a:	4d29      	ldr	r5, [pc, #164]	; (b5a00 <_GLOBAL__sub_I__Z13leerSensorLuzv+0x660>)
   b595c:	4e0c      	ldr	r6, [pc, #48]	; (b5990 <_GLOBAL__sub_I__Z13leerSensorLuzv+0x5f0>)
MFRC522 mfrc522(SS_PIN, RST_PIN);
   b595e:	2208      	movs	r2, #8
   b5960:	2110      	movs	r1, #16
   b5962:	f002 f840 	bl	b79e6 <_ZN7MFRC522C1Ehh>
   b5966:	2400      	movs	r4, #0
String secuencia[30];
   b5968:	1928      	adds	r0, r5, r4
   b596a:	4631      	mov	r1, r6
   b596c:	3410      	adds	r4, #16
   b596e:	f003 fefc 	bl	b976a <_ZN6StringC1EPK19__FlashStringHelper>
   b5972:	f5b4 7ff0 	cmp.w	r4, #480	; 0x1e0
   b5976:	d1f7      	bne.n	b5968 <_GLOBAL__sub_I__Z13leerSensorLuzv+0x5c8>

class SystemSleepResult {
public:
    SystemSleepResult()
            : wakeupSource_(nullptr),
              error_(SYSTEM_ERROR_NONE) {
   b5978:	4b22      	ldr	r3, [pc, #136]	; (b5a04 <_GLOBAL__sub_I__Z13leerSensorLuzv+0x664>)
   b597a:	2200      	movs	r2, #0
   b597c:	e9c3 2200 	strd	r2, r2, [r3]
    SleepResult() {}
   b5980:	f5a2 3280 	sub.w	r2, r2, #65536	; 0x10000
   b5984:	609a      	str	r2, [r3, #8]
   b5986:	e8bd 4070 	ldmia.w	sp!, {r4, r5, r6, lr}

class SystemClass {
public:

    SystemClass(System_Mode_TypeDef mode = DEFAULT) {
        set_system_mode(mode);
   b598a:	2002      	movs	r0, #2
   b598c:	f003 bc80 	b.w	b9290 <set_system_mode>
   b5990:	000bafca 	.word	0x000bafca
   b5994:	2003e6a4 	.word	0x2003e6a4
   b5998:	000bb21c 	.word	0x000bb21c
   b599c:	2003e144 	.word	0x2003e144
   b59a0:	000bb222 	.word	0x000bb222
   b59a4:	2003e154 	.word	0x2003e154
   b59a8:	000bb228 	.word	0x000bb228
   b59ac:	2003e164 	.word	0x2003e164
   b59b0:	000bb22e 	.word	0x000bb22e
   b59b4:	2003e174 	.word	0x2003e174
   b59b8:	000bb234 	.word	0x000bb234
   b59bc:	2003e184 	.word	0x2003e184
   b59c0:	000bb23a 	.word	0x000bb23a
   b59c4:	2003e194 	.word	0x2003e194
   b59c8:	000bb240 	.word	0x000bb240
   b59cc:	2003e1a4 	.word	0x2003e1a4
   b59d0:	2003e1b4 	.word	0x2003e1b4
   b59d4:	000bb246 	.word	0x000bb246
   b59d8:	2003dc44 	.word	0x2003dc44
   b59dc:	000bb250 	.word	0x000bb250
   b59e0:	2003dc54 	.word	0x2003dc54
   b59e4:	000bb25b 	.word	0x000bb25b
   b59e8:	2003dc64 	.word	0x2003dc64
   b59ec:	000bb265 	.word	0x000bb265
   b59f0:	2003dc74 	.word	0x2003dc74
   b59f4:	000bb270 	.word	0x000bb270
   b59f8:	2003dc84 	.word	0x2003dc84
   b59fc:	2003d700 	.word	0x2003d700
   b5a00:	2003da58 	.word	0x2003da58
   b5a04:	2003cd24 	.word	0x2003cd24

000b5a08 <_Z10showBitmapii6String>:
void showBitmap(int id1, int id2, String msg) {
   b5a08:	e92d 41f0 	stmdb	sp!, {r4, r5, r6, r7, r8, lr}
   display.clearDisplay();
   b5a0c:	4f98      	ldr	r7, [pc, #608]	; (b5c70 <_Z10showBitmapii6String+0x268>)
void showBitmap(int id1, int id2, String msg) {
   b5a0e:	b088      	sub	sp, #32
   b5a10:	4606      	mov	r6, r0
   display.clearDisplay();
   b5a12:	4638      	mov	r0, r7
void showBitmap(int id1, int id2, String msg) {
   b5a14:	460c      	mov	r4, r1
   b5a16:	4615      	mov	r5, r2
   display.clearDisplay();
   b5a18:	f002 fea4 	bl	b8764 <_ZN16Adafruit_SSD130612clearDisplayEv>
    @brief  Set text cursor location
    @param  x    X coordinate in pixels
    @param  y    Y coordinate in pixels
  */
  /**********************************************************************/
  void setCursor(int16_t x, int16_t y) { cursor_x = x; cursor_y = y; }
   b5a1c:	2300      	movs	r3, #0
   b5a1e:	613b      	str	r3, [r7, #16]
   bitmap = true;
   b5a20:	4b94      	ldr	r3, [pc, #592]	; (b5c74 <_Z10showBitmapii6String+0x26c>)
   b5a22:	2201      	movs	r2, #1
   b5a24:	701a      	strb	r2, [r3, #0]
   b5a26:	f003 fadb 	bl	b8fe0 <HAL_Timer_Get_Milli_Seconds>
   startTime = millis();
   b5a2a:	4b93      	ldr	r3, [pc, #588]	; (b5c78 <_Z10showBitmapii6String+0x270>)
   b5a2c:	6018      	str	r0, [r3, #0]
   switch (id1)
   b5a2e:	2e03      	cmp	r6, #3
   b5a30:	d813      	bhi.n	b5a5a <_Z10showBitmapii6String+0x52>
   b5a32:	e8df f016 	tbh	[pc, r6, lsl #1]
   b5a36:	0004      	.short	0x0004
   b5a38:	00ed002a 	.word	0x00ed002a
   b5a3c:	0113      	.short	0x0113
      switch (id2)
   b5a3e:	2c01      	cmp	r4, #1
   b5a40:	d007      	beq.n	b5a52 <_Z10showBitmapii6String+0x4a>
   b5a42:	2c02      	cmp	r4, #2
   b5a44:	d007      	beq.n	b5a56 <_Z10showBitmapii6String+0x4e>
   b5a46:	b944      	cbnz	r4, b5a5a <_Z10showBitmapii6String+0x52>
         snprintf(buf, sizeof(buf), "MODO BASICO");
   b5a48:	498c      	ldr	r1, [pc, #560]	; (b5c7c <_Z10showBitmapii6String+0x274>)
         snprintf(buf, sizeof(buf), "Tarjeta invalida para este modo");
   b5a4a:	488d      	ldr	r0, [pc, #564]	; (b5c80 <_Z10showBitmapii6String+0x278>)
   b5a4c:	f005 f90c 	bl	bac68 <strcpy>
         break;
   b5a50:	e00c      	b.n	b5a6c <_Z10showBitmapii6String+0x64>
         snprintf(buf, sizeof(buf), "MODO AVANZADO");
   b5a52:	498c      	ldr	r1, [pc, #560]	; (b5c84 <_Z10showBitmapii6String+0x27c>)
   b5a54:	e7f9      	b.n	b5a4a <_Z10showBitmapii6String+0x42>
         snprintf(buf, sizeof(buf), "MODO MUSICA");
   b5a56:	498c      	ldr	r1, [pc, #560]	; (b5c88 <_Z10showBitmapii6String+0x280>)
   b5a58:	e7f7      	b.n	b5a4a <_Z10showBitmapii6String+0x42>
         snprintf(buf, sizeof(buf), "Bitmap not available.");
   b5a5a:	498c      	ldr	r1, [pc, #560]	; (b5c8c <_Z10showBitmapii6String+0x284>)
   b5a5c:	4888      	ldr	r0, [pc, #544]	; (b5c80 <_Z10showBitmapii6String+0x278>)
   b5a5e:	f005 f903 	bl	bac68 <strcpy>
         Serial.println("Bitmap not available.");
   b5a62:	f004 f951 	bl	b9d08 <_Z16_fetch_usbserialv>
   b5a66:	4989      	ldr	r1, [pc, #548]	; (b5c8c <_Z10showBitmapii6String+0x284>)
   b5a68:	f003 ff4d 	bl	b9906 <_ZN5Print7printlnEPKc>
   Serial.println(buf);
   b5a6c:	f004 f94c 	bl	b9d08 <_Z16_fetch_usbserialv>
   b5a70:	4983      	ldr	r1, [pc, #524]	; (b5c80 <_Z10showBitmapii6String+0x278>)
   b5a72:	f003 ff48 	bl	b9906 <_ZN5Print7printlnEPKc>
   display.print(buf);
   b5a76:	4982      	ldr	r1, [pc, #520]	; (b5c80 <_Z10showBitmapii6String+0x278>)
   b5a78:	487d      	ldr	r0, [pc, #500]	; (b5c70 <_Z10showBitmapii6String+0x268>)
   b5a7a:	f003 ff31 	bl	b98e0 <_ZN5Print5printEPKc>
   display.display();
   b5a7e:	487c      	ldr	r0, [pc, #496]	; (b5c70 <_Z10showBitmapii6String+0x268>)
}
   b5a80:	b008      	add	sp, #32
   b5a82:	e8bd 41f0 	ldmia.w	sp!, {r4, r5, r6, r7, r8, lr}
   display.display();
   b5a86:	f003 b8d5 	b.w	b8c34 <_ZN16Adafruit_SSD13067displayEv>
      switch (id2)
   b5a8a:	2c06      	cmp	r4, #6
   b5a8c:	d8e5      	bhi.n	b5a5a <_Z10showBitmapii6String+0x52>
   b5a8e:	e8df f004 	tbb	[pc, r4]
   b5a92:	3704      	.short	0x3704
   b5a94:	b0906c51 	.word	0xb0906c51
   b5a98:	bd          	.byte	0xbd
   b5a99:	00          	.byte	0x00
};

class StringSumHelper : public String
{
public:
	StringSumHelper(const String &s) : String(s) {}
   b5a9a:	4629      	mov	r1, r5
   b5a9c:	a804      	add	r0, sp, #16
   b5a9e:	f003 fe87 	bl	b97b0 <_ZN6StringC1ERKS_>
         snprintf(buf, sizeof(buf), msg+"     CONECTAR A:");
   b5aa2:	497b      	ldr	r1, [pc, #492]	; (b5c90 <_Z10showBitmapii6String+0x288>)
   b5aa4:	a804      	add	r0, sp, #16
   b5aa6:	f003 fed6 	bl	b9856 <_ZplRK15StringSumHelperPKc>
   b5aaa:	2140      	movs	r1, #64	; 0x40
   b5aac:	6802      	ldr	r2, [r0, #0]
   b5aae:	4874      	ldr	r0, [pc, #464]	; (b5c80 <_Z10showBitmapii6String+0x278>)
   b5ab0:	f003 fc9a 	bl	b93e8 <snprintf>
class StringSumHelper : public String
   b5ab4:	a804      	add	r0, sp, #16
   b5ab6:	f003 fe0d 	bl	b96d4 <_ZN6StringD1Ev>
         display.fillTriangle(40, 40, 50, 20, 50, 60,WHITE);
   b5aba:	2414      	movs	r4, #20
   b5abc:	2501      	movs	r5, #1
   b5abe:	2632      	movs	r6, #50	; 0x32
   b5ac0:	2228      	movs	r2, #40	; 0x28
   b5ac2:	f04f 083c 	mov.w	r8, #60	; 0x3c
   b5ac6:	4611      	mov	r1, r2
   b5ac8:	4869      	ldr	r0, [pc, #420]	; (b5c70 <_Z10showBitmapii6String+0x268>)
   b5aca:	4633      	mov	r3, r6
         display.fillRect(50,20,20,40,WHITE);
   b5acc:	2728      	movs	r7, #40	; 0x28
         display.fillTriangle(40, 40, 50, 20, 50, 60,WHITE);
   b5ace:	e9cd 8502 	strd	r8, r5, [sp, #8]
   b5ad2:	e9cd 4600 	strd	r4, r6, [sp]
   b5ad6:	f001 fc53 	bl	b7380 <_ZN12Adafruit_GFX12fillTriangleEsssssst>
         display.fillRect(50,20,20,40,WHITE);
   b5ada:	4623      	mov	r3, r4
   b5adc:	4622      	mov	r2, r4
   b5ade:	4631      	mov	r1, r6
   b5ae0:	4863      	ldr	r0, [pc, #396]	; (b5c70 <_Z10showBitmapii6String+0x268>)
   b5ae2:	9501      	str	r5, [sp, #4]
   b5ae4:	9700      	str	r7, [sp, #0]
   b5ae6:	f001 faaa 	bl	b703e <_ZN12Adafruit_GFX8fillRectEsssst>
         display.fillTriangle(70, 20, 80, 40, 70, 60,WHITE);
   b5aea:	2146      	movs	r1, #70	; 0x46
   b5aec:	e9cd 8502 	strd	r8, r5, [sp, #8]
   b5af0:	e9cd 7100 	strd	r7, r1, [sp]
   b5af4:	2350      	movs	r3, #80	; 0x50
   b5af6:	4622      	mov	r2, r4
         display.fillTriangle(60, 20, 30, 100, 90, 100,WHITE);
   b5af8:	485d      	ldr	r0, [pc, #372]	; (b5c70 <_Z10showBitmapii6String+0x268>)
   b5afa:	f001 fc41 	bl	b7380 <_ZN12Adafruit_GFX12fillTriangleEsssssst>
         break;
   b5afe:	e7b5      	b.n	b5a6c <_Z10showBitmapii6String+0x64>
	StringSumHelper(const String &s) : String(s) {}
   b5b00:	4629      	mov	r1, r5
   b5b02:	a804      	add	r0, sp, #16
   b5b04:	f003 fe54 	bl	b97b0 <_ZN6StringC1ERKS_>
         snprintf(buf, sizeof(buf), msg+"     CONECTAR A:");
   b5b08:	4961      	ldr	r1, [pc, #388]	; (b5c90 <_Z10showBitmapii6String+0x288>)
   b5b0a:	a804      	add	r0, sp, #16
   b5b0c:	f003 fea3 	bl	b9856 <_ZplRK15StringSumHelperPKc>
   b5b10:	2140      	movs	r1, #64	; 0x40
   b5b12:	6802      	ldr	r2, [r0, #0]
   b5b14:	485a      	ldr	r0, [pc, #360]	; (b5c80 <_Z10showBitmapii6String+0x278>)
   b5b16:	f003 fc67 	bl	b93e8 <snprintf>
class StringSumHelper : public String
   b5b1a:	a804      	add	r0, sp, #16
   b5b1c:	f003 fdda 	bl	b96d4 <_ZN6StringD1Ev>
         display.fillRect(40,20,40,40,WHITE);
   b5b20:	2328      	movs	r3, #40	; 0x28
   b5b22:	2001      	movs	r0, #1
   b5b24:	e9cd 3000 	strd	r3, r0, [sp]
   b5b28:	2214      	movs	r2, #20
   b5b2a:	4619      	mov	r1, r3
         display.fillRect(10,50,90,40,BLACK);
   b5b2c:	4850      	ldr	r0, [pc, #320]	; (b5c70 <_Z10showBitmapii6String+0x268>)
   b5b2e:	f001 fa86 	bl	b703e <_ZN12Adafruit_GFX8fillRectEsssst>
         break;
   b5b32:	e79b      	b.n	b5a6c <_Z10showBitmapii6String+0x64>
	StringSumHelper(const String &s) : String(s) {}
   b5b34:	4629      	mov	r1, r5
   b5b36:	a804      	add	r0, sp, #16
   b5b38:	f003 fe3a 	bl	b97b0 <_ZN6StringC1ERKS_>
         snprintf(buf, sizeof(buf), msg+"     CONECTAR A:");
   b5b3c:	4954      	ldr	r1, [pc, #336]	; (b5c90 <_Z10showBitmapii6String+0x288>)
   b5b3e:	a804      	add	r0, sp, #16
   b5b40:	f003 fe89 	bl	b9856 <_ZplRK15StringSumHelperPKc>
   b5b44:	2140      	movs	r1, #64	; 0x40
   b5b46:	6802      	ldr	r2, [r0, #0]
   b5b48:	484d      	ldr	r0, [pc, #308]	; (b5c80 <_Z10showBitmapii6String+0x278>)
   b5b4a:	f003 fc4d 	bl	b93e8 <snprintf>
class StringSumHelper : public String
   b5b4e:	a804      	add	r0, sp, #16
   b5b50:	f003 fdc0 	bl	b96d4 <_ZN6StringD1Ev>
         display.fillTriangle(60, 20, 30, 100, 90, 100,WHITE);
   b5b54:	2364      	movs	r3, #100	; 0x64
   b5b56:	225a      	movs	r2, #90	; 0x5a
   b5b58:	2101      	movs	r1, #1
   b5b5a:	e9cd 3200 	strd	r3, r2, [sp]
   b5b5e:	e9cd 3102 	strd	r3, r1, [sp, #8]
   b5b62:	2214      	movs	r2, #20
   b5b64:	231e      	movs	r3, #30
   b5b66:	213c      	movs	r1, #60	; 0x3c
   b5b68:	e7c6      	b.n	b5af8 <_Z10showBitmapii6String+0xf0>
	StringSumHelper(const String &s) : String(s) {}
   b5b6a:	4629      	mov	r1, r5
   b5b6c:	a804      	add	r0, sp, #16
   b5b6e:	f003 fe1f 	bl	b97b0 <_ZN6StringC1ERKS_>
         snprintf(buf, sizeof(buf), msg+"     CONECTAR A:");
   b5b72:	4947      	ldr	r1, [pc, #284]	; (b5c90 <_Z10showBitmapii6String+0x288>)
   b5b74:	a804      	add	r0, sp, #16
   b5b76:	f003 fe6e 	bl	b9856 <_ZplRK15StringSumHelperPKc>
   b5b7a:	2140      	movs	r1, #64	; 0x40
   b5b7c:	6802      	ldr	r2, [r0, #0]
   b5b7e:	4840      	ldr	r0, [pc, #256]	; (b5c80 <_Z10showBitmapii6String+0x278>)
   b5b80:	f003 fc32 	bl	b93e8 <snprintf>
         display.fillTriangle(60, 20, 52, 40, 67, 40,WHITE);
   b5b84:	2428      	movs	r4, #40	; 0x28
   b5b86:	2601      	movs	r6, #1
   b5b88:	2543      	movs	r5, #67	; 0x43
class StringSumHelper : public String
   b5b8a:	a804      	add	r0, sp, #16
   b5b8c:	f003 fda2 	bl	b96d4 <_ZN6StringD1Ev>
   b5b90:	2334      	movs	r3, #52	; 0x34
   b5b92:	2214      	movs	r2, #20
   b5b94:	e9cd 4602 	strd	r4, r6, [sp, #8]
   b5b98:	e9cd 4500 	strd	r4, r5, [sp]
   b5b9c:	4834      	ldr	r0, [pc, #208]	; (b5c70 <_Z10showBitmapii6String+0x268>)
   b5b9e:	213c      	movs	r1, #60	; 0x3c
   b5ba0:	f001 fbee 	bl	b7380 <_ZN12Adafruit_GFX12fillTriangleEsssssst>
         display.fillTriangle(60, 60, 52, 40, 67, 40,WHITE);
   b5ba4:	e9cd 4602 	strd	r4, r6, [sp, #8]
   b5ba8:	e9cd 4500 	strd	r4, r5, [sp]
   b5bac:	2334      	movs	r3, #52	; 0x34
   b5bae:	223c      	movs	r2, #60	; 0x3c
   b5bb0:	e7d9      	b.n	b5b66 <_Z10showBitmapii6String+0x15e>
	StringSumHelper(const String &s) : String(s) {}
   b5bb2:	4629      	mov	r1, r5
   b5bb4:	a804      	add	r0, sp, #16
   b5bb6:	f003 fdfb 	bl	b97b0 <_ZN6StringC1ERKS_>
         snprintf(buf, sizeof(buf), msg+"     CONECTAR A:");
   b5bba:	4935      	ldr	r1, [pc, #212]	; (b5c90 <_Z10showBitmapii6String+0x288>)
   b5bbc:	a804      	add	r0, sp, #16
   b5bbe:	f003 fe4a 	bl	b9856 <_ZplRK15StringSumHelperPKc>
   b5bc2:	2140      	movs	r1, #64	; 0x40
   b5bc4:	6802      	ldr	r2, [r0, #0]
   b5bc6:	482e      	ldr	r0, [pc, #184]	; (b5c80 <_Z10showBitmapii6String+0x278>)
   b5bc8:	f003 fc0e 	bl	b93e8 <snprintf>
class StringSumHelper : public String
   b5bcc:	a804      	add	r0, sp, #16
   b5bce:	f003 fd81 	bl	b96d4 <_ZN6StringD1Ev>
         display.fillCircle(60,50,15,WHITE);
   b5bd2:	2301      	movs	r3, #1
   b5bd4:	9300      	str	r3, [sp, #0]
   b5bd6:	2232      	movs	r2, #50	; 0x32
   b5bd8:	230f      	movs	r3, #15
   b5bda:	213c      	movs	r1, #60	; 0x3c
   b5bdc:	4824      	ldr	r0, [pc, #144]	; (b5c70 <_Z10showBitmapii6String+0x268>)
   b5bde:	f001 fba4 	bl	b732a <_ZN12Adafruit_GFX10fillCircleEssst>
         display.fillRect(10,50,90,40,BLACK);
   b5be2:	2328      	movs	r3, #40	; 0x28
   b5be4:	2200      	movs	r2, #0
   b5be6:	e9cd 3200 	strd	r3, r2, [sp]
   b5bea:	210a      	movs	r1, #10
   b5bec:	235a      	movs	r3, #90	; 0x5a
   b5bee:	2232      	movs	r2, #50	; 0x32
   b5bf0:	e79c      	b.n	b5b2c <_Z10showBitmapii6String+0x124>
         snprintf(buf, sizeof(buf), "     CONECTAR A:");
   b5bf2:	4927      	ldr	r1, [pc, #156]	; (b5c90 <_Z10showBitmapii6String+0x288>)
   b5bf4:	4822      	ldr	r0, [pc, #136]	; (b5c80 <_Z10showBitmapii6String+0x278>)
   b5bf6:	f005 f837 	bl	bac68 <strcpy>
         display.fillCircle(60,40,15,WHITE);
   b5bfa:	2301      	movs	r3, #1
   b5bfc:	9300      	str	r3, [sp, #0]
   b5bfe:	481c      	ldr	r0, [pc, #112]	; (b5c70 <_Z10showBitmapii6String+0x268>)
   b5c00:	230f      	movs	r3, #15
   b5c02:	2228      	movs	r2, #40	; 0x28
   b5c04:	213c      	movs	r1, #60	; 0x3c
   b5c06:	f001 fb90 	bl	b732a <_ZN12Adafruit_GFX10fillCircleEssst>
         break;
   b5c0a:	e72f      	b.n	b5a6c <_Z10showBitmapii6String+0x64>
         snprintf(buf, sizeof(buf), "YA CONECTADO");
   b5c0c:	4921      	ldr	r1, [pc, #132]	; (b5c94 <_Z10showBitmapii6String+0x28c>)
   b5c0e:	e71c      	b.n	b5a4a <_Z10showBitmapii6String+0x42>
      switch (id2)
   b5c10:	2c06      	cmp	r4, #6
   b5c12:	f63f af22 	bhi.w	b5a5a <_Z10showBitmapii6String+0x52>
   b5c16:	e8df f004 	tbb	[pc, r4]
   b5c1a:	0604      	.short	0x0604
   b5c1c:	1d0c0a08 	.word	0x1d0c0a08
   b5c20:	1f          	.byte	0x1f
   b5c21:	00          	.byte	0x00
         snprintf(buf, sizeof(buf), "Tarjeta invalida para este modo");
   b5c22:	491d      	ldr	r1, [pc, #116]	; (b5c98 <_Z10showBitmapii6String+0x290>)
   b5c24:	e711      	b.n	b5a4a <_Z10showBitmapii6String+0x42>
         snprintf(buf, sizeof(buf), "Borrado invalido para este modo");
   b5c26:	491d      	ldr	r1, [pc, #116]	; (b5c9c <_Z10showBitmapii6String+0x294>)
   b5c28:	e70f      	b.n	b5a4a <_Z10showBitmapii6String+0x42>
         snprintf(buf, sizeof(buf), "Orden de tarjetas invalido");
   b5c2a:	491d      	ldr	r1, [pc, #116]	; (b5ca0 <_Z10showBitmapii6String+0x298>)
   b5c2c:	e70d      	b.n	b5a4a <_Z10showBitmapii6String+0x42>
         snprintf(buf, sizeof(buf), "Puerto no disponible");
   b5c2e:	491d      	ldr	r1, [pc, #116]	; (b5ca4 <_Z10showBitmapii6String+0x29c>)
   b5c30:	e70b      	b.n	b5a4a <_Z10showBitmapii6String+0x42>
	StringSumHelper(const char *p) : String(p) {}
   b5c32:	491d      	ldr	r1, [pc, #116]	; (b5ca8 <_Z10showBitmapii6String+0x2a0>)
   b5c34:	a804      	add	r0, sp, #16
   b5c36:	f003 fd98 	bl	b976a <_ZN6StringC1EPK19__FlashStringHelper>
         snprintf(buf, sizeof(buf), "Play no disponible"+msg);
   b5c3a:	4629      	mov	r1, r5
   b5c3c:	a804      	add	r0, sp, #16
   b5c3e:	f003 fdfe 	bl	b983e <_ZplRK15StringSumHelperRK6String>
   b5c42:	2140      	movs	r1, #64	; 0x40
   b5c44:	6802      	ldr	r2, [r0, #0]
   b5c46:	480e      	ldr	r0, [pc, #56]	; (b5c80 <_Z10showBitmapii6String+0x278>)
   b5c48:	f003 fbce 	bl	b93e8 <snprintf>
class StringSumHelper : public String
   b5c4c:	a804      	add	r0, sp, #16
   b5c4e:	f003 fd41 	bl	b96d4 <_ZN6StringD1Ev>
         break;
   b5c52:	e70b      	b.n	b5a6c <_Z10showBitmapii6String+0x64>
         snprintf(buf, sizeof(buf), "Sensor no disponible (en uso)");
   b5c54:	4915      	ldr	r1, [pc, #84]	; (b5cac <_Z10showBitmapii6String+0x2a4>)
   b5c56:	e6f8      	b.n	b5a4a <_Z10showBitmapii6String+0x42>
         snprintf(buf, sizeof(buf), "Actuador no disponible (en uso)");
   b5c58:	4915      	ldr	r1, [pc, #84]	; (b5cb0 <_Z10showBitmapii6String+0x2a8>)
   b5c5a:	e6f6      	b.n	b5a4a <_Z10showBitmapii6String+0x42>
      switch (id2)
   b5c5c:	2c00      	cmp	r4, #0
   b5c5e:	f47f aefc 	bne.w	b5a5a <_Z10showBitmapii6String+0x52>
         snprintf(buf, sizeof(buf), msg);
   b5c62:	682a      	ldr	r2, [r5, #0]
   b5c64:	4806      	ldr	r0, [pc, #24]	; (b5c80 <_Z10showBitmapii6String+0x278>)
   b5c66:	2140      	movs	r1, #64	; 0x40
   b5c68:	f003 fbbe 	bl	b93e8 <snprintf>
         break;
   b5c6c:	e6fe      	b.n	b5a6c <_Z10showBitmapii6String+0x64>
   b5c6e:	bf00      	nop
   b5c70:	2003d358 	.word	0x2003d358
   b5c74:	2003cd31 	.word	0x2003cd31
   b5c78:	2003dc38 	.word	0x2003dc38
   b5c7c:	000bb27b 	.word	0x000bb27b
   b5c80:	2003d30d 	.word	0x2003d30d
   b5c84:	000bb287 	.word	0x000bb287
   b5c88:	000bb295 	.word	0x000bb295
   b5c8c:	000bb2a1 	.word	0x000bb2a1
   b5c90:	000bb2b7 	.word	0x000bb2b7
   b5c94:	000bb2c8 	.word	0x000bb2c8
   b5c98:	000bb2d5 	.word	0x000bb2d5
   b5c9c:	000bb2f5 	.word	0x000bb2f5
   b5ca0:	000bb315 	.word	0x000bb315
   b5ca4:	000bb330 	.word	0x000bb330
   b5ca8:	000bb345 	.word	0x000bb345
   b5cac:	000bb358 	.word	0x000bb358
   b5cb0:	000bb376 	.word	0x000bb376

000b5cb4 <_Z8showPortii>:
void showPort(int id, int puerto ) {
   b5cb4:	b51f      	push	{r0, r1, r2, r3, r4, lr}
   if (tagInfo[2]==0) { // A0, A2, A4
   b5cb6:	4b24      	ldr	r3, [pc, #144]	; (b5d48 <_Z8showPortii+0x94>)
   b5cb8:	689b      	ldr	r3, [r3, #8]
   b5cba:	bb4b      	cbnz	r3, b5d10 <_Z8showPortii+0x5c>
      switch (puerto)
   b5cbc:	2902      	cmp	r1, #2
   b5cbe:	d011      	beq.n	b5ce4 <_Z8showPortii+0x30>
   b5cc0:	2904      	cmp	r1, #4
   b5cc2:	d016      	beq.n	b5cf2 <_Z8showPortii+0x3e>
   b5cc4:	b9e1      	cbnz	r1, b5d00 <_Z8showPortii+0x4c>
         showBitmap(1,3,"");
   b5cc6:	4921      	ldr	r1, [pc, #132]	; (b5d4c <_Z8showPortii+0x98>)
   b5cc8:	4668      	mov	r0, sp
   b5cca:	f003 fd4e 	bl	b976a <_ZN6StringC1EPK19__FlashStringHelper>
   b5cce:	466a      	mov	r2, sp
   b5cd0:	2103      	movs	r1, #3
         showBitmap(1,2,"");
   b5cd2:	2001      	movs	r0, #1
         showBitmap(2,3,""); //PUERTO NO DISPO.
   b5cd4:	f7ff fe98 	bl	b5a08 <_Z10showBitmapii6String>
   b5cd8:	4668      	mov	r0, sp
   b5cda:	f003 fcfb 	bl	b96d4 <_ZN6StringD1Ev>
}
   b5cde:	b005      	add	sp, #20
   b5ce0:	f85d fb04 	ldr.w	pc, [sp], #4
         showBitmap(1,4,"");
   b5ce4:	4919      	ldr	r1, [pc, #100]	; (b5d4c <_Z8showPortii+0x98>)
   b5ce6:	4668      	mov	r0, sp
   b5ce8:	f003 fd3f 	bl	b976a <_ZN6StringC1EPK19__FlashStringHelper>
   b5cec:	466a      	mov	r2, sp
   b5cee:	2104      	movs	r1, #4
   b5cf0:	e7ef      	b.n	b5cd2 <_Z8showPortii+0x1e>
         showBitmap(1,5,"");
   b5cf2:	4916      	ldr	r1, [pc, #88]	; (b5d4c <_Z8showPortii+0x98>)
   b5cf4:	4668      	mov	r0, sp
   b5cf6:	f003 fd38 	bl	b976a <_ZN6StringC1EPK19__FlashStringHelper>
   b5cfa:	466a      	mov	r2, sp
   b5cfc:	2105      	movs	r1, #5
   b5cfe:	e7e8      	b.n	b5cd2 <_Z8showPortii+0x1e>
         showBitmap(2,3,""); //PUERTO NO DISPO.
   b5d00:	4912      	ldr	r1, [pc, #72]	; (b5d4c <_Z8showPortii+0x98>)
   b5d02:	4668      	mov	r0, sp
         showBitmap(2,3,""); //PUERTO NO DISPO.
   b5d04:	f003 fd31 	bl	b976a <_ZN6StringC1EPK19__FlashStringHelper>
   b5d08:	466a      	mov	r2, sp
   b5d0a:	2103      	movs	r1, #3
   b5d0c:	2002      	movs	r0, #2
   b5d0e:	e7e1      	b.n	b5cd4 <_Z8showPortii+0x20>
      switch (puerto)
   b5d10:	2904      	cmp	r1, #4
   b5d12:	d00a      	beq.n	b5d2a <_Z8showPortii+0x76>
   b5d14:	2906      	cmp	r1, #6
   b5d16:	d00f      	beq.n	b5d38 <_Z8showPortii+0x84>
   b5d18:	2902      	cmp	r1, #2
         showBitmap(2,3,""); //PUERTO NO DISPO.
   b5d1a:	4668      	mov	r0, sp
   b5d1c:	490b      	ldr	r1, [pc, #44]	; (b5d4c <_Z8showPortii+0x98>)
      switch (puerto)
   b5d1e:	d1f1      	bne.n	b5d04 <_Z8showPortii+0x50>
         showBitmap(1,0,"");
   b5d20:	f003 fd23 	bl	b976a <_ZN6StringC1EPK19__FlashStringHelper>
   b5d24:	466a      	mov	r2, sp
   b5d26:	2100      	movs	r1, #0
   b5d28:	e7d3      	b.n	b5cd2 <_Z8showPortii+0x1e>
         showBitmap(1,1,"");
   b5d2a:	4908      	ldr	r1, [pc, #32]	; (b5d4c <_Z8showPortii+0x98>)
   b5d2c:	4668      	mov	r0, sp
   b5d2e:	f003 fd1c 	bl	b976a <_ZN6StringC1EPK19__FlashStringHelper>
   b5d32:	466a      	mov	r2, sp
   b5d34:	2101      	movs	r1, #1
   b5d36:	e7cc      	b.n	b5cd2 <_Z8showPortii+0x1e>
         showBitmap(1,2,"");
   b5d38:	4904      	ldr	r1, [pc, #16]	; (b5d4c <_Z8showPortii+0x98>)
   b5d3a:	4668      	mov	r0, sp
   b5d3c:	f003 fd15 	bl	b976a <_ZN6StringC1EPK19__FlashStringHelper>
   b5d40:	466a      	mov	r2, sp
   b5d42:	2102      	movs	r1, #2
   b5d44:	e7c5      	b.n	b5cd2 <_Z8showPortii+0x1e>
   b5d46:	bf00      	nop
   b5d48:	2003cc8c 	.word	0x2003cc8c
   b5d4c:	000bafca 	.word	0x000bafca

000b5d50 <_Z13borradoBLOQUEi>:
   switch (modo)
   b5d50:	2801      	cmp	r0, #1
{
   b5d52:	b57f      	push	{r0, r1, r2, r3, r4, r5, r6, lr}
   switch (modo)
   b5d54:	d003      	beq.n	b5d5e <_Z13borradoBLOQUEi+0xe>
   b5d56:	2802      	cmp	r0, #2
   b5d58:	d03c      	beq.n	b5dd4 <_Z13borradoBLOQUEi+0x84>
}
   b5d5a:	b004      	add	sp, #16
   b5d5c:	bd70      	pop	{r4, r5, r6, pc}
      if (numBloque==0) {
   b5d5e:	4b37      	ldr	r3, [pc, #220]	; (b5e3c <_Z13borradoBLOQUEi+0xec>)
   b5d60:	681c      	ldr	r4, [r3, #0]
   b5d62:	b974      	cbnz	r4, b5d82 <_Z13borradoBLOQUEi+0x32>
   switch (modo)
   b5d64:	f7fe f9b0 	bl	b40c8 <_Z10borradoALLi.part.0>
         showBitmap(3,0,"Borrado de bloque realizado");
   b5d68:	4935      	ldr	r1, [pc, #212]	; (b5e40 <_Z13borradoBLOQUEi+0xf0>)
   b5d6a:	4668      	mov	r0, sp
   b5d6c:	f003 fcfd 	bl	b976a <_ZN6StringC1EPK19__FlashStringHelper>
   b5d70:	466a      	mov	r2, sp
   b5d72:	2100      	movs	r1, #0
   b5d74:	2003      	movs	r0, #3
   b5d76:	f7ff fe47 	bl	b5a08 <_Z10showBitmapii6String>
   b5d7a:	4668      	mov	r0, sp
   b5d7c:	f003 fcaa 	bl	b96d4 <_ZN6StringD1Ev>
   b5d80:	e7eb      	b.n	b5d5a <_Z13borradoBLOQUEi+0xa>
      } else if (numBloque==1) {
   b5d82:	2c01      	cmp	r4, #1
   b5d84:	d11e      	bne.n	b5dc4 <_Z13borradoBLOQUEi+0x74>
         IF_pasado = false;
   b5d86:	2200      	movs	r2, #0
         numBloque = 0;
   b5d88:	601a      	str	r2, [r3, #0]
         IF_pasado = false;
   b5d8a:	492e      	ldr	r1, [pc, #184]	; (b5e44 <_Z13borradoBLOQUEi+0xf4>)
         THEN_pasado = true;           //Para permitir la ejecucion del primer bloque
   b5d8c:	4b2e      	ldr	r3, [pc, #184]	; (b5e48 <_Z13borradoBLOQUEi+0xf8>)
         IF_pasado = false;
   b5d8e:	700a      	strb	r2, [r1, #0]
         THEN_pasado = true;           //Para permitir la ejecucion del primer bloque
   b5d90:	701c      	strb	r4, [r3, #0]
         if (puertoAnalogico == -1){   
   b5d92:	4a2e      	ldr	r2, [pc, #184]	; (b5e4c <_Z13borradoBLOQUEi+0xfc>)
         numActuadoresBloque = 1;      //Para permitir iniciar el segundo bloque
   b5d94:	4b2e      	ldr	r3, [pc, #184]	; (b5e50 <_Z13borradoBLOQUEi+0x100>)
         puertoAnalogico -= puertoAnalogico_bloque;
   b5d96:	482f      	ldr	r0, [pc, #188]	; (b5e54 <_Z13borradoBLOQUEi+0x104>)
         numActuadoresBloque = 1;      //Para permitir iniciar el segundo bloque
   b5d98:	601c      	str	r4, [r3, #0]
         if (puertoAnalogico == -1){   
   b5d9a:	6813      	ldr	r3, [r2, #0]
         puertoAnalogico -= puertoAnalogico_bloque;
   b5d9c:	6800      	ldr	r0, [r0, #0]
         if (puertoAnalogico == -1){   
   b5d9e:	3301      	adds	r3, #1
            puertoAnalogico=3;
   b5da0:	bf04      	itt	eq
   b5da2:	2303      	moveq	r3, #3
   b5da4:	6013      	streq	r3, [r2, #0]
         if (puertoDigital == -1){
   b5da6:	4b2c      	ldr	r3, [pc, #176]	; (b5e58 <_Z13borradoBLOQUEi+0x108>)
   b5da8:	6819      	ldr	r1, [r3, #0]
   b5daa:	3101      	adds	r1, #1
            puertoDigital=6;
   b5dac:	bf04      	itt	eq
   b5dae:	2106      	moveq	r1, #6
   b5db0:	6019      	streq	r1, [r3, #0]
         puertoAnalogico -= puertoAnalogico_bloque;
   b5db2:	6811      	ldr	r1, [r2, #0]
   b5db4:	1a09      	subs	r1, r1, r0
   b5db6:	6011      	str	r1, [r2, #0]
         puertoDigital -= puertoDigital_bloque;
   b5db8:	4928      	ldr	r1, [pc, #160]	; (b5e5c <_Z13borradoBLOQUEi+0x10c>)
   b5dba:	681a      	ldr	r2, [r3, #0]
   b5dbc:	6809      	ldr	r1, [r1, #0]
   b5dbe:	1a52      	subs	r2, r2, r1
   b5dc0:	601a      	str	r2, [r3, #0]
   b5dc2:	e7d1      	b.n	b5d68 <_Z13borradoBLOQUEi+0x18>
         Serial.println("Nada que borrar");
   b5dc4:	f003 ffa0 	bl	b9d08 <_Z16_fetch_usbserialv>
   b5dc8:	4925      	ldr	r1, [pc, #148]	; (b5e60 <_Z13borradoBLOQUEi+0x110>)
}
   b5dca:	b004      	add	sp, #16
   b5dcc:	e8bd 4070 	ldmia.w	sp!, {r4, r5, r6, lr}
         Serial.println("Nada que borrar");
   b5dd0:	f003 bd99 	b.w	b9906 <_ZN5Print7printlnEPKc>
      if (bucle) {
   b5dd4:	4e23      	ldr	r6, [pc, #140]	; (b5e64 <_Z13borradoBLOQUEi+0x114>)
         posicion = posicion - (tam_bucle+1);
   b5dd6:	4a24      	ldr	r2, [pc, #144]	; (b5e68 <_Z13borradoBLOQUEi+0x118>)
      if (bucle) {
   b5dd8:	7834      	ldrb	r4, [r6, #0]
         posicion = posicion - (tam_bucle+1);
   b5dda:	6813      	ldr	r3, [r2, #0]
   b5ddc:	4d23      	ldr	r5, [pc, #140]	; (b5e6c <_Z13borradoBLOQUEi+0x11c>)
      if (bucle) {
   b5dde:	b19c      	cbz	r4, b5e08 <_Z13borradoBLOQUEi+0xb8>
         posicion = posicion - (tam_bucle+1);
   b5de0:	6829      	ldr	r1, [r5, #0]
   b5de2:	3101      	adds	r1, #1
   b5de4:	1a5b      	subs	r3, r3, r1
         showBitmap(3,0,"Borrado de loop realizado");
   b5de6:	4668      	mov	r0, sp
   b5de8:	4921      	ldr	r1, [pc, #132]	; (b5e70 <_Z13borradoBLOQUEi+0x120>)
         posicion = posicion - (tam_bucle+1);
   b5dea:	6013      	str	r3, [r2, #0]
         showBitmap(3,0,"Borrado de loop realizado");
   b5dec:	f003 fcbd 	bl	b976a <_ZN6StringC1EPK19__FlashStringHelper>
   b5df0:	466a      	mov	r2, sp
   b5df2:	2100      	movs	r1, #0
         showBitmap(3,0,"Nada que borrar.");
   b5df4:	2003      	movs	r0, #3
   b5df6:	f7ff fe07 	bl	b5a08 <_Z10showBitmapii6String>
   b5dfa:	4668      	mov	r0, sp
   b5dfc:	f003 fc6a 	bl	b96d4 <_ZN6StringD1Ev>
      bucle = false;
   b5e00:	2300      	movs	r3, #0
   b5e02:	7033      	strb	r3, [r6, #0]
      tam_bucle = 0;
   b5e04:	602b      	str	r3, [r5, #0]
}
   b5e06:	e7a8      	b.n	b5d5a <_Z13borradoBLOQUEi+0xa>
      } else if ( notas[posicion-1] == -2 ) {
   b5e08:	481a      	ldr	r0, [pc, #104]	; (b5e74 <_Z13borradoBLOQUEi+0x124>)
   b5e0a:	1e59      	subs	r1, r3, #1
   b5e0c:	f850 0021 	ldr.w	r0, [r0, r1, lsl #2]
   b5e10:	3002      	adds	r0, #2
   b5e12:	d10c      	bne.n	b5e2e <_Z13borradoBLOQUEi+0xde>
         posicion = posicion - (duraciones[posicion-1]+2);
   b5e14:	4818      	ldr	r0, [pc, #96]	; (b5e78 <_Z13borradoBLOQUEi+0x128>)
   b5e16:	f850 1021 	ldr.w	r1, [r0, r1, lsl #2]
   b5e1a:	3102      	adds	r1, #2
   b5e1c:	1a5b      	subs	r3, r3, r1
         showBitmap(3,0,"Borrado de loop realizado");
   b5e1e:	4914      	ldr	r1, [pc, #80]	; (b5e70 <_Z13borradoBLOQUEi+0x120>)
         posicion = posicion - (duraciones[posicion-1]+2);
   b5e20:	6013      	str	r3, [r2, #0]
         showBitmap(3,0,"Nada que borrar.");
   b5e22:	4668      	mov	r0, sp
   b5e24:	f003 fca1 	bl	b976a <_ZN6StringC1EPK19__FlashStringHelper>
   b5e28:	466a      	mov	r2, sp
   b5e2a:	4621      	mov	r1, r4
   b5e2c:	e7e2      	b.n	b5df4 <_Z13borradoBLOQUEi+0xa4>
         Serial.println("Nada que borrar.");
   b5e2e:	f003 ff6b 	bl	b9d08 <_Z16_fetch_usbserialv>
   b5e32:	4912      	ldr	r1, [pc, #72]	; (b5e7c <_Z13borradoBLOQUEi+0x12c>)
   b5e34:	f003 fd67 	bl	b9906 <_ZN5Print7printlnEPKc>
         showBitmap(3,0,"Nada que borrar.");
   b5e38:	4910      	ldr	r1, [pc, #64]	; (b5e7c <_Z13borradoBLOQUEi+0x12c>)
   b5e3a:	e7f2      	b.n	b5e22 <_Z13borradoBLOQUEi+0xd2>
   b5e3c:	2003cc84 	.word	0x2003cc84
   b5e40:	000bb396 	.word	0x000bb396
   b5e44:	2003cd21 	.word	0x2003cd21
   b5e48:	2003cd30 	.word	0x2003cd30
   b5e4c:	2003da48 	.word	0x2003da48
   b5e50:	2003da30 	.word	0x2003da30
   b5e54:	2003da4c 	.word	0x2003da4c
   b5e58:	2003cc88 	.word	0x2003cc88
   b5e5c:	2003da50 	.word	0x2003da50
   b5e60:	000bb3b2 	.word	0x000bb3b2
   b5e64:	2003d30c 	.word	0x2003d30c
   b5e68:	2003da40 	.word	0x2003da40
   b5e6c:	2003dc40 	.word	0x2003dc40
   b5e70:	000bb3c2 	.word	0x000bb3c2
   b5e74:	2003d710 	.word	0x2003d710
   b5e78:	2003d3c8 	.word	0x2003d3c8
   b5e7c:	000bb3dc 	.word	0x000bb3dc

000b5e80 <_Z10reproducirv>:
void reproducir() {
   b5e80:	e92d 47ff 	stmdb	sp!, {r0, r1, r2, r3, r4, r5, r6, r7, r8, r9, sl, lr}
   if (!bucle) {
   b5e84:	4b1e      	ldr	r3, [pc, #120]	; (b5f00 <_Z10reproducirv+0x80>)
   b5e86:	781c      	ldrb	r4, [r3, #0]
   b5e88:	bb34      	cbnz	r4, b5ed8 <_Z10reproducirv+0x58>
      while ( i < posicion) {
   b5e8a:	f8df a08c 	ldr.w	sl, [pc, #140]	; b5f18 <_Z10reproducirv+0x98>
         Serial.printlnf("%d - %d", notas[i], duraciones[i]);
   b5e8e:	4e1d      	ldr	r6, [pc, #116]	; (b5f04 <_Z10reproducirv+0x84>)
   b5e90:	4f1d      	ldr	r7, [pc, #116]	; (b5f08 <_Z10reproducirv+0x88>)
      while ( i < posicion) {
   b5e92:	f8da 3000 	ldr.w	r3, [sl]
   b5e96:	42a3      	cmp	r3, r4
   b5e98:	dd2f      	ble.n	b5efa <_Z10reproducirv+0x7a>
         Serial.printlnf("%d - %d", notas[i], duraciones[i]);
   b5e9a:	f003 ff35 	bl	b9d08 <_Z16_fetch_usbserialv>
   b5e9e:	f857 2024 	ldr.w	r2, [r7, r4, lsl #2]
   b5ea2:	f856 3024 	ldr.w	r3, [r6, r4, lsl #2]
   b5ea6:	4919      	ldr	r1, [pc, #100]	; (b5f0c <_Z10reproducirv+0x8c>)
   b5ea8:	f7fe f93a 	bl	b4120 <_ZN5Print8printlnfEPKcz>
         if ( notas[i] == -1 ) {
   b5eac:	f857 0024 	ldr.w	r0, [r7, r4, lsl #2]
   b5eb0:	1c42      	adds	r2, r0, #1
   b5eb2:	d105      	bne.n	b5ec0 <_Z10reproducirv+0x40>
            n = duraciones[i];
   b5eb4:	f856 8024 	ldr.w	r8, [r6, r4, lsl #2]
            inicio=i;
   b5eb8:	46a1      	mov	r9, r4
            iteracion = 0;            
   b5eba:	2500      	movs	r5, #0
         i++;
   b5ebc:	3401      	adds	r4, #1
      while ( i < posicion) {
   b5ebe:	e7e8      	b.n	b5e92 <_Z10reproducirv+0x12>
         } else if ( notas[i] == -2 ) {
   b5ec0:	1c83      	adds	r3, r0, #2
   b5ec2:	d104      	bne.n	b5ece <_Z10reproducirv+0x4e>
            iteracion++;
   b5ec4:	3501      	adds	r5, #1
               i = inicio;
   b5ec6:	45a8      	cmp	r8, r5
   b5ec8:	bfc8      	it	gt
   b5eca:	464c      	movgt	r4, r9
   b5ecc:	e7f6      	b.n	b5ebc <_Z10reproducirv+0x3c>
            reproducirNOTA(notas[i],duraciones[i]);
   b5ece:	f856 1024 	ldr.w	r1, [r6, r4, lsl #2]
   b5ed2:	f7fe ff57 	bl	b4d84 <_Z14reproducirNOTAii>
   b5ed6:	e7f1      	b.n	b5ebc <_Z10reproducirv+0x3c>
      Serial.println("Finaliza el bucle antes de reproducir");
   b5ed8:	f003 ff16 	bl	b9d08 <_Z16_fetch_usbserialv>
   b5edc:	490c      	ldr	r1, [pc, #48]	; (b5f10 <_Z10reproducirv+0x90>)
   b5ede:	f003 fd12 	bl	b9906 <_ZN5Print7printlnEPKc>
      showBitmap(2,4,"");
   b5ee2:	490c      	ldr	r1, [pc, #48]	; (b5f14 <_Z10reproducirv+0x94>)
   b5ee4:	4668      	mov	r0, sp
   b5ee6:	f003 fc40 	bl	b976a <_ZN6StringC1EPK19__FlashStringHelper>
   b5eea:	2002      	movs	r0, #2
   b5eec:	466a      	mov	r2, sp
   b5eee:	2104      	movs	r1, #4
   b5ef0:	f7ff fd8a 	bl	b5a08 <_Z10showBitmapii6String>
   b5ef4:	4668      	mov	r0, sp
   b5ef6:	f003 fbed 	bl	b96d4 <_ZN6StringD1Ev>
}
   b5efa:	b004      	add	sp, #16
   b5efc:	e8bd 87f0 	ldmia.w	sp!, {r4, r5, r6, r7, r8, r9, sl, pc}
   b5f00:	2003d30c 	.word	0x2003d30c
   b5f04:	2003d3c8 	.word	0x2003d3c8
   b5f08:	2003d710 	.word	0x2003d710
   b5f0c:	000bb3ed 	.word	0x000bb3ed
   b5f10:	000bb3f5 	.word	0x000bb3f5
   b5f14:	000bafca 	.word	0x000bafca
   b5f18:	2003da40 	.word	0x2003da40

000b5f1c <_Z10cambioModoi>:
{
   b5f1c:	b51f      	push	{r0, r1, r2, r3, r4, lr}
   if (modo == 0 ) {
   b5f1e:	4604      	mov	r4, r0
   b5f20:	b9e0      	cbnz	r0, b5f5c <_Z10cambioModoi+0x40>
      Serial.println("Modo BASICO detectado");
   b5f22:	f003 fef1 	bl	b9d08 <_Z16_fetch_usbserialv>
   b5f26:	4918      	ldr	r1, [pc, #96]	; (b5f88 <_Z10cambioModoi+0x6c>)
   b5f28:	f003 fced 	bl	b9906 <_ZN5Print7printlnEPKc>
      MODE = 0;
   b5f2c:	4b17      	ldr	r3, [pc, #92]	; (b5f8c <_Z10cambioModoi+0x70>)
      showBitmap(3,0,"Iniciando modo BASICO...");
   b5f2e:	4918      	ldr	r1, [pc, #96]	; (b5f90 <_Z10cambioModoi+0x74>)
      MODE = 0;
   b5f30:	701c      	strb	r4, [r3, #0]
      showBitmap(3,0,"Iniciando modo MUSICA...");
   b5f32:	4668      	mov	r0, sp
   b5f34:	f003 fc19 	bl	b976a <_ZN6StringC1EPK19__FlashStringHelper>
   b5f38:	2003      	movs	r0, #3
   b5f3a:	466a      	mov	r2, sp
   b5f3c:	2100      	movs	r1, #0
   b5f3e:	f7ff fd63 	bl	b5a08 <_Z10showBitmapii6String>
   b5f42:	4668      	mov	r0, sp
   b5f44:	f003 fbc6 	bl	b96d4 <_ZN6StringD1Ev>
   EEPROM.put(0, MODE);
   b5f48:	f004 f9ba 	bl	ba2c0 <_Z21__fetch_global_EEPROMv>
   b5f4c:	490f      	ldr	r1, [pc, #60]	; (b5f8c <_Z10cambioModoi+0x70>)
   b5f4e:	2201      	movs	r2, #1
   b5f50:	2000      	movs	r0, #0
}
   b5f52:	b004      	add	sp, #16
   b5f54:	e8bd 4010 	ldmia.w	sp!, {r4, lr}
   b5f58:	f003 b85a 	b.w	b9010 <HAL_EEPROM_Put>
   } else if (modo == 1) {
   b5f5c:	2801      	cmp	r0, #1
   b5f5e:	d108      	bne.n	b5f72 <_Z10cambioModoi+0x56>
      Serial.println("Modo AVANZADO detectado");
   b5f60:	f003 fed2 	bl	b9d08 <_Z16_fetch_usbserialv>
   b5f64:	490b      	ldr	r1, [pc, #44]	; (b5f94 <_Z10cambioModoi+0x78>)
   b5f66:	f003 fcce 	bl	b9906 <_ZN5Print7printlnEPKc>
      MODE = 1;
   b5f6a:	4b08      	ldr	r3, [pc, #32]	; (b5f8c <_Z10cambioModoi+0x70>)
      showBitmap(3,0,"Iniciando modo AVANZADO...");
   b5f6c:	490a      	ldr	r1, [pc, #40]	; (b5f98 <_Z10cambioModoi+0x7c>)
      MODE = 1;
   b5f6e:	701c      	strb	r4, [r3, #0]
      showBitmap(3,0,"Iniciando modo AVANZADO...");
   b5f70:	e7df      	b.n	b5f32 <_Z10cambioModoi+0x16>
   } else if (modo == 2) {
   b5f72:	2802      	cmp	r0, #2
   b5f74:	d1e8      	bne.n	b5f48 <_Z10cambioModoi+0x2c>
      Serial.println("Modo MUSICA detectado");
   b5f76:	f003 fec7 	bl	b9d08 <_Z16_fetch_usbserialv>
   b5f7a:	4908      	ldr	r1, [pc, #32]	; (b5f9c <_Z10cambioModoi+0x80>)
   b5f7c:	f003 fcc3 	bl	b9906 <_ZN5Print7printlnEPKc>
      MODE = 2;
   b5f80:	4b02      	ldr	r3, [pc, #8]	; (b5f8c <_Z10cambioModoi+0x70>)
      showBitmap(3,0,"Iniciando modo MUSICA...");
   b5f82:	4907      	ldr	r1, [pc, #28]	; (b5fa0 <_Z10cambioModoi+0x84>)
      MODE = 2;
   b5f84:	701c      	strb	r4, [r3, #0]
      showBitmap(3,0,"Iniciando modo MUSICA...");
   b5f86:	e7d4      	b.n	b5f32 <_Z10cambioModoi+0x16>
   b5f88:	000bb41b 	.word	0x000bb41b
   b5f8c:	2003cd22 	.word	0x2003cd22
   b5f90:	000bb431 	.word	0x000bb431
   b5f94:	000bb44a 	.word	0x000bb44a
   b5f98:	000bb462 	.word	0x000bb462
   b5f9c:	000bb47d 	.word	0x000bb47d
   b5fa0:	000bb493 	.word	0x000bb493

000b5fa4 <loop>:
{
   b5fa4:	e92d 4ff0 	stmdb	sp!, {r4, r5, r6, r7, r8, r9, sl, fp, lr}
  if (iniciando) {
   b5fa8:	f8df 82dc 	ldr.w	r8, [pc, #732]	; b6288 <loop+0x2e4>
   b5fac:	f898 3000 	ldrb.w	r3, [r8]
{
   b5fb0:	f5ad 7d47 	sub.w	sp, sp, #796	; 0x31c
  if (iniciando) {
   b5fb4:	2b00      	cmp	r3, #0
   b5fb6:	d034      	beq.n	b6022 <loop+0x7e>
   b5fb8:	f003 f812 	bl	b8fe0 <HAL_Timer_Get_Milli_Seconds>
    currentTime = millis();
   b5fbc:	4f9b      	ldr	r7, [pc, #620]	; (b622c <loop+0x288>)
    while(currentTime-startTime<limit){
   b5fbe:	f8df 9294 	ldr.w	r9, [pc, #660]	; b6254 <loop+0x2b0>
   b5fc2:	f8df a294 	ldr.w	sl, [pc, #660]	; b6258 <loop+0x2b4>
    currentTime = millis();
   b5fc6:	6038      	str	r0, [r7, #0]
    while(currentTime-startTime<limit){
   b5fc8:	f8d9 2000 	ldr.w	r2, [r9]
   b5fcc:	683b      	ldr	r3, [r7, #0]
   b5fce:	1a9b      	subs	r3, r3, r2
   b5fd0:	f8da 2000 	ldr.w	r2, [sl]
   b5fd4:	4293      	cmp	r3, r2
   b5fd6:	d203      	bcs.n	b5fe0 <loop+0x3c>
   b5fd8:	f003 f802 	bl	b8fe0 <HAL_Timer_Get_Milli_Seconds>
      currentTime = millis();
   b5fdc:	6038      	str	r0, [r7, #0]
    while(currentTime-startTime<limit){
   b5fde:	e7f3      	b.n	b5fc8 <loop+0x24>
    display.clearDisplay();
   b5fe0:	4e93      	ldr	r6, [pc, #588]	; (b6230 <loop+0x28c>)
   b5fe2:	4630      	mov	r0, r6
   b5fe4:	f002 fbbe 	bl	b8764 <_ZN16Adafruit_SSD130612clearDisplayEv>
    display.setTextSize(1.5);
   b5fe8:	2101      	movs	r1, #1
   b5fea:	4630      	mov	r0, r6
   b5fec:	f001 fcf5 	bl	b79da <_ZN12Adafruit_GFX11setTextSizeEh>
    @param   c   16-bit 5-6-5 Color to draw text with
    @note    For 'transparent' background, background and foreground
             are set to same color rather than using a separate flag.
  */
  /**********************************************************************/
  void setTextColor(uint16_t c) { textcolor = textbgcolor = c; }
   b5ff0:	2400      	movs	r4, #0
   b5ff2:	f04f 1301 	mov.w	r3, #65537	; 0x10001
   b5ff6:	e9c6 4304 	strd	r4, r3, [r6, #16]
    if( MODE == 0 )
   b5ffa:	4b8e      	ldr	r3, [pc, #568]	; (b6234 <loop+0x290>)
      showBitmap(0,0,"");
   b5ffc:	498e      	ldr	r1, [pc, #568]	; (b6238 <loop+0x294>)
    if( MODE == 0 )
   b5ffe:	781d      	ldrb	r5, [r3, #0]
      showBitmap(0,0,"");
   b6000:	a8c2      	add	r0, sp, #776	; 0x308
    if( MODE == 0 )
   b6002:	2d00      	cmp	r5, #0
   b6004:	d15d      	bne.n	b60c2 <loop+0x11e>
      showBitmap(0,0,"");
   b6006:	f003 fbb0 	bl	b976a <_ZN6StringC1EPK19__FlashStringHelper>
   b600a:	aac2      	add	r2, sp, #776	; 0x308
   b600c:	4629      	mov	r1, r5
   b600e:	4628      	mov	r0, r5
      showBitmap(1,2,"Zumbador:");
   b6010:	f7ff fcfa 	bl	b5a08 <_Z10showBitmapii6String>
   b6014:	a8c2      	add	r0, sp, #776	; 0x308
   b6016:	f003 fb5d 	bl	b96d4 <_ZN6StringD1Ev>
    iniciando = false;
   b601a:	2300      	movs	r3, #0
   b601c:	f888 3000 	strb.w	r3, [r8]
  void setCursor(int16_t x, int16_t y) { cursor_x = x; cursor_y = y; }
   b6020:	6133      	str	r3, [r6, #16]
  if (mfrc522.PICC_IsNewCardPresent())
   b6022:	4886      	ldr	r0, [pc, #536]	; (b623c <loop+0x298>)
   b6024:	4e86      	ldr	r6, [pc, #536]	; (b6240 <loop+0x29c>)
   b6026:	f001 ff6b 	bl	b7f00 <_ZN7MFRC52221PICC_IsNewCardPresentEv>
   b602a:	b190      	cbz	r0, b6052 <loop+0xae>
    Serial.print("Tag Detectada --> ");
   b602c:	f003 fe6c 	bl	b9d08 <_Z16_fetch_usbserialv>
   b6030:	4984      	ldr	r1, [pc, #528]	; (b6244 <loop+0x2a0>)
   b6032:	f003 fc55 	bl	b98e0 <_ZN5Print5printEPKc>
    if (!mfrc522.PICC_ReadCardSerial())
   b6036:	4881      	ldr	r0, [pc, #516]	; (b623c <loop+0x298>)
   b6038:	f002 f933 	bl	b82a2 <_ZN7MFRC52219PICC_ReadCardSerialEv>
    getTagID(tagInfo);
   b603c:	4882      	ldr	r0, [pc, #520]	; (b6248 <loop+0x2a4>)
   b603e:	f7ff f833 	bl	b50a8 <_Z8getTagIDPi>
    play = false;
   b6042:	2300      	movs	r3, #0
   b6044:	7033      	strb	r3, [r6, #0]
    if ( MODE == 0 ) {
   b6046:	4b7b      	ldr	r3, [pc, #492]	; (b6234 <loop+0x290>)
   b6048:	781b      	ldrb	r3, [r3, #0]
   b604a:	2b00      	cmp	r3, #0
   b604c:	d161      	bne.n	b6112 <loop+0x16e>
      pitidoOFF0();
   b604e:	f7fe fc0c 	bl	b486a <_Z10pitidoOFF0v>
  if (!play && init) {
   b6052:	7833      	ldrb	r3, [r6, #0]
   b6054:	b923      	cbnz	r3, b6060 <loop+0xbc>
   b6056:	4b7d      	ldr	r3, [pc, #500]	; (b624c <loop+0x2a8>)
   b6058:	781b      	ldrb	r3, [r3, #0]
   b605a:	b10b      	cbz	r3, b6060 <loop+0xbc>
    ledApagar();
   b605c:	f7fe fb5c 	bl	b4718 <_Z9ledApagarv>
  if (bitmap) {
   b6060:	4d7b      	ldr	r5, [pc, #492]	; (b6250 <loop+0x2ac>)
   b6062:	782b      	ldrb	r3, [r5, #0]
   b6064:	2b00      	cmp	r3, #0
   b6066:	d065      	beq.n	b6134 <loop+0x190>
   b6068:	f002 ffba 	bl	b8fe0 <HAL_Timer_Get_Milli_Seconds>
    currentTime = millis();
   b606c:	4b6f      	ldr	r3, [pc, #444]	; (b622c <loop+0x288>)
   b606e:	6018      	str	r0, [r3, #0]
    if ( currentTime-startTime >= limit ) {
   b6070:	4b78      	ldr	r3, [pc, #480]	; (b6254 <loop+0x2b0>)
   b6072:	681b      	ldr	r3, [r3, #0]
   b6074:	1ac0      	subs	r0, r0, r3
   b6076:	4b78      	ldr	r3, [pc, #480]	; (b6258 <loop+0x2b4>)
   b6078:	681b      	ldr	r3, [r3, #0]
   b607a:	4298      	cmp	r0, r3
   b607c:	d35a      	bcc.n	b6134 <loop+0x190>
   b607e:	486c      	ldr	r0, [pc, #432]	; (b6230 <loop+0x28c>)
      for (int i = 0; i < posicion; i++)
   b6080:	4f76      	ldr	r7, [pc, #472]	; (b625c <loop+0x2b8>)
          snprintf(buf, sizeof(buf), "...");
   b6082:	f8df 8208 	ldr.w	r8, [pc, #520]	; b628c <loop+0x2e8>
      bitmap=false;
   b6086:	2400      	movs	r4, #0
   b6088:	6104      	str	r4, [r0, #16]
   b608a:	702c      	strb	r4, [r5, #0]
      display.clearDisplay();
   b608c:	f002 fb6a 	bl	b8764 <_ZN16Adafruit_SSD130612clearDisplayEv>
      display.display();
   b6090:	4867      	ldr	r0, [pc, #412]	; (b6230 <loop+0x28c>)
          snprintf(buf, sizeof(buf), "...");
   b6092:	4d73      	ldr	r5, [pc, #460]	; (b6260 <loop+0x2bc>)
      display.display();
   b6094:	f002 fdce 	bl	b8c34 <_ZN16Adafruit_SSD13067displayEv>
      for (int i = 0; i < posicion; i++)
   b6098:	683b      	ldr	r3, [r7, #0]
   b609a:	42a3      	cmp	r3, r4
   b609c:	dd4a      	ble.n	b6134 <loop+0x190>
        if (i<23) {
   b609e:	2c16      	cmp	r4, #22
   b60a0:	dc41      	bgt.n	b6126 <loop+0x182>
          snprintf(buf, sizeof(buf), secuencia[i]);
   b60a2:	4b70      	ldr	r3, [pc, #448]	; (b6264 <loop+0x2c0>)
	const char * c_str() const { return buffer; }
   b60a4:	0122      	lsls	r2, r4, #4
   b60a6:	2140      	movs	r1, #64	; 0x40
   b60a8:	58d2      	ldr	r2, [r2, r3]
   b60aa:	4628      	mov	r0, r5
   b60ac:	f003 f99c 	bl	b93e8 <snprintf>
        display.print(buf);
   b60b0:	4629      	mov	r1, r5
   b60b2:	485f      	ldr	r0, [pc, #380]	; (b6230 <loop+0x28c>)
   b60b4:	f003 fc14 	bl	b98e0 <_ZN5Print5printEPKc>
        display.display();
   b60b8:	485d      	ldr	r0, [pc, #372]	; (b6230 <loop+0x28c>)
   b60ba:	f002 fdbb 	bl	b8c34 <_ZN16Adafruit_SSD13067displayEv>
      for (int i = 0; i < posicion; i++)
   b60be:	3401      	adds	r4, #1
   b60c0:	e7ea      	b.n	b6098 <loop+0xf4>
    } else if (MODE == 1)
   b60c2:	2d01      	cmp	r5, #1
   b60c4:	d105      	bne.n	b60d2 <loop+0x12e>
      showBitmap(0,1,"");
   b60c6:	f003 fb50 	bl	b976a <_ZN6StringC1EPK19__FlashStringHelper>
   b60ca:	aac2      	add	r2, sp, #776	; 0x308
   b60cc:	4629      	mov	r1, r5
   b60ce:	4620      	mov	r0, r4
   b60d0:	e79e      	b.n	b6010 <loop+0x6c>
      showBitmap(0,2,"");
   b60d2:	f003 fb4a 	bl	b976a <_ZN6StringC1EPK19__FlashStringHelper>
   b60d6:	aac2      	add	r2, sp, #776	; 0x308
   b60d8:	2102      	movs	r1, #2
   b60da:	4620      	mov	r0, r4
   b60dc:	f7ff fc94 	bl	b5a08 <_Z10showBitmapii6String>
   b60e0:	a8c2      	add	r0, sp, #776	; 0x308
   b60e2:	f003 faf7 	bl	b96d4 <_ZN6StringD1Ev>
      bitmap=false;
   b60e6:	4b5a      	ldr	r3, [pc, #360]	; (b6250 <loop+0x2ac>)
   b60e8:	701c      	strb	r4, [r3, #0]
      while(currentTime-startTime<limit){
   b60ea:	f8d9 2000 	ldr.w	r2, [r9]
   b60ee:	683b      	ldr	r3, [r7, #0]
   b60f0:	1a9b      	subs	r3, r3, r2
   b60f2:	f8da 2000 	ldr.w	r2, [sl]
   b60f6:	4293      	cmp	r3, r2
   b60f8:	d203      	bcs.n	b6102 <loop+0x15e>
   b60fa:	f002 ff71 	bl	b8fe0 <HAL_Timer_Get_Milli_Seconds>
        currentTime = millis();
   b60fe:	6038      	str	r0, [r7, #0]
      while(currentTime-startTime<limit){
   b6100:	e7f3      	b.n	b60ea <loop+0x146>
      showBitmap(1,2,"Zumbador:");
   b6102:	4959      	ldr	r1, [pc, #356]	; (b6268 <loop+0x2c4>)
   b6104:	a8c2      	add	r0, sp, #776	; 0x308
   b6106:	f003 fb30 	bl	b976a <_ZN6StringC1EPK19__FlashStringHelper>
   b610a:	aac2      	add	r2, sp, #776	; 0x308
   b610c:	2102      	movs	r1, #2
   b610e:	2001      	movs	r0, #1
   b6110:	e77e      	b.n	b6010 <loop+0x6c>
      pitidoOFF1(2);
   b6112:	2002      	movs	r0, #2
   b6114:	f7fe fc7d 	bl	b4a12 <_Z10pitidoOFF1i>
      pitidoOFF1(4);
   b6118:	2004      	movs	r0, #4
   b611a:	f7fe fc7a 	bl	b4a12 <_Z10pitidoOFF1i>
      pitidoOFF1(6);
   b611e:	2006      	movs	r0, #6
   b6120:	f7fe fc77 	bl	b4a12 <_Z10pitidoOFF1i>
   b6124:	e795      	b.n	b6052 <loop+0xae>
        } else if (i==23){
   b6126:	2c17      	cmp	r4, #23
   b6128:	d1c2      	bne.n	b60b0 <loop+0x10c>
          snprintf(buf, sizeof(buf), "...");
   b612a:	4641      	mov	r1, r8
   b612c:	4628      	mov	r0, r5
   b612e:	f004 fd9b 	bl	bac68 <strcpy>
   b6132:	e7bd      	b.n	b60b0 <loop+0x10c>
  if ( MODE == 0 ) 
   b6134:	4b3f      	ldr	r3, [pc, #252]	; (b6234 <loop+0x290>)
    switch (tagInfo[0])
   b6136:	4c44      	ldr	r4, [pc, #272]	; (b6248 <loop+0x2a4>)
  if ( MODE == 0 ) 
   b6138:	781f      	ldrb	r7, [r3, #0]
    switch (tagInfo[0])
   b613a:	6825      	ldr	r5, [r4, #0]
  if ( MODE == 0 ) 
   b613c:	2f00      	cmp	r7, #0
   b613e:	f040 813b 	bne.w	b63b8 <loop+0x414>
    switch (tagInfo[0])
   b6142:	f8df 814c 	ldr.w	r8, [pc, #332]	; b6290 <loop+0x2ec>
   b6146:	2d00      	cmp	r5, #0
   b6148:	f000 80a4 	beq.w	b6294 <loop+0x2f0>
   b614c:	2d06      	cmp	r5, #6
   b614e:	f040 8112 	bne.w	b6376 <loop+0x3d2>
      pitidoBlink0();
   b6152:	f7fe fb9d 	bl	b4890 <_Z12pitidoBlink0v>
        switch (tagInfo[1])
   b6156:	6865      	ldr	r5, [r4, #4]
   b6158:	2d01      	cmp	r5, #1
   b615a:	d03f      	beq.n	b61dc <loop+0x238>
   b615c:	2d02      	cmp	r5, #2
   b615e:	d03f      	beq.n	b61e0 <loop+0x23c>
   b6160:	b92d      	cbnz	r5, b616e <loop+0x1ca>
            cambioModo(tagInfo[2]);
   b6162:	68a0      	ldr	r0, [r4, #8]
   b6164:	f7ff feda 	bl	b5f1c <_Z10cambioModoi>
            resetFunc();
   b6168:	4b40      	ldr	r3, [pc, #256]	; (b626c <loop+0x2c8>)
   b616a:	681b      	ldr	r3, [r3, #0]
   b616c:	4798      	blx	r3
    if (tagInfo[0]!=-1) { 
   b616e:	6823      	ldr	r3, [r4, #0]
   b6170:	3301      	adds	r3, #1
      tagInfo[0]=-1;
   b6172:	bf1c      	itt	ne
   b6174:	f04f 33ff 	movne.w	r3, #4294967295
   b6178:	6023      	strne	r3, [r4, #0]
    if (numActuadoresBloque > 0 && play == true)
   b617a:	f8d8 4000 	ldr.w	r4, [r8]
   b617e:	2c00      	cmp	r4, #0
   b6180:	f340 8106 	ble.w	b6390 <loop+0x3ec>
   b6184:	7833      	ldrb	r3, [r6, #0]
   b6186:	2b00      	cmp	r3, #0
   b6188:	f000 8112 	beq.w	b63b0 <loop+0x40c>
      valor = leerSensor(bloques[0].sensores[0].id, 1, bloques[0].sensores[0].puerto);
   b618c:	4c38      	ldr	r4, [pc, #224]	; (b6270 <loop+0x2cc>)
   b618e:	4d39      	ldr	r5, [pc, #228]	; (b6274 <loop+0x2d0>)
   b6190:	6922      	ldr	r2, [r4, #16]
   b6192:	6860      	ldr	r0, [r4, #4]
   b6194:	2101      	movs	r1, #1
   b6196:	f7fe fa47 	bl	b4628 <_Z10leerSensoriii>
      activarActuador(bloques[0].actuadores[0].id, estado, valor);
   b619a:	4b37      	ldr	r3, [pc, #220]	; (b6278 <loop+0x2d4>)
      valor = leerSensor(bloques[0].sensores[0].id, 1, bloques[0].sensores[0].puerto);
   b619c:	7028      	strb	r0, [r5, #0]
      activarActuador(bloques[0].actuadores[0].id, estado, valor);
   b619e:	6819      	ldr	r1, [r3, #0]
      valor = leerSensor(bloques[0].sensores[0].id, 1, bloques[0].sensores[0].puerto);
   b61a0:	4602      	mov	r2, r0
      activarActuador(bloques[0].actuadores[0].id, estado, valor);
   b61a2:	f8d4 0148 	ldr.w	r0, [r4, #328]	; 0x148
   b61a6:	f7fe fbb7 	bl	b4918 <_Z15activarActuadoriib>
      valor ? snprintf(buf, sizeof(buf), "TRUE") : snprintf(buf, sizeof(buf), "FALSE");
   b61aa:	782b      	ldrb	r3, [r5, #0]
   b61ac:	2b00      	cmp	r3, #0
   b61ae:	f000 80ed 	beq.w	b638c <loop+0x3e8>
   b61b2:	4932      	ldr	r1, [pc, #200]	; (b627c <loop+0x2d8>)
      display.clearDisplay();
   b61b4:	4c1e      	ldr	r4, [pc, #120]	; (b6230 <loop+0x28c>)
      valor ? snprintf(buf, sizeof(buf), "TRUE") : snprintf(buf, sizeof(buf), "FALSE");
   b61b6:	482a      	ldr	r0, [pc, #168]	; (b6260 <loop+0x2bc>)
   b61b8:	f004 fd56 	bl	bac68 <strcpy>
      display.clearDisplay();
   b61bc:	4620      	mov	r0, r4
   b61be:	f002 fad1 	bl	b8764 <_ZN16Adafruit_SSD130612clearDisplayEv>
   b61c2:	2300      	movs	r3, #0
      display.print(buf);
   b61c4:	4926      	ldr	r1, [pc, #152]	; (b6260 <loop+0x2bc>)
   b61c6:	6123      	str	r3, [r4, #16]
   b61c8:	4620      	mov	r0, r4
   b61ca:	f003 fb89 	bl	b98e0 <_ZN5Print5printEPKc>
      display.display();
   b61ce:	4620      	mov	r0, r4
   b61d0:	f50d 7d47 	add.w	sp, sp, #796	; 0x31c
   b61d4:	e8bd 4ff0 	ldmia.w	sp!, {r4, r5, r6, r7, r8, r9, sl, fp, lr}
      display.display();
   b61d8:	f002 bd2c 	b.w	b8c34 <_ZN16Adafruit_SSD13067displayEv>
            play = true;
   b61dc:	7035      	strb	r5, [r6, #0]
            break;
   b61de:	e7c6      	b.n	b616e <loop+0x1ca>
            if ( tagInfo[2] == 1 ) {
   b61e0:	68a3      	ldr	r3, [r4, #8]
   b61e2:	2b01      	cmp	r3, #1
   b61e4:	d10f      	bne.n	b6206 <loop+0x262>
              borradoALL(0);
   b61e6:	4638      	mov	r0, r7
   b61e8:	f7fe fcec 	bl	b4bc4 <_Z10borradoALLi>
              showBitmap(3,0,"Borrado completo realizado");
   b61ec:	4924      	ldr	r1, [pc, #144]	; (b6280 <loop+0x2dc>)
   b61ee:	a8c2      	add	r0, sp, #776	; 0x308
   b61f0:	f003 fabb 	bl	b976a <_ZN6StringC1EPK19__FlashStringHelper>
   b61f4:	aac2      	add	r2, sp, #776	; 0x308
   b61f6:	4639      	mov	r1, r7
   b61f8:	2003      	movs	r0, #3
          showBitmap(2,0,"");
   b61fa:	f7ff fc05 	bl	b5a08 <_Z10showBitmapii6String>
   b61fe:	a8c2      	add	r0, sp, #776	; 0x308
   b6200:	f003 fa68 	bl	b96d4 <_ZN6StringD1Ev>
   b6204:	e7b3      	b.n	b616e <loop+0x1ca>
              showBitmap(2,1,"");
   b6206:	490c      	ldr	r1, [pc, #48]	; (b6238 <loop+0x294>)
   b6208:	a8c2      	add	r0, sp, #776	; 0x308
   b620a:	f003 faae 	bl	b976a <_ZN6StringC1EPK19__FlashStringHelper>
   b620e:	aac2      	add	r2, sp, #776	; 0x308
   b6210:	2101      	movs	r1, #1
   b6212:	4628      	mov	r0, r5
   b6214:	f7ff fbf8 	bl	b5a08 <_Z10showBitmapii6String>
   b6218:	a8c2      	add	r0, sp, #776	; 0x308
   b621a:	f003 fa5b 	bl	b96d4 <_ZN6StringD1Ev>
              Serial.println("Borrado no permitido para este modo");
   b621e:	f003 fd73 	bl	b9d08 <_Z16_fetch_usbserialv>
   b6222:	4918      	ldr	r1, [pc, #96]	; (b6284 <loop+0x2e0>)
   b6224:	f003 fb6f 	bl	b9906 <_ZN5Print7printlnEPKc>
   b6228:	e7a1      	b.n	b616e <loop+0x1ca>
   b622a:	bf00      	nop
   b622c:	2003d354 	.word	0x2003d354
   b6230:	2003d358 	.word	0x2003d358
   b6234:	2003cd22 	.word	0x2003cd22
   b6238:	000bafca 	.word	0x000bafca
   b623c:	2003d700 	.word	0x2003d700
   b6240:	2003da3c 	.word	0x2003da3c
   b6244:	000bb4b6 	.word	0x000bb4b6
   b6248:	2003cc8c 	.word	0x2003cc8c
   b624c:	2003d6f0 	.word	0x2003d6f0
   b6250:	2003cd31 	.word	0x2003cd31
   b6254:	2003dc38 	.word	0x2003dc38
   b6258:	2003cc80 	.word	0x2003cc80
   b625c:	2003da40 	.word	0x2003da40
   b6260:	2003d30d 	.word	0x2003d30d
   b6264:	2003da58 	.word	0x2003da58
   b6268:	000bb4ac 	.word	0x000bb4ac
   b626c:	2003da54 	.word	0x2003da54
   b6270:	2003cd34 	.word	0x2003cd34
   b6274:	2003e6b8 	.word	0x2003e6b8
   b6278:	2003d6e8 	.word	0x2003d6e8
   b627c:	000bb797 	.word	0x000bb797
   b6280:	000bb4c9 	.word	0x000bb4c9
   b6284:	000bb4e4 	.word	0x000bb4e4
   b6288:	2003cc7f 	.word	0x2003cc7f
   b628c:	000bb4a8 	.word	0x000bb4a8
   b6290:	2003da30 	.word	0x2003da30
        id = tagInfo[3];
   b6294:	4f84      	ldr	r7, [pc, #528]	; (b64a8 <loop+0x504>)
   b6296:	68e3      	ldr	r3, [r4, #12]
        tipo = tagInfo[2];
   b6298:	4d84      	ldr	r5, [pc, #528]	; (b64ac <loop+0x508>)
        if (tagInfo[1] == 0) {
   b629a:	f8d4 a004 	ldr.w	sl, [r4, #4]
        id = tagInfo[3];
   b629e:	603b      	str	r3, [r7, #0]
        tipo = tagInfo[2];
   b62a0:	68a3      	ldr	r3, [r4, #8]
   b62a2:	f8df 923c 	ldr.w	r9, [pc, #572]	; b64e0 <loop+0x53c>
   b62a6:	602b      	str	r3, [r5, #0]
        if (tagInfo[1] == 0) {
   b62a8:	f1ba 0f00 	cmp.w	sl, #0
   b62ac:	d123      	bne.n	b62f6 <loop+0x352>
          Serial.println("Sensor detectado");
   b62ae:	f003 fd2b 	bl	b9d08 <_Z16_fetch_usbserialv>
   b62b2:	497f      	ldr	r1, [pc, #508]	; (b64b0 <loop+0x50c>)
   b62b4:	f003 fb27 	bl	b9906 <_ZN5Print7printlnEPKc>
          bloques[0].sensores[0] = sensor;
   b62b8:	4a7e      	ldr	r2, [pc, #504]	; (b64b4 <loop+0x510>)
          tipo == 0 ? sensor.puerto = 0 : sensor.puerto = 2;
   b62ba:	682b      	ldr	r3, [r5, #0]
          sensor.id = id;
   b62bc:	6839      	ldr	r1, [r7, #0]
          bloques[0].sensores[0] = sensor;
   b62be:	6051      	str	r1, [r2, #4]
          bloques[0].numSensores++;
   b62c0:	6811      	ldr	r1, [r2, #0]
          tipo == 0 ? sensor.puerto = 0 : sensor.puerto = 2;
   b62c2:	2b00      	cmp	r3, #0
          bloques[0].numSensores++;
   b62c4:	f101 0101 	add.w	r1, r1, #1
          tipo == 0 ? sensor.puerto = 0 : sensor.puerto = 2;
   b62c8:	bf18      	it	ne
   b62ca:	2302      	movne	r3, #2
          bloques[0].numSensores++;
   b62cc:	6011      	str	r1, [r2, #0]
          bloques[0].sensores[0] = sensor;
   b62ce:	6113      	str	r3, [r2, #16]
          numSensoresBloque++;
   b62d0:	f8d9 2000 	ldr.w	r2, [r9]
            showBitmap(1,3,""); //A0
   b62d4:	4978      	ldr	r1, [pc, #480]	; (b64b8 <loop+0x514>)
          numSensoresBloque++;
   b62d6:	3201      	adds	r2, #1
   b62d8:	f8c9 2000 	str.w	r2, [r9]
            showBitmap(1,3,""); //A0
   b62dc:	a8c2      	add	r0, sp, #776	; 0x308
          if (sensor.puerto == 0) {
   b62de:	2b00      	cmp	r3, #0
   b62e0:	d13b      	bne.n	b635a <loop+0x3b6>
            showBitmap(1,3,""); //A0
   b62e2:	f003 fa42 	bl	b976a <_ZN6StringC1EPK19__FlashStringHelper>
   b62e6:	aac2      	add	r2, sp, #776	; 0x308
   b62e8:	2103      	movs	r1, #3
            showBitmap(1,0,""); //D2
   b62ea:	2001      	movs	r0, #1
   b62ec:	f7ff fb8c 	bl	b5a08 <_Z10showBitmapii6String>
   b62f0:	a8c2      	add	r0, sp, #776	; 0x308
   b62f2:	f003 f9ef 	bl	b96d4 <_ZN6StringD1Ev>
        if ( numSensoresBloque > 0) {
   b62f6:	f8d9 3000 	ldr.w	r3, [r9]
   b62fa:	2b00      	cmp	r3, #0
   b62fc:	dd38      	ble.n	b6370 <loop+0x3cc>
          if (tagInfo[1] == 1) {
   b62fe:	f8d4 9004 	ldr.w	r9, [r4, #4]
   b6302:	f1b9 0f01 	cmp.w	r9, #1
   b6306:	f47f af32 	bne.w	b616e <loop+0x1ca>
            Serial.println("Actuador detectado");
   b630a:	f003 fcfd 	bl	b9d08 <_Z16_fetch_usbserialv>
   b630e:	496b      	ldr	r1, [pc, #428]	; (b64bc <loop+0x518>)
   b6310:	f003 faf9 	bl	b9906 <_ZN5Print7printlnEPKc>
            estado = tagInfo[4];
   b6314:	4b6a      	ldr	r3, [pc, #424]	; (b64c0 <loop+0x51c>)
   b6316:	6922      	ldr	r2, [r4, #16]
   b6318:	601a      	str	r2, [r3, #0]
            tipo == 0 ? actuador.puerto = 2 : actuador.puerto = 4;
   b631a:	682b      	ldr	r3, [r5, #0]
            actuador.id = id;
   b631c:	683a      	ldr	r2, [r7, #0]
            tipo == 0 ? actuador.puerto = 2 : actuador.puerto = 4;
   b631e:	2b00      	cmp	r3, #0
            bloques[0].actuadores[0] = actuador;
   b6320:	4b64      	ldr	r3, [pc, #400]	; (b64b4 <loop+0x510>)
   b6322:	f8c3 2148 	str.w	r2, [r3, #328]	; 0x148
            bloques[0].numActuadores++;
   b6326:	f8d3 2144 	ldr.w	r2, [r3, #324]	; 0x144
            tipo == 0 ? actuador.puerto = 2 : actuador.puerto = 4;
   b632a:	bf0c      	ite	eq
   b632c:	2102      	moveq	r1, #2
   b632e:	2104      	movne	r1, #4
            bloques[0].numActuadores++;
   b6330:	3201      	adds	r2, #1
            bloques[0].actuadores[0] = actuador;
   b6332:	f8c3 1154 	str.w	r1, [r3, #340]	; 0x154
            bloques[0].numActuadores++;
   b6336:	f8c3 2144 	str.w	r2, [r3, #324]	; 0x144
            numActuadoresBloque++;
   b633a:	f8d8 3000 	ldr.w	r3, [r8]
            if (actuador.puerto == 2) {
   b633e:	2902      	cmp	r1, #2
            numActuadoresBloque++;
   b6340:	f103 0301 	add.w	r3, r3, #1
              showBitmap(1,4,""); //A2
   b6344:	495c      	ldr	r1, [pc, #368]	; (b64b8 <loop+0x514>)
            numActuadoresBloque++;
   b6346:	f8c8 3000 	str.w	r3, [r8]
              showBitmap(1,4,""); //A2
   b634a:	a8c2      	add	r0, sp, #776	; 0x308
            if (actuador.puerto == 2) {
   b634c:	d10a      	bne.n	b6364 <loop+0x3c0>
              showBitmap(1,4,""); //A2
   b634e:	f003 fa0c 	bl	b976a <_ZN6StringC1EPK19__FlashStringHelper>
   b6352:	aac2      	add	r2, sp, #776	; 0x308
   b6354:	2104      	movs	r1, #4
   b6356:	4648      	mov	r0, r9
   b6358:	e74f      	b.n	b61fa <loop+0x256>
            showBitmap(1,0,""); //D2
   b635a:	f003 fa06 	bl	b976a <_ZN6StringC1EPK19__FlashStringHelper>
   b635e:	aac2      	add	r2, sp, #776	; 0x308
   b6360:	4651      	mov	r1, sl
   b6362:	e7c2      	b.n	b62ea <loop+0x346>
              showBitmap(1,1,""); //D4
   b6364:	f003 fa01 	bl	b976a <_ZN6StringC1EPK19__FlashStringHelper>
   b6368:	aac2      	add	r2, sp, #776	; 0x308
   b636a:	4649      	mov	r1, r9
   b636c:	4648      	mov	r0, r9
   b636e:	e744      	b.n	b61fa <loop+0x256>
            ledApagar();
   b6370:	f7fe f9d2 	bl	b4718 <_Z9ledApagarv>
   b6374:	e6fb      	b.n	b616e <loop+0x1ca>
        if ( tagInfo[0] != -1 ) {
   b6376:	3501      	adds	r5, #1
   b6378:	f43f aef9 	beq.w	b616e <loop+0x1ca>
          showBitmap(2,0,"");
   b637c:	494e      	ldr	r1, [pc, #312]	; (b64b8 <loop+0x514>)
   b637e:	a8c2      	add	r0, sp, #776	; 0x308
   b6380:	f003 f9f3 	bl	b976a <_ZN6StringC1EPK19__FlashStringHelper>
   b6384:	aac2      	add	r2, sp, #776	; 0x308
   b6386:	4639      	mov	r1, r7
   b6388:	2002      	movs	r0, #2
   b638a:	e736      	b.n	b61fa <loop+0x256>
      valor ? snprintf(buf, sizeof(buf), "TRUE") : snprintf(buf, sizeof(buf), "FALSE");
   b638c:	494d      	ldr	r1, [pc, #308]	; (b64c4 <loop+0x520>)
   b638e:	e711      	b.n	b61b4 <loop+0x210>
    } else if (numActuadoresBloque==0 && play == true) {
   b6390:	d10e      	bne.n	b63b0 <loop+0x40c>
   b6392:	7833      	ldrb	r3, [r6, #0]
   b6394:	b163      	cbz	r3, b63b0 <loop+0x40c>
      showBitmap(2,4,"");
   b6396:	4948      	ldr	r1, [pc, #288]	; (b64b8 <loop+0x514>)
   b6398:	a8c2      	add	r0, sp, #776	; 0x308
   b639a:	f003 f9e6 	bl	b976a <_ZN6StringC1EPK19__FlashStringHelper>
   b639e:	aac2      	add	r2, sp, #776	; 0x308
   b63a0:	2104      	movs	r1, #4
   b63a2:	2002      	movs	r0, #2
   b63a4:	f7ff fb30 	bl	b5a08 <_Z10showBitmapii6String>
   b63a8:	a8c2      	add	r0, sp, #776	; 0x308
   b63aa:	f003 f993 	bl	b96d4 <_ZN6StringD1Ev>
      play=false;
   b63ae:	7034      	strb	r4, [r6, #0]
   b63b0:	f50d 7d47 	add.w	sp, sp, #796	; 0x31c
   b63b4:	e8bd 8ff0 	ldmia.w	sp!, {r4, r5, r6, r7, r8, r9, sl, fp, pc}
  } else if ( MODE == 1 ) {
   b63b8:	2f01      	cmp	r7, #1
   b63ba:	f040 8370 	bne.w	b6a9e <loop+0xafa>
    switch (tagInfo[0])
   b63be:	2d01      	cmp	r5, #1
   b63c0:	d055      	beq.n	b646e <loop+0x4ca>
   b63c2:	2d06      	cmp	r5, #6
   b63c4:	f040 830a 	bne.w	b69dc <loop+0xa38>
        switch (tagInfo[1])
   b63c8:	6865      	ldr	r5, [r4, #4]
   b63ca:	2d01      	cmp	r5, #1
   b63cc:	d028      	beq.n	b6420 <loop+0x47c>
   b63ce:	2d02      	cmp	r5, #2
   b63d0:	d028      	beq.n	b6424 <loop+0x480>
   b63d2:	b92d      	cbnz	r5, b63e0 <loop+0x43c>
            cambioModo(tagInfo[2]);
   b63d4:	68a0      	ldr	r0, [r4, #8]
   b63d6:	f7ff fda1 	bl	b5f1c <_Z10cambioModoi>
            resetFunc();
   b63da:	4b3b      	ldr	r3, [pc, #236]	; (b64c8 <loop+0x524>)
   b63dc:	681b      	ldr	r3, [r3, #0]
   b63de:	4798      	blx	r3
    tagInfo[0] = -1;
   b63e0:	f04f 33ff 	mov.w	r3, #4294967295
   b63e4:	6023      	str	r3, [r4, #0]
    if (play) {
   b63e6:	7833      	ldrb	r3, [r6, #0]
   b63e8:	2b00      	cmp	r3, #0
   b63ea:	d0e1      	beq.n	b63b0 <loop+0x40c>
      if ( (numBloque==0 && bloques[0].numActuadores>0) || numBloque==1 ) {
   b63ec:	4d37      	ldr	r5, [pc, #220]	; (b64cc <loop+0x528>)
   b63ee:	682b      	ldr	r3, [r5, #0]
   b63f0:	2b00      	cmp	r3, #0
   b63f2:	f040 8302 	bne.w	b69fa <loop+0xa56>
   b63f6:	4b2f      	ldr	r3, [pc, #188]	; (b64b4 <loop+0x510>)
   b63f8:	f8d3 3144 	ldr.w	r3, [r3, #324]	; 0x144
   b63fc:	2b00      	cmp	r3, #0
   b63fe:	f300 82ff 	bgt.w	b6a00 <loop+0xa5c>
        showBitmap(2,4,"  acaba bloque 1");
   b6402:	4933      	ldr	r1, [pc, #204]	; (b64d0 <loop+0x52c>)
   b6404:	a8c2      	add	r0, sp, #776	; 0x308
   b6406:	f003 f9b0 	bl	b976a <_ZN6StringC1EPK19__FlashStringHelper>
   b640a:	aac2      	add	r2, sp, #776	; 0x308
   b640c:	2104      	movs	r1, #4
   b640e:	2002      	movs	r0, #2
   b6410:	f7ff fafa 	bl	b5a08 <_Z10showBitmapii6String>
   b6414:	a8c2      	add	r0, sp, #776	; 0x308
   b6416:	f003 f95d 	bl	b96d4 <_ZN6StringD1Ev>
        play = false;
   b641a:	2300      	movs	r3, #0
   b641c:	7033      	strb	r3, [r6, #0]
   b641e:	e30b      	b.n	b6a38 <loop+0xa94>
            play = true;
   b6420:	7035      	strb	r5, [r6, #0]
            break;
   b6422:	e7dd      	b.n	b63e0 <loop+0x43c>
            if ( tagInfo[2] == 1 ) {
   b6424:	68a3      	ldr	r3, [r4, #8]
   b6426:	2b01      	cmp	r3, #1
   b6428:	d10e      	bne.n	b6448 <loop+0x4a4>
   switch (modo)
   b642a:	f7fd fe4d 	bl	b40c8 <_Z10borradoALLi.part.0>
              showBitmap(3,0,"Borrado completo realizado");
   b642e:	a8c2      	add	r0, sp, #776	; 0x308
   b6430:	4928      	ldr	r1, [pc, #160]	; (b64d4 <loop+0x530>)
   b6432:	f003 f99a 	bl	b976a <_ZN6StringC1EPK19__FlashStringHelper>
   b6436:	aac2      	add	r2, sp, #776	; 0x308
   b6438:	2100      	movs	r1, #0
   b643a:	2003      	movs	r0, #3
          showBitmap(2,0,"");
   b643c:	f7ff fae4 	bl	b5a08 <_Z10showBitmapii6String>
   b6440:	a8c2      	add	r0, sp, #776	; 0x308
   b6442:	f003 f947 	bl	b96d4 <_ZN6StringD1Ev>
   b6446:	e7cb      	b.n	b63e0 <loop+0x43c>
            } else if (tagInfo[2] == 2) {
   b6448:	2b02      	cmp	r3, #2
   b644a:	d103      	bne.n	b6454 <loop+0x4b0>
              borradoBLOQUE(1);
   b644c:	4638      	mov	r0, r7
   b644e:	f7ff fc7f 	bl	b5d50 <_Z13borradoBLOQUEi>
   b6452:	e7c5      	b.n	b63e0 <loop+0x43c>
              Serial.println("Borrado no permitido para este modo");
   b6454:	f003 fc58 	bl	b9d08 <_Z16_fetch_usbserialv>
   b6458:	491f      	ldr	r1, [pc, #124]	; (b64d8 <loop+0x534>)
   b645a:	f003 fa54 	bl	b9906 <_ZN5Print7printlnEPKc>
              showBitmap(2,1,"");
   b645e:	4916      	ldr	r1, [pc, #88]	; (b64b8 <loop+0x514>)
   b6460:	a8c2      	add	r0, sp, #776	; 0x308
   b6462:	f003 f982 	bl	b976a <_ZN6StringC1EPK19__FlashStringHelper>
   b6466:	aac2      	add	r2, sp, #776	; 0x308
   b6468:	4639      	mov	r1, r7
          showBitmap(2,0,"");
   b646a:	2002      	movs	r0, #2
   b646c:	e7e6      	b.n	b643c <loop+0x498>
        id = tagInfo[3];
   b646e:	4f0e      	ldr	r7, [pc, #56]	; (b64a8 <loop+0x504>)
   b6470:	68e3      	ldr	r3, [r4, #12]
   b6472:	603b      	str	r3, [r7, #0]
        Serial.print("Ejecutando tag --> ");
   b6474:	f003 fc48 	bl	b9d08 <_Z16_fetch_usbserialv>
   b6478:	4918      	ldr	r1, [pc, #96]	; (b64dc <loop+0x538>)
   b647a:	4d0e      	ldr	r5, [pc, #56]	; (b64b4 <loop+0x510>)
   b647c:	f8df 9060 	ldr.w	r9, [pc, #96]	; b64e0 <loop+0x53c>
   b6480:	f8df 8060 	ldr.w	r8, [pc, #96]	; b64e4 <loop+0x540>
   b6484:	f8df a060 	ldr.w	sl, [pc, #96]	; b64e8 <loop+0x544>
   b6488:	f8df b040 	ldr.w	fp, [pc, #64]	; b64cc <loop+0x528>
   b648c:	f003 fa28 	bl	b98e0 <_ZN5Print5printEPKc>
        switch (tagInfo[1])
   b6490:	6863      	ldr	r3, [r4, #4]
   b6492:	2b05      	cmp	r3, #5
   b6494:	d86d      	bhi.n	b6572 <loop+0x5ce>
   b6496:	e8df f013 	tbh	[pc, r3, lsl #1]
   b649a:	0029      	.short	0x0029
   b649c:	020800d0 	.word	0x020800d0
   b64a0:	026f023e 	.word	0x026f023e
   b64a4:	028a      	.short	0x028a
   b64a6:	bf00      	nop
   b64a8:	2003d6ec 	.word	0x2003d6ec
   b64ac:	2003e6b4 	.word	0x2003e6b4
   b64b0:	000bb508 	.word	0x000bb508
   b64b4:	2003cd34 	.word	0x2003cd34
   b64b8:	000bafca 	.word	0x000bafca
   b64bc:	000bb519 	.word	0x000bb519
   b64c0:	2003d6e8 	.word	0x2003d6e8
   b64c4:	000bb7a6 	.word	0x000bb7a6
   b64c8:	2003da54 	.word	0x2003da54
   b64cc:	2003cc84 	.word	0x2003cc84
   b64d0:	000bb7ac 	.word	0x000bb7ac
   b64d4:	000bb4c9 	.word	0x000bb4c9
   b64d8:	000bb4e4 	.word	0x000bb4e4
   b64dc:	000bb52c 	.word	0x000bb52c
   b64e0:	2003da38 	.word	0x2003da38
   b64e4:	2003da30 	.word	0x2003da30
   b64e8:	2003da34 	.word	0x2003da34
            if ( IF_pasado && (numSensoresBloque == numCondicionalesBloque) && isValidSensor(id) ) {
   b64ec:	f8df 82b4 	ldr.w	r8, [pc, #692]	; b67a4 <loop+0x800>
            Serial.println("Sensor detectado");
   b64f0:	f003 fc0a 	bl	b9d08 <_Z16_fetch_usbserialv>
   b64f4:	4999      	ldr	r1, [pc, #612]	; (b675c <loop+0x7b8>)
   b64f6:	f003 fa06 	bl	b9906 <_ZN5Print7printlnEPKc>
            if ( IF_pasado && (numSensoresBloque == numCondicionalesBloque) && isValidSensor(id) ) {
   b64fa:	f898 3000 	ldrb.w	r3, [r8]
   b64fe:	2b00      	cmp	r3, #0
   b6500:	d05f      	beq.n	b65c2 <loop+0x61e>
   b6502:	f8d9 2000 	ldr.w	r2, [r9]
   b6506:	f8da 3000 	ldr.w	r3, [sl]
   b650a:	429a      	cmp	r2, r3
   b650c:	d176      	bne.n	b65fc <loop+0x658>
   b650e:	6838      	ldr	r0, [r7, #0]
   b6510:	f7fe fc52 	bl	b4db8 <_Z13isValidSensori>
   b6514:	2800      	cmp	r0, #0
   b6516:	d051      	beq.n	b65bc <loop+0x618>
              puerto = isNewSensor(id);
   b6518:	6838      	ldr	r0, [r7, #0]
   b651a:	f8df 8290 	ldr.w	r8, [pc, #656]	; b67ac <loop+0x808>
   b651e:	f7fe fc6d 	bl	b4dfc <_Z11isNewSensori>
   b6522:	f8c8 0000 	str.w	r0, [r8]
              if (puerto == -1) {
   b6526:	3001      	adds	r0, #1
   b6528:	d14f      	bne.n	b65ca <loop+0x626>
                puerto = asignarPuerto(tagInfo[2]);
   b652a:	68a0      	ldr	r0, [r4, #8]
   b652c:	f7fe fe0c 	bl	b5148 <_Z13asignarPuertoi>
   b6530:	4601      	mov	r1, r0
   b6532:	f8c8 0000 	str.w	r0, [r8]
                showPort(tagInfo[2], puerto);
   b6536:	68a0      	ldr	r0, [r4, #8]
   b6538:	f7ff fbbc 	bl	b5cb4 <_Z8showPortii>
              if (puerto != -1) {
   b653c:	f8d8 0000 	ldr.w	r0, [r8]
   b6540:	1c42      	adds	r2, r0, #1
   b6542:	d04f      	beq.n	b65e4 <loop+0x640>
                newSensor.bloque = numBloque;
   b6544:	f8db 8000 	ldr.w	r8, [fp]
                bloques[numBloque].sensores[numSensoresBloque] = newSensor;
   b6548:	f8d9 1000 	ldr.w	r1, [r9]
   b654c:	683f      	ldr	r7, [r7, #0]
   b654e:	f44f 723b 	mov.w	r2, #748	; 0x2ec
   b6552:	fb02 f208 	mul.w	r2, r2, r8
   b6556:	eb02 1301 	add.w	r3, r2, r1, lsl #4
   b655a:	442b      	add	r3, r5
   b655c:	605f      	str	r7, [r3, #4]
   b655e:	6927      	ldr	r7, [r4, #16]
   b6560:	6118      	str	r0, [r3, #16]
   b6562:	e9c3 7802 	strd	r7, r8, [r3, #8]
                bloques[numBloque].numSensores++;
   b6566:	58ab      	ldr	r3, [r5, r2]
   b6568:	3301      	adds	r3, #1
   b656a:	50ab      	str	r3, [r5, r2]
                numSensoresBloque++;
   b656c:	1c4b      	adds	r3, r1, #1
   b656e:	f8c9 3000 	str.w	r3, [r9]
        Serial.println("Fin Tag");
   b6572:	f003 fbc9 	bl	b9d08 <_Z16_fetch_usbserialv>
   b6576:	497a      	ldr	r1, [pc, #488]	; (b6760 <loop+0x7bc>)
   b6578:	f003 f9c5 	bl	b9906 <_ZN5Print7printlnEPKc>
        Serial.println("# Bloque | # Sensores | # Condiciones | # Actuadores");
   b657c:	f003 fbc4 	bl	b9d08 <_Z16_fetch_usbserialv>
   b6580:	4978      	ldr	r1, [pc, #480]	; (b6764 <loop+0x7c0>)
   b6582:	f003 f9c0 	bl	b9906 <_ZN5Print7printlnEPKc>
        Serial.printlnf("    %d \t|\t %d \t|\t %d \t|\t %d \t|\t %d", numBloque, numSensoresBloque, numCondicionalesBloque, numActuadoresBloque, bloques[numBloque].numActuadores);
   b6586:	f003 fbbf 	bl	b9d08 <_Z16_fetch_usbserialv>
   b658a:	4b77      	ldr	r3, [pc, #476]	; (b6768 <loop+0x7c4>)
   b658c:	4977      	ldr	r1, [pc, #476]	; (b676c <loop+0x7c8>)
   b658e:	681a      	ldr	r2, [r3, #0]
   b6590:	f44f 733b 	mov.w	r3, #748	; 0x2ec
   b6594:	fb03 5502 	mla	r5, r3, r2, r5
   b6598:	f8d5 3144 	ldr.w	r3, [r5, #324]	; 0x144
   b659c:	9302      	str	r3, [sp, #8]
   b659e:	4b74      	ldr	r3, [pc, #464]	; (b6770 <loop+0x7cc>)
   b65a0:	681b      	ldr	r3, [r3, #0]
   b65a2:	9301      	str	r3, [sp, #4]
   b65a4:	4b73      	ldr	r3, [pc, #460]	; (b6774 <loop+0x7d0>)
   b65a6:	681b      	ldr	r3, [r3, #0]
   b65a8:	9300      	str	r3, [sp, #0]
   b65aa:	4b73      	ldr	r3, [pc, #460]	; (b6778 <loop+0x7d4>)
   b65ac:	681b      	ldr	r3, [r3, #0]
   b65ae:	f7fd fdb7 	bl	b4120 <_ZN5Print8printlnfEPKcz>
        Serial.println();
   b65b2:	f003 fba9 	bl	b9d08 <_Z16_fetch_usbserialv>
   b65b6:	f003 f99a 	bl	b98ee <_ZN5Print7printlnEv>
        break;
   b65ba:	e711      	b.n	b63e0 <loop+0x43c>
              if ((!IF_pasado)) {
   b65bc:	f898 3000 	ldrb.w	r3, [r8]
   b65c0:	b9b3      	cbnz	r3, b65f0 <loop+0x64c>
                Serial.println("Se esperaba IF tag");
   b65c2:	f003 fba1 	bl	b9d08 <_Z16_fetch_usbserialv>
   b65c6:	496d      	ldr	r1, [pc, #436]	; (b677c <loop+0x7d8>)
   b65c8:	e01b      	b.n	b6602 <loop+0x65e>
                showBitmap(1,6,"");
   b65ca:	496d      	ldr	r1, [pc, #436]	; (b6780 <loop+0x7dc>)
   b65cc:	a8c2      	add	r0, sp, #776	; 0x308
   b65ce:	f003 f8cc 	bl	b976a <_ZN6StringC1EPK19__FlashStringHelper>
   b65d2:	aac2      	add	r2, sp, #776	; 0x308
   b65d4:	2106      	movs	r1, #6
   b65d6:	2001      	movs	r0, #1
   b65d8:	f7ff fa16 	bl	b5a08 <_Z10showBitmapii6String>
   b65dc:	a8c2      	add	r0, sp, #776	; 0x308
   b65de:	f003 f879 	bl	b96d4 <_ZN6StringD1Ev>
   b65e2:	e7ab      	b.n	b653c <loop+0x598>
                Serial.println("Puerto no disponibleeee");
   b65e4:	f003 fb90 	bl	b9d08 <_Z16_fetch_usbserialv>
   b65e8:	4966      	ldr	r1, [pc, #408]	; (b6784 <loop+0x7e0>)
                Serial.println("Puerto no disponible");
   b65ea:	f003 f98c 	bl	b9906 <_ZN5Print7printlnEPKc>
   b65ee:	e7c0      	b.n	b6572 <loop+0x5ce>
              } else if (numSensoresBloque != numCondicionalesBloque) {
   b65f0:	f8d9 2000 	ldr.w	r2, [r9]
   b65f4:	f8da 3000 	ldr.w	r3, [sl]
   b65f8:	429a      	cmp	r2, r3
   b65fa:	d00c      	beq.n	b6616 <loop+0x672>
                Serial.println("Despues de un sensor se espera una concion: AND u OR");
   b65fc:	f003 fb84 	bl	b9d08 <_Z16_fetch_usbserialv>
   b6600:	4961      	ldr	r1, [pc, #388]	; (b6788 <loop+0x7e4>)
                Serial.println("Introduce un Actuador para la evaluacin a TRUE");
   b6602:	f003 f980 	bl	b9906 <_ZN5Print7printlnEPKc>
                showBitmap(2,2,"");
   b6606:	495e      	ldr	r1, [pc, #376]	; (b6780 <loop+0x7dc>)
   b6608:	a8c2      	add	r0, sp, #776	; 0x308
   b660a:	f003 f8ae 	bl	b976a <_ZN6StringC1EPK19__FlashStringHelper>
   b660e:	2102      	movs	r1, #2
   b6610:	aac2      	add	r2, sp, #776	; 0x308
   b6612:	4608      	mov	r0, r1
   b6614:	e00b      	b.n	b662e <loop+0x68a>
                Serial.println("Sensor invalido");
   b6616:	f003 fb77 	bl	b9d08 <_Z16_fetch_usbserialv>
   b661a:	495c      	ldr	r1, [pc, #368]	; (b678c <loop+0x7e8>)
   b661c:	f003 f973 	bl	b9906 <_ZN5Print7printlnEPKc>
                showBitmap(2,5,"");
   b6620:	4957      	ldr	r1, [pc, #348]	; (b6780 <loop+0x7dc>)
   b6622:	a8c2      	add	r0, sp, #776	; 0x308
   b6624:	f003 f8a1 	bl	b976a <_ZN6StringC1EPK19__FlashStringHelper>
   b6628:	aac2      	add	r2, sp, #776	; 0x308
   b662a:	2105      	movs	r1, #5
                  showBitmap(2,6,"");
   b662c:	2002      	movs	r0, #2
                showBitmap(2,2,"");
   b662e:	f7ff f9eb 	bl	b5a08 <_Z10showBitmapii6String>
   b6632:	a8c2      	add	r0, sp, #776	; 0x308
   b6634:	f003 f84e 	bl	b96d4 <_ZN6StringD1Ev>
   b6638:	e79b      	b.n	b6572 <loop+0x5ce>
            Serial.println("Actuador detectado");
   b663a:	f003 fb65 	bl	b9d08 <_Z16_fetch_usbserialv>
   b663e:	4954      	ldr	r1, [pc, #336]	; (b6790 <loop+0x7ec>)
            estado = tagInfo[4];
   b6640:	f8df 916c 	ldr.w	r9, [pc, #364]	; b67b0 <loop+0x80c>
            Serial.println("Actuador detectado");
   b6644:	f003 f95f 	bl	b9906 <_ZN5Print7printlnEPKc>
            if ( THEN_pasado && !ELSE_pasado && isValidActuador(estado, id) && numActuadoresBloque==0 ) {
   b6648:	4a52      	ldr	r2, [pc, #328]	; (b6794 <loop+0x7f0>)
            estado = tagInfo[4];
   b664a:	f8d4 a010 	ldr.w	sl, [r4, #16]
            if ( THEN_pasado && !ELSE_pasado && isValidActuador(estado, id) && numActuadoresBloque==0 ) {
   b664e:	7813      	ldrb	r3, [r2, #0]
            estado = tagInfo[4];
   b6650:	f8c9 a000 	str.w	sl, [r9]
            if ( THEN_pasado && !ELSE_pasado && isValidActuador(estado, id) && numActuadoresBloque==0 ) {
   b6654:	93b9      	str	r3, [sp, #740]	; 0x2e4
   b6656:	2b00      	cmp	r3, #0
   b6658:	d073      	beq.n	b6742 <loop+0x79e>
   b665a:	4a4f      	ldr	r2, [pc, #316]	; (b6798 <loop+0x7f4>)
   b665c:	6839      	ldr	r1, [r7, #0]
   b665e:	7812      	ldrb	r2, [r2, #0]
   b6660:	4650      	mov	r0, sl
   b6662:	2a00      	cmp	r2, #0
   b6664:	d169      	bne.n	b673a <loop+0x796>
   b6666:	f7fe fbf1 	bl	b4e4c <_Z15isValidActuadorii>
   b666a:	2800      	cmp	r0, #0
   b666c:	d069      	beq.n	b6742 <loop+0x79e>
   b666e:	f8d8 2000 	ldr.w	r2, [r8]
   b6672:	2a00      	cmp	r2, #0
   b6674:	d165      	bne.n	b6742 <loop+0x79e>
              puerto = isNewActuador(id);
   b6676:	4608      	mov	r0, r1
   b6678:	f7fe fc22 	bl	b4ec0 <_Z13isNewActuadori>
   b667c:	f8df a12c 	ldr.w	sl, [pc, #300]	; b67ac <loop+0x808>
   b6680:	f8ca 0000 	str.w	r0, [sl]
              if (puerto == -1) {
   b6684:	3001      	adds	r0, #1
   b6686:	d147      	bne.n	b6718 <loop+0x774>
                puerto = asignarPuerto(tagInfo[2]);
   b6688:	68a0      	ldr	r0, [r4, #8]
   b668a:	f7fe fd5d 	bl	b5148 <_Z13asignarPuertoi>
   b668e:	4601      	mov	r1, r0
   b6690:	f8ca 0000 	str.w	r0, [sl]
                showPort(tagInfo[2], puerto);
   b6694:	68a0      	ldr	r0, [r4, #8]
   b6696:	f7ff fb0d 	bl	b5cb4 <_Z8showPortii>
              if (puerto != -1) {
   b669a:	f8da 1000 	ldr.w	r1, [sl]
   b669e:	1c4b      	adds	r3, r1, #1
   b66a0:	d047      	beq.n	b6732 <loop+0x78e>
                newActuador.id = id;
   b66a2:	6838      	ldr	r0, [r7, #0]
                newActuador.bloque = numBloque;
   b66a4:	f8db 7000 	ldr.w	r7, [fp]
                bloques[numBloque].actuadores[numActuadoresBloque] = newActuador;
   b66a8:	f8d8 c000 	ldr.w	ip, [r8]
                newActuador.condicion = estado;
   b66ac:	f8d9 e000 	ldr.w	lr, [r9]
                bloques[numBloque].actuadores[numActuadoresBloque] = newActuador;
   b66b0:	f44f 733b 	mov.w	r3, #748	; 0x2ec
   b66b4:	fb03 f207 	mul.w	r2, r3, r7
   b66b8:	2314      	movs	r3, #20
   b66ba:	fb03 230c 	mla	r3, r3, ip, r2
   b66be:	442b      	add	r3, r5
   b66c0:	e9c3 7154 	strd	r7, r1, [r3, #336]	; 0x150
   b66c4:	2701      	movs	r7, #1
   b66c6:	e9c3 0e52 	strd	r0, lr, [r3, #328]	; 0x148
   b66ca:	f883 7158 	strb.w	r7, [r3, #344]	; 0x158
                numActuadoresBloque++;
   b66ce:	eb0c 0307 	add.w	r3, ip, r7
   b66d2:	f8c8 3000 	str.w	r3, [r8]
                bloques[numBloque].numActuadores++;
   b66d6:	18ab      	adds	r3, r5, r2
   b66d8:	f8d3 2144 	ldr.w	r2, [r3, #324]	; 0x144
   b66dc:	443a      	add	r2, r7
   b66de:	f8c3 2144 	str.w	r2, [r3, #324]	; 0x144
                if (id == 0)
   b66e2:	2800      	cmp	r0, #0
   b66e4:	f47f af45 	bne.w	b6572 <loop+0x5ce>
                  ledObject = ChainableLED(puerto, puerto+1, 5);
   b66e8:	b2c9      	uxtb	r1, r1
   b66ea:	19ca      	adds	r2, r1, r7
   b66ec:	f50d 7842 	add.w	r8, sp, #776	; 0x308
   b66f0:	2305      	movs	r3, #5
   b66f2:	b2d2      	uxtb	r2, r2
   b66f4:	4640      	mov	r0, r8
   b66f6:	f002 fb37 	bl	b8d68 <_ZN12ChainableLEDC1Ehhh>
   b66fa:	e898 0003 	ldmia.w	r8, {r0, r1}
   b66fe:	f8df 90b4 	ldr.w	r9, [pc, #180]	; b67b4 <loop+0x810>
   b6702:	e889 0003 	stmia.w	r9, {r0, r1}
   b6706:	4640      	mov	r0, r8
   b6708:	f002 fb3b 	bl	b8d82 <_ZN12ChainableLEDD1Ev>
                  ledObject.init();
   b670c:	4648      	mov	r0, r9
   b670e:	f002 fbdd 	bl	b8ecc <_ZN12ChainableLED4initEv>
                  init = true;
   b6712:	4b22      	ldr	r3, [pc, #136]	; (b679c <loop+0x7f8>)
   b6714:	701f      	strb	r7, [r3, #0]
   b6716:	e72c      	b.n	b6572 <loop+0x5ce>
                showBitmap(1,6,"");
   b6718:	4919      	ldr	r1, [pc, #100]	; (b6780 <loop+0x7dc>)
   b671a:	a8c2      	add	r0, sp, #776	; 0x308
   b671c:	f003 f825 	bl	b976a <_ZN6StringC1EPK19__FlashStringHelper>
   b6720:	aac2      	add	r2, sp, #776	; 0x308
   b6722:	2106      	movs	r1, #6
   b6724:	2001      	movs	r0, #1
   b6726:	f7ff f96f 	bl	b5a08 <_Z10showBitmapii6String>
   b672a:	a8c2      	add	r0, sp, #776	; 0x308
   b672c:	f002 ffd2 	bl	b96d4 <_ZN6StringD1Ev>
   b6730:	e7b3      	b.n	b669a <loop+0x6f6>
                Serial.println("Puerto no disponible");
   b6732:	f003 fae9 	bl	b9d08 <_Z16_fetch_usbserialv>
   b6736:	491a      	ldr	r1, [pc, #104]	; (b67a0 <loop+0x7fc>)
   b6738:	e757      	b.n	b65ea <loop+0x646>
            } else if ( THEN_pasado && ELSE_pasado && isValidActuador(estado, id) ) {
   b673a:	f7fe fb87 	bl	b4e4c <_Z15isValidActuadorii>
   b673e:	2800      	cmp	r0, #0
   b6740:	d13a      	bne.n	b67b8 <loop+0x814>
              if (!IF_pasado) {
   b6742:	4a18      	ldr	r2, [pc, #96]	; (b67a4 <loop+0x800>)
   b6744:	7812      	ldrb	r2, [r2, #0]
   b6746:	2a00      	cmp	r2, #0
   b6748:	f43f af3b 	beq.w	b65c2 <loop+0x61e>
              } else if (!THEN_pasado) {
   b674c:	9bb9      	ldr	r3, [sp, #740]	; 0x2e4
   b674e:	2b00      	cmp	r3, #0
   b6750:	f040 8091 	bne.w	b6876 <loop+0x8d2>
                Serial.println("Se esperaba THEN tag");
   b6754:	f003 fad8 	bl	b9d08 <_Z16_fetch_usbserialv>
   b6758:	4913      	ldr	r1, [pc, #76]	; (b67a8 <loop+0x804>)
   b675a:	e752      	b.n	b6602 <loop+0x65e>
   b675c:	000bb508 	.word	0x000bb508
   b6760:	000bb70c 	.word	0x000bb70c
   b6764:	000bb714 	.word	0x000bb714
   b6768:	2003cc84 	.word	0x2003cc84
   b676c:	000bb749 	.word	0x000bb749
   b6770:	2003da30 	.word	0x2003da30
   b6774:	2003da34 	.word	0x2003da34
   b6778:	2003da38 	.word	0x2003da38
   b677c:	000bb558 	.word	0x000bb558
   b6780:	000bafca 	.word	0x000bafca
   b6784:	000bb540 	.word	0x000bb540
   b6788:	000bb56b 	.word	0x000bb56b
   b678c:	000bb5a0 	.word	0x000bb5a0
   b6790:	000bb519 	.word	0x000bb519
   b6794:	2003cd30 	.word	0x2003cd30
   b6798:	2003cd20 	.word	0x2003cd20
   b679c:	2003d6f0 	.word	0x2003d6f0
   b67a0:	000bb330 	.word	0x000bb330
   b67a4:	2003cd21 	.word	0x2003cd21
   b67a8:	000bb5b0 	.word	0x000bb5b0
   b67ac:	2003da44 	.word	0x2003da44
   b67b0:	2003d6e8 	.word	0x2003d6e8
   b67b4:	2003d6f8 	.word	0x2003d6f8
              puerto = isNewActuador(id);
   b67b8:	4608      	mov	r0, r1
   b67ba:	f7fe fb81 	bl	b4ec0 <_Z13isNewActuadori>
   b67be:	f8df a3d0 	ldr.w	sl, [pc, #976]	; b6b90 <loop+0xbec>
   b67c2:	f8ca 0000 	str.w	r0, [sl]
              if (puerto == -1) {
   b67c6:	3001      	adds	r0, #1
   b67c8:	d148      	bne.n	b685c <loop+0x8b8>
                puerto = asignarPuerto(tagInfo[2]);
   b67ca:	68a0      	ldr	r0, [r4, #8]
   b67cc:	f7fe fcbc 	bl	b5148 <_Z13asignarPuertoi>
   b67d0:	4601      	mov	r1, r0
   b67d2:	f8ca 0000 	str.w	r0, [sl]
                showPort(tagInfo[2], puerto);
   b67d6:	68a0      	ldr	r0, [r4, #8]
   b67d8:	f7ff fa6c 	bl	b5cb4 <_Z8showPortii>
              if (puerto != -1) {
   b67dc:	f8da 1000 	ldr.w	r1, [sl]
   b67e0:	1c48      	adds	r0, r1, #1
   b67e2:	d0a6      	beq.n	b6732 <loop+0x78e>
                newActuador.bloque = numBloque;
   b67e4:	f8db c000 	ldr.w	ip, [fp]
                newActuador.id = id;
   b67e8:	6838      	ldr	r0, [r7, #0]
                bloques[numBloque].actuadores[numActuadoresBloque] = newActuador;
   b67ea:	f8d8 7000 	ldr.w	r7, [r8]
                newActuador.condicion = estado;
   b67ee:	f8d9 e000 	ldr.w	lr, [r9]
                bloques[numBloque].actuadores[numActuadoresBloque] = newActuador;
   b67f2:	f44f 733b 	mov.w	r3, #748	; 0x2ec
   b67f6:	fb03 f20c 	mul.w	r2, r3, ip
   b67fa:	2314      	movs	r3, #20
   b67fc:	fb03 2307 	mla	r3, r3, r7, r2
   b6800:	442b      	add	r3, r5
   b6802:	f503 79a4 	add.w	r9, r3, #328	; 0x148
   b6806:	e9c3 0e52 	strd	r0, lr, [r3, #328]	; 0x148
   b680a:	e9c3 c154 	strd	ip, r1, [r3, #336]	; 0x150
   b680e:	2300      	movs	r3, #0
   b6810:	f889 3010 	strb.w	r3, [r9, #16]
                bloques[numBloque].numActuadores++;
   b6814:	18ab      	adds	r3, r5, r2
                numActuadoresBloque++;
   b6816:	3701      	adds	r7, #1
                bloques[numBloque].numActuadores++;
   b6818:	f8d3 2144 	ldr.w	r2, [r3, #324]	; 0x144
                numActuadoresBloque++;
   b681c:	f8c8 7000 	str.w	r7, [r8]
                bloques[numBloque].numActuadores++;
   b6820:	3201      	adds	r2, #1
   b6822:	f8c3 2144 	str.w	r2, [r3, #324]	; 0x144
                if (id == 0)
   b6826:	2800      	cmp	r0, #0
   b6828:	f47f aea3 	bne.w	b6572 <loop+0x5ce>
                  ledObject = ChainableLED(puerto, puerto+1, 5);
   b682c:	b2c9      	uxtb	r1, r1
   b682e:	1c4a      	adds	r2, r1, #1
   b6830:	afc2      	add	r7, sp, #776	; 0x308
   b6832:	2305      	movs	r3, #5
   b6834:	b2d2      	uxtb	r2, r2
   b6836:	4638      	mov	r0, r7
   b6838:	f002 fa96 	bl	b8d68 <_ZN12ChainableLEDC1Ehhh>
   b683c:	e897 0003 	ldmia.w	r7, {r0, r1}
   b6840:	f8df 8350 	ldr.w	r8, [pc, #848]	; b6b94 <loop+0xbf0>
   b6844:	e888 0003 	stmia.w	r8, {r0, r1}
   b6848:	4638      	mov	r0, r7
   b684a:	f002 fa9a 	bl	b8d82 <_ZN12ChainableLEDD1Ev>
                  ledObject.init();
   b684e:	4640      	mov	r0, r8
   b6850:	f002 fb3c 	bl	b8ecc <_ZN12ChainableLED4initEv>
                  init = true;
   b6854:	4bab      	ldr	r3, [pc, #684]	; (b6b04 <loop+0xb60>)
   b6856:	2201      	movs	r2, #1
   b6858:	701a      	strb	r2, [r3, #0]
   b685a:	e68a      	b.n	b6572 <loop+0x5ce>
                showBitmap(1,6,"");
   b685c:	49aa      	ldr	r1, [pc, #680]	; (b6b08 <loop+0xb64>)
   b685e:	a8c2      	add	r0, sp, #776	; 0x308
   b6860:	f002 ff83 	bl	b976a <_ZN6StringC1EPK19__FlashStringHelper>
   b6864:	aac2      	add	r2, sp, #776	; 0x308
   b6866:	2106      	movs	r1, #6
   b6868:	2001      	movs	r0, #1
   b686a:	f7ff f8cd 	bl	b5a08 <_Z10showBitmapii6String>
   b686e:	a8c2      	add	r0, sp, #776	; 0x308
   b6870:	f002 ff30 	bl	b96d4 <_ZN6StringD1Ev>
   b6874:	e7b2      	b.n	b67dc <loop+0x838>
                if (!isValidActuador(estado, id)) {
   b6876:	6839      	ldr	r1, [r7, #0]
   b6878:	4650      	mov	r0, sl
   b687a:	f7fe fae7 	bl	b4e4c <_Z15isValidActuadorii>
   b687e:	b958      	cbnz	r0, b6898 <loop+0x8f4>
                  Serial.println("Invalid Actuador");
   b6880:	f003 fa42 	bl	b9d08 <_Z16_fetch_usbserialv>
   b6884:	49a1      	ldr	r1, [pc, #644]	; (b6b0c <loop+0xb68>)
   b6886:	f003 f83e 	bl	b9906 <_ZN5Print7printlnEPKc>
                  showBitmap(2,6,"");
   b688a:	499f      	ldr	r1, [pc, #636]	; (b6b08 <loop+0xb64>)
   b688c:	a8c2      	add	r0, sp, #776	; 0x308
   b688e:	f002 ff6c 	bl	b976a <_ZN6StringC1EPK19__FlashStringHelper>
   b6892:	aac2      	add	r2, sp, #776	; 0x308
   b6894:	2106      	movs	r1, #6
   b6896:	e6c9      	b.n	b662c <loop+0x688>
                } else if(!ELSE_pasado) {
   b6898:	4b9d      	ldr	r3, [pc, #628]	; (b6b10 <loop+0xb6c>)
   b689a:	781b      	ldrb	r3, [r3, #0]
   b689c:	2b00      	cmp	r3, #0
   b689e:	f47f ae68 	bne.w	b6572 <loop+0x5ce>
                  Serial.println("Se esperaba ELSE tag");
   b68a2:	f003 fa31 	bl	b9d08 <_Z16_fetch_usbserialv>
   b68a6:	499b      	ldr	r1, [pc, #620]	; (b6b14 <loop+0xb70>)
   b68a8:	e6ab      	b.n	b6602 <loop+0x65e>
            Serial.println("IF detectado");
   b68aa:	f003 fa2d 	bl	b9d08 <_Z16_fetch_usbserialv>
   b68ae:	499a      	ldr	r1, [pc, #616]	; (b6b18 <loop+0xb74>)
   b68b0:	f003 f829 	bl	b9906 <_ZN5Print7printlnEPKc>
            if (numBloque == -1 || ( numBloque == 0 && numActuadoresBloque > 0 ) ) {
   b68b4:	f8db 3000 	ldr.w	r3, [fp]
   b68b8:	1c5a      	adds	r2, r3, #1
   b68ba:	d004      	beq.n	b68c6 <loop+0x922>
   b68bc:	bb3b      	cbnz	r3, b690e <loop+0x96a>
   b68be:	f8d8 2000 	ldr.w	r2, [r8]
   b68c2:	2a00      	cmp	r2, #0
   b68c4:	dd23      	ble.n	b690e <loop+0x96a>
              IF_pasado = true;
   b68c6:	4a95      	ldr	r2, [pc, #596]	; (b6b1c <loop+0xb78>)
   b68c8:	2101      	movs	r1, #1
   b68ca:	7011      	strb	r1, [r2, #0]
              THEN_pasado = false;
   b68cc:	4a94      	ldr	r2, [pc, #592]	; (b6b20 <loop+0xb7c>)
              showBitmap(3,0,"IF");
   b68ce:	4995      	ldr	r1, [pc, #596]	; (b6b24 <loop+0xb80>)
              THEN_pasado = false;
   b68d0:	2700      	movs	r7, #0
   b68d2:	7017      	strb	r7, [r2, #0]
              ELSE_pasado = false;
   b68d4:	4a8e      	ldr	r2, [pc, #568]	; (b6b10 <loop+0xb6c>)
              numCondicionalesBloque = 0;
   b68d6:	f8ca 7000 	str.w	r7, [sl]
              ELSE_pasado = false;
   b68da:	7017      	strb	r7, [r2, #0]
              puertoAnalogico_bloque = 0;
   b68dc:	4a92      	ldr	r2, [pc, #584]	; (b6b28 <loop+0xb84>)
              numSensoresBloque = 0;
   b68de:	f8c9 7000 	str.w	r7, [r9]
              puertoAnalogico_bloque = 0;
   b68e2:	6017      	str	r7, [r2, #0]
              puertoDigital_bloque = 0;
   b68e4:	4a91      	ldr	r2, [pc, #580]	; (b6b2c <loop+0xb88>)
              numActuadoresBloque = 0;
   b68e6:	f8c8 7000 	str.w	r7, [r8]
              numBloque++;
   b68ea:	3301      	adds	r3, #1
              puertoDigital_bloque = 0;
   b68ec:	6017      	str	r7, [r2, #0]
              bloques[numBloque] = nuevoBloque;
   b68ee:	f44f 723b 	mov.w	r2, #748	; 0x2ec
              numBloque++;
   b68f2:	f8cb 3000 	str.w	r3, [fp]
              bloques[numBloque] = nuevoBloque;
   b68f6:	4353      	muls	r3, r2
   b68f8:	18ea      	adds	r2, r5, r3
   b68fa:	50ef      	str	r7, [r5, r3]
   b68fc:	f8c2 7144 	str.w	r7, [r2, #324]	; 0x144
              showBitmap(3,0,"THEN");
   b6900:	a8c2      	add	r0, sp, #776	; 0x308
   b6902:	f002 ff32 	bl	b976a <_ZN6StringC1EPK19__FlashStringHelper>
   b6906:	aac2      	add	r2, sp, #776	; 0x308
   b6908:	2100      	movs	r1, #0
   b690a:	2003      	movs	r0, #3
   b690c:	e68f      	b.n	b662e <loop+0x68a>
              Serial.println("Numero de bloques > 2 || Se necesita al menos un actuador para terminar el bloque");
   b690e:	f003 f9fb 	bl	b9d08 <_Z16_fetch_usbserialv>
   b6912:	4987      	ldr	r1, [pc, #540]	; (b6b30 <loop+0xb8c>)
   b6914:	e675      	b.n	b6602 <loop+0x65e>
            Serial.println("AND/OR detectado");
   b6916:	f003 f9f7 	bl	b9d08 <_Z16_fetch_usbserialv>
   b691a:	4986      	ldr	r1, [pc, #536]	; (b6b34 <loop+0xb90>)
   b691c:	f002 fff3 	bl	b9906 <_ZN5Print7printlnEPKc>
            if ( IF_pasado && (numCondicionalesBloque < numSensoresBloque) && numActuadoresBloque == 0) {
   b6920:	4b7e      	ldr	r3, [pc, #504]	; (b6b1c <loop+0xb78>)
   b6922:	781b      	ldrb	r3, [r3, #0]
   b6924:	2b00      	cmp	r3, #0
   b6926:	f43f ae4c 	beq.w	b65c2 <loop+0x61e>
   b692a:	f8da 3000 	ldr.w	r3, [sl]
   b692e:	f8d9 2000 	ldr.w	r2, [r9]
   b6932:	4293      	cmp	r3, r2
   b6934:	da1a      	bge.n	b696c <loop+0x9c8>
   b6936:	f8d8 7000 	ldr.w	r7, [r8]
   b693a:	b9cf      	cbnz	r7, b6970 <loop+0x9cc>
              bloques[numBloque].condiciones.condicionesBloque[numCondicionalesBloque] = tagInfo[2];
   b693c:	f8db 2000 	ldr.w	r2, [fp]
   b6940:	f8d4 8008 	ldr.w	r8, [r4, #8]
   b6944:	f44f 713b 	mov.w	r1, #748	; 0x2ec
   b6948:	fb01 5202 	mla	r2, r1, r2, r5
   b694c:	f1b8 0f00 	cmp.w	r8, #0
   b6950:	441a      	add	r2, r3
   b6952:	bf14      	ite	ne
   b6954:	2101      	movne	r1, #1
   b6956:	2100      	moveq	r1, #0
              numCondicionalesBloque++;
   b6958:	f103 0301 	add.w	r3, r3, #1
              bloques[numBloque].condiciones.condicionesBloque[numCondicionalesBloque] = tagInfo[2];
   b695c:	f882 12d8 	strb.w	r1, [r2, #728]	; 0x2d8
              numCondicionalesBloque++;
   b6960:	f8ca 3000 	str.w	r3, [sl]
              tagInfo[2]==0 ? showBitmap(3,0,"OR") : showBitmap(3,0,"AND");
   b6964:	bf0c      	ite	eq
   b6966:	4974      	ldreq	r1, [pc, #464]	; (b6b38 <loop+0xb94>)
   b6968:	4974      	ldrne	r1, [pc, #464]	; (b6b3c <loop+0xb98>)
   b696a:	e7c9      	b.n	b6900 <loop+0x95c>
              } else if ( numSensoresBloque >= numCondicionalesBloque ) {
   b696c:	f73f ae01 	bgt.w	b6572 <loop+0x5ce>
                Serial.println("Una concicion solo puede ir seguida de un sensor.");
   b6970:	f003 f9ca 	bl	b9d08 <_Z16_fetch_usbserialv>
   b6974:	4972      	ldr	r1, [pc, #456]	; (b6b40 <loop+0xb9c>)
   b6976:	e644      	b.n	b6602 <loop+0x65e>
            Serial.println("THEN detectado");
   b6978:	f003 f9c6 	bl	b9d08 <_Z16_fetch_usbserialv>
   b697c:	4971      	ldr	r1, [pc, #452]	; (b6b44 <loop+0xba0>)
   b697e:	f002 ffc2 	bl	b9906 <_ZN5Print7printlnEPKc>
            if ( IF_pasado && (numSensoresBloque > 0) && (numSensoresBloque > numCondicionalesBloque)) {
   b6982:	4b66      	ldr	r3, [pc, #408]	; (b6b1c <loop+0xb78>)
   b6984:	781b      	ldrb	r3, [r3, #0]
   b6986:	2b00      	cmp	r3, #0
   b6988:	f43f ae1b 	beq.w	b65c2 <loop+0x61e>
   b698c:	f8d9 3000 	ldr.w	r3, [r9]
   b6990:	2b00      	cmp	r3, #0
   b6992:	dd08      	ble.n	b69a6 <loop+0xa02>
   b6994:	f8da 2000 	ldr.w	r2, [sl]
   b6998:	4293      	cmp	r3, r2
   b699a:	dd04      	ble.n	b69a6 <loop+0xa02>
              THEN_pasado = true;
   b699c:	4b60      	ldr	r3, [pc, #384]	; (b6b20 <loop+0xb7c>)
              showBitmap(3,0,"THEN");
   b699e:	496a      	ldr	r1, [pc, #424]	; (b6b48 <loop+0xba4>)
              THEN_pasado = true;
   b69a0:	2201      	movs	r2, #1
   b69a2:	701a      	strb	r2, [r3, #0]
              showBitmap(3,0,"THEN");
   b69a4:	e7ac      	b.n	b6900 <loop+0x95c>
                Serial.println("Numero de sensores infucientes");
   b69a6:	f003 f9af 	bl	b9d08 <_Z16_fetch_usbserialv>
   b69aa:	4968      	ldr	r1, [pc, #416]	; (b6b4c <loop+0xba8>)
   b69ac:	e629      	b.n	b6602 <loop+0x65e>
            Serial.println("ELSE detectado");
   b69ae:	f003 f9ab 	bl	b9d08 <_Z16_fetch_usbserialv>
   b69b2:	4967      	ldr	r1, [pc, #412]	; (b6b50 <loop+0xbac>)
   b69b4:	f002 ffa7 	bl	b9906 <_ZN5Print7printlnEPKc>
            if ( IF_pasado && (numActuadoresBloque > 0)) {
   b69b8:	4b58      	ldr	r3, [pc, #352]	; (b6b1c <loop+0xb78>)
   b69ba:	781b      	ldrb	r3, [r3, #0]
   b69bc:	2b00      	cmp	r3, #0
   b69be:	f43f ae00 	beq.w	b65c2 <loop+0x61e>
   b69c2:	f8d8 3000 	ldr.w	r3, [r8]
   b69c6:	2b00      	cmp	r3, #0
   b69c8:	dd04      	ble.n	b69d4 <loop+0xa30>
              ELSE_pasado = true;
   b69ca:	4b51      	ldr	r3, [pc, #324]	; (b6b10 <loop+0xb6c>)
              showBitmap(3,0,"ELSE");
   b69cc:	4961      	ldr	r1, [pc, #388]	; (b6b54 <loop+0xbb0>)
              ELSE_pasado = true;
   b69ce:	2201      	movs	r2, #1
   b69d0:	701a      	strb	r2, [r3, #0]
              showBitmap(3,0,"ELSE");
   b69d2:	e795      	b.n	b6900 <loop+0x95c>
                Serial.println("Introduce un Actuador para la evaluacin a TRUE");
   b69d4:	f003 f998 	bl	b9d08 <_Z16_fetch_usbserialv>
   b69d8:	495f      	ldr	r1, [pc, #380]	; (b6b58 <loop+0xbb4>)
   b69da:	e612      	b.n	b6602 <loop+0x65e>
        if ( tagInfo[0] != -1 ) {
   b69dc:	3501      	adds	r5, #1
   b69de:	f43f acff 	beq.w	b63e0 <loop+0x43c>
          Serial.println("Tarjeta invlida para este modo");
   b69e2:	f003 f991 	bl	b9d08 <_Z16_fetch_usbserialv>
   b69e6:	495d      	ldr	r1, [pc, #372]	; (b6b5c <loop+0xbb8>)
   b69e8:	f002 ff8d 	bl	b9906 <_ZN5Print7printlnEPKc>
          showBitmap(2,0,"");
   b69ec:	4946      	ldr	r1, [pc, #280]	; (b6b08 <loop+0xb64>)
   b69ee:	a8c2      	add	r0, sp, #776	; 0x308
   b69f0:	f002 febb 	bl	b976a <_ZN6StringC1EPK19__FlashStringHelper>
   b69f4:	aac2      	add	r2, sp, #776	; 0x308
   b69f6:	2100      	movs	r1, #0
   b69f8:	e537      	b.n	b646a <loop+0x4c6>
      if ( (numBloque==0 && bloques[0].numActuadores>0) || numBloque==1 ) {
   b69fa:	2b01      	cmp	r3, #1
   b69fc:	f47f ad01 	bne.w	b6402 <loop+0x45e>
        valor = makeEvaluate(bloques[0]);
   b6a00:	4c57      	ldr	r4, [pc, #348]	; (b6b60 <loop+0xbbc>)
   b6a02:	f44f 7237 	mov.w	r2, #732	; 0x2dc
   b6a06:	f104 0110 	add.w	r1, r4, #16
   b6a0a:	4668      	mov	r0, sp
   b6a0c:	f004 f8d8 	bl	babc0 <memcpy>
   b6a10:	e894 000f 	ldmia.w	r4, {r0, r1, r2, r3}
   b6a14:	f7fe fa9c 	bl	b4f50 <_Z12makeEvaluate6BLOQUE>
   b6a18:	4c52      	ldr	r4, [pc, #328]	; (b6b64 <loop+0xbc0>)
        ejecutarEvaluacion(valor, 0);
   b6a1a:	2100      	movs	r1, #0
        valor = makeEvaluate(bloques[0]);
   b6a1c:	7020      	strb	r0, [r4, #0]
        ejecutarEvaluacion(valor, 0);
   b6a1e:	f7fe fac1 	bl	b4fa4 <_Z18ejecutarEvaluacionbi>
        valor ? snprintf(buf, sizeof(buf), "BLOQUE 1: TRUE") : snprintf(buf, sizeof(buf), "BLOQUE 1: FALSE");
   b6a22:	7823      	ldrb	r3, [r4, #0]
   b6a24:	2b00      	cmp	r3, #0
   b6a26:	d034      	beq.n	b6a92 <loop+0xaee>
   b6a28:	494f      	ldr	r1, [pc, #316]	; (b6b68 <loop+0xbc4>)
   b6a2a:	4850      	ldr	r0, [pc, #320]	; (b6b6c <loop+0xbc8>)
   b6a2c:	f004 f91c 	bl	bac68 <strcpy>
        display.println(buf);
   b6a30:	494e      	ldr	r1, [pc, #312]	; (b6b6c <loop+0xbc8>)
   b6a32:	484f      	ldr	r0, [pc, #316]	; (b6b70 <loop+0xbcc>)
   b6a34:	f002 ff67 	bl	b9906 <_ZN5Print7printlnEPKc>
      if ( numBloque==1 && bloques[1].numActuadores>0 ) {
   b6a38:	682d      	ldr	r5, [r5, #0]
   b6a3a:	2d01      	cmp	r5, #1
   b6a3c:	d11f      	bne.n	b6a7e <loop+0xada>
   b6a3e:	4c48      	ldr	r4, [pc, #288]	; (b6b60 <loop+0xbbc>)
   b6a40:	f8d4 3430 	ldr.w	r3, [r4, #1072]	; 0x430
   b6a44:	2b00      	cmp	r3, #0
   b6a46:	dd28      	ble.n	b6a9a <loop+0xaf6>
        valor = makeEvaluate(bloques[1]);
   b6a48:	f504 713f 	add.w	r1, r4, #764	; 0x2fc
   b6a4c:	f44f 7237 	mov.w	r2, #732	; 0x2dc
   b6a50:	4668      	mov	r0, sp
   b6a52:	f004 f8b5 	bl	babc0 <memcpy>
   b6a56:	f504 733b 	add.w	r3, r4, #748	; 0x2ec
   b6a5a:	cb0f      	ldmia	r3, {r0, r1, r2, r3}
   b6a5c:	f7fe fa78 	bl	b4f50 <_Z12makeEvaluate6BLOQUE>
   b6a60:	4c40      	ldr	r4, [pc, #256]	; (b6b64 <loop+0xbc0>)
        ejecutarEvaluacion(valor, 1);
   b6a62:	4629      	mov	r1, r5
        valor = makeEvaluate(bloques[1]);
   b6a64:	7020      	strb	r0, [r4, #0]
        ejecutarEvaluacion(valor, 1);
   b6a66:	f7fe fa9d 	bl	b4fa4 <_Z18ejecutarEvaluacionbi>
        valor ? snprintf(buf, sizeof(buf), "BLOQUE 2: TRUE") : snprintf(buf, sizeof(buf), "BLOQUE 2: FALSE");
   b6a6a:	7823      	ldrb	r3, [r4, #0]
   b6a6c:	b19b      	cbz	r3, b6a96 <loop+0xaf2>
   b6a6e:	4941      	ldr	r1, [pc, #260]	; (b6b74 <loop+0xbd0>)
        snprintf(buf, sizeof(buf), "BLOQUE 2:   no finalizado");
   b6a70:	483e      	ldr	r0, [pc, #248]	; (b6b6c <loop+0xbc8>)
   b6a72:	f004 f8f9 	bl	bac68 <strcpy>
        display.print(buf);
   b6a76:	493d      	ldr	r1, [pc, #244]	; (b6b6c <loop+0xbc8>)
   b6a78:	483d      	ldr	r0, [pc, #244]	; (b6b70 <loop+0xbcc>)
   b6a7a:	f002 ff31 	bl	b98e0 <_ZN5Print5printEPKc>
      display.display();
   b6a7e:	4c3c      	ldr	r4, [pc, #240]	; (b6b70 <loop+0xbcc>)
   b6a80:	4620      	mov	r0, r4
   b6a82:	f002 f8d7 	bl	b8c34 <_ZN16Adafruit_SSD13067displayEv>
      display.clearDisplay();
   b6a86:	4620      	mov	r0, r4
   b6a88:	f001 fe6c 	bl	b8764 <_ZN16Adafruit_SSD130612clearDisplayEv>
   b6a8c:	2300      	movs	r3, #0
   b6a8e:	6123      	str	r3, [r4, #16]
   b6a90:	e48e      	b.n	b63b0 <loop+0x40c>
        valor ? snprintf(buf, sizeof(buf), "BLOQUE 1: TRUE") : snprintf(buf, sizeof(buf), "BLOQUE 1: FALSE");
   b6a92:	4939      	ldr	r1, [pc, #228]	; (b6b78 <loop+0xbd4>)
   b6a94:	e7c9      	b.n	b6a2a <loop+0xa86>
        valor ? snprintf(buf, sizeof(buf), "BLOQUE 2: TRUE") : snprintf(buf, sizeof(buf), "BLOQUE 2: FALSE");
   b6a96:	4939      	ldr	r1, [pc, #228]	; (b6b7c <loop+0xbd8>)
   b6a98:	e7ea      	b.n	b6a70 <loop+0xacc>
        snprintf(buf, sizeof(buf), "BLOQUE 2:   no finalizado");
   b6a9a:	4939      	ldr	r1, [pc, #228]	; (b6b80 <loop+0xbdc>)
   b6a9c:	e7e8      	b.n	b6a70 <loop+0xacc>
    switch (tagInfo[0])
   b6a9e:	2d02      	cmp	r5, #2
   b6aa0:	f000 8083 	beq.w	b6baa <loop+0xc06>
   b6aa4:	2d06      	cmp	r5, #6
   b6aa6:	f040 81a2 	bne.w	b6dee <loop+0xe4a>
      switch (tagInfo[1])
   b6aaa:	6860      	ldr	r0, [r4, #4]
   b6aac:	2801      	cmp	r0, #1
   b6aae:	d014      	beq.n	b6ada <loop+0xb36>
   b6ab0:	2802      	cmp	r0, #2
   b6ab2:	d020      	beq.n	b6af6 <loop+0xb52>
   b6ab4:	b928      	cbnz	r0, b6ac2 <loop+0xb1e>
          cambioModo(tagInfo[2]);
   b6ab6:	68a0      	ldr	r0, [r4, #8]
   b6ab8:	f7ff fa30 	bl	b5f1c <_Z10cambioModoi>
          resetFunc();
   b6abc:	4b31      	ldr	r3, [pc, #196]	; (b6b84 <loop+0xbe0>)
   b6abe:	681b      	ldr	r3, [r3, #0]
   b6ac0:	4798      	blx	r3
    tagInfo[0] = -1;
   b6ac2:	f04f 33ff 	mov.w	r3, #4294967295
   b6ac6:	6023      	str	r3, [r4, #0]
    if (play) {
   b6ac8:	7833      	ldrb	r3, [r6, #0]
   b6aca:	2b00      	cmp	r3, #0
   b6acc:	f43f ac70 	beq.w	b63b0 <loop+0x40c>
      reproducir();
   b6ad0:	f7ff f9d6 	bl	b5e80 <_Z10reproducirv>
      play = false;
   b6ad4:	2300      	movs	r3, #0
   b6ad6:	7033      	strb	r3, [r6, #0]
   b6ad8:	e46a      	b.n	b63b0 <loop+0x40c>
          showBitmap(3,0,"Ejecutando...");   
   b6ada:	492b      	ldr	r1, [pc, #172]	; (b6b88 <loop+0xbe4>)
          play = true;
   b6adc:	7030      	strb	r0, [r6, #0]
            showBitmap(3,0,"Borrado completo realizado");
   b6ade:	a8c2      	add	r0, sp, #776	; 0x308
   b6ae0:	f002 fe43 	bl	b976a <_ZN6StringC1EPK19__FlashStringHelper>
   b6ae4:	aac2      	add	r2, sp, #776	; 0x308
   b6ae6:	2100      	movs	r1, #0
   b6ae8:	2003      	movs	r0, #3
        showBitmap(2,0,"");
   b6aea:	f7fe ff8d 	bl	b5a08 <_Z10showBitmapii6String>
   b6aee:	a8c2      	add	r0, sp, #776	; 0x308
   b6af0:	f002 fdf0 	bl	b96d4 <_ZN6StringD1Ev>
   b6af4:	e7e5      	b.n	b6ac2 <loop+0xb1e>
          if ( tagInfo[2] == 0 ) {
   b6af6:	68a5      	ldr	r5, [r4, #8]
   b6af8:	2d00      	cmp	r5, #0
   b6afa:	d14d      	bne.n	b6b98 <loop+0xbf4>
            borradoPOP();
   b6afc:	f7fe f886 	bl	b4c0c <_Z10borradoPOPv>
            showBitmap(3,0,"Borrada ultima lectura");
   b6b00:	4922      	ldr	r1, [pc, #136]	; (b6b8c <loop+0xbe8>)
   b6b02:	e7ec      	b.n	b6ade <loop+0xb3a>
   b6b04:	2003d6f0 	.word	0x2003d6f0
   b6b08:	000bafca 	.word	0x000bafca
   b6b0c:	000bb5c5 	.word	0x000bb5c5
   b6b10:	2003cd20 	.word	0x2003cd20
   b6b14:	000bb5d6 	.word	0x000bb5d6
   b6b18:	000bb5eb 	.word	0x000bb5eb
   b6b1c:	2003cd21 	.word	0x2003cd21
   b6b20:	2003cd30 	.word	0x2003cd30
   b6b24:	000bb5f8 	.word	0x000bb5f8
   b6b28:	2003da4c 	.word	0x2003da4c
   b6b2c:	2003da50 	.word	0x2003da50
   b6b30:	000bb5fb 	.word	0x000bb5fb
   b6b34:	000bb64d 	.word	0x000bb64d
   b6b38:	000bb59d 	.word	0x000bb59d
   b6b3c:	000bb65e 	.word	0x000bb65e
   b6b40:	000bb662 	.word	0x000bb662
   b6b44:	000bb694 	.word	0x000bb694
   b6b48:	000bb6a3 	.word	0x000bb6a3
   b6b4c:	000bb6a8 	.word	0x000bb6a8
   b6b50:	000bb6c7 	.word	0x000bb6c7
   b6b54:	000bb6d6 	.word	0x000bb6d6
   b6b58:	000bb6db 	.word	0x000bb6db
   b6b5c:	000bb76c 	.word	0x000bb76c
   b6b60:	2003cd34 	.word	0x2003cd34
   b6b64:	2003e6b8 	.word	0x2003e6b8
   b6b68:	000bb78d 	.word	0x000bb78d
   b6b6c:	2003d30d 	.word	0x2003d30d
   b6b70:	2003d358 	.word	0x2003d358
   b6b74:	000bb7bd 	.word	0x000bb7bd
   b6b78:	000bb79c 	.word	0x000bb79c
   b6b7c:	000bb7cc 	.word	0x000bb7cc
   b6b80:	000bb7dc 	.word	0x000bb7dc
   b6b84:	2003da54 	.word	0x2003da54
   b6b88:	000bb7f6 	.word	0x000bb7f6
   b6b8c:	000bb804 	.word	0x000bb804
   b6b90:	2003da44 	.word	0x2003da44
   b6b94:	2003d6f8 	.word	0x2003d6f8
          } else if ( tagInfo[2] == 1 ){
   b6b98:	2d01      	cmp	r5, #1
   b6b9a:	d103      	bne.n	b6ba4 <loop+0xc00>
            borradoALL(2);
   b6b9c:	f7fe f812 	bl	b4bc4 <_Z10borradoALLi>
            showBitmap(3,0,"Borrado completo realizado");
   b6ba0:	499a      	ldr	r1, [pc, #616]	; (b6e0c <loop+0xe68>)
   b6ba2:	e79c      	b.n	b6ade <loop+0xb3a>
            borradoBLOQUE(2);
   b6ba4:	f7ff f8d4 	bl	b5d50 <_Z13borradoBLOQUEi>
   b6ba8:	e78b      	b.n	b6ac2 <loop+0xb1e>
      switch (tagInfo[1])
   b6baa:	6863      	ldr	r3, [r4, #4]
   b6bac:	2b01      	cmp	r3, #1
   b6bae:	d078      	beq.n	b6ca2 <loop+0xcfe>
   b6bb0:	2b02      	cmp	r3, #2
   b6bb2:	f000 80bc 	beq.w	b6d2e <loop+0xd8a>
   b6bb6:	2b00      	cmp	r3, #0
   b6bb8:	d183      	bne.n	b6ac2 <loop+0xb1e>
        secuencia[posicion] = decodificarNOTA_msg(tagInfo[2])+decodificarTIPO_msg(tagInfo[3])+" - ";
   b6bba:	68a1      	ldr	r1, [r4, #8]
   b6bbc:	4d94      	ldr	r5, [pc, #592]	; (b6e10 <loop+0xe6c>)
   b6bbe:	4f95      	ldr	r7, [pc, #596]	; (b6e14 <loop+0xe70>)
   b6bc0:	a8ba      	add	r0, sp, #744	; 0x2e8
   b6bc2:	f7fe f893 	bl	b4cec <_Z19decodificarNOTA_msgi>
	StringSumHelper(const String &s) : String(s) {}
   b6bc6:	a9ba      	add	r1, sp, #744	; 0x2e8
   b6bc8:	a8c2      	add	r0, sp, #776	; 0x308
   b6bca:	f002 fdf1 	bl	b97b0 <_ZN6StringC1ERKS_>
   b6bce:	68e1      	ldr	r1, [r4, #12]
   b6bd0:	a8be      	add	r0, sp, #760	; 0x2f8
   b6bd2:	f7fe f8bd 	bl	b4d50 <_Z19decodificarTIPO_msgi>
   b6bd6:	a9be      	add	r1, sp, #760	; 0x2f8
   b6bd8:	a8c2      	add	r0, sp, #776	; 0x308
   b6bda:	f002 fe30 	bl	b983e <_ZplRK15StringSumHelperRK6String>
   b6bde:	498e      	ldr	r1, [pc, #568]	; (b6e18 <loop+0xe74>)
   b6be0:	f002 fe39 	bl	b9856 <_ZplRK15StringSumHelperPKc>
   b6be4:	4601      	mov	r1, r0
   b6be6:	6828      	ldr	r0, [r5, #0]
   b6be8:	eb07 1000 	add.w	r0, r7, r0, lsl #4
   b6bec:	f002 fdd1 	bl	b9792 <_ZN6StringaSERKS_>
   b6bf0:	a8be      	add	r0, sp, #760	; 0x2f8
   b6bf2:	f002 fd6f 	bl	b96d4 <_ZN6StringD1Ev>
class StringSumHelper : public String
   b6bf6:	a8c2      	add	r0, sp, #776	; 0x308
   b6bf8:	f002 fd6c 	bl	b96d4 <_ZN6StringD1Ev>
   b6bfc:	a8ba      	add	r0, sp, #744	; 0x2e8
   b6bfe:	f002 fd69 	bl	b96d4 <_ZN6StringD1Ev>
        if (posicion<23) {
   b6c02:	682b      	ldr	r3, [r5, #0]
   b6c04:	2b16      	cmp	r3, #22
   b6c06:	dc45      	bgt.n	b6c94 <loop+0xcf0>
	const char * c_str() const { return buffer; }
   b6c08:	011b      	lsls	r3, r3, #4
          snprintf(buf, sizeof(buf), secuencia[posicion]);
   b6c0a:	4884      	ldr	r0, [pc, #528]	; (b6e1c <loop+0xe78>)
   b6c0c:	58fa      	ldr	r2, [r7, r3]
   b6c0e:	2140      	movs	r1, #64	; 0x40
   b6c10:	f002 fbea 	bl	b93e8 <snprintf>
          display.print(buf);
   b6c14:	4981      	ldr	r1, [pc, #516]	; (b6e1c <loop+0xe78>)
   b6c16:	4882      	ldr	r0, [pc, #520]	; (b6e20 <loop+0xe7c>)
   b6c18:	f002 fe62 	bl	b98e0 <_ZN5Print5printEPKc>
          display.display();
   b6c1c:	4880      	ldr	r0, [pc, #512]	; (b6e20 <loop+0xe7c>)
   b6c1e:	f002 f809 	bl	b8c34 <_ZN16Adafruit_SSD13067displayEv>
        Serial.printlnf(decodificarNOTA_msg(tagInfo[2])+decodificarTIPO_msg(tagInfo[3]));
   b6c22:	f003 f871 	bl	b9d08 <_Z16_fetch_usbserialv>
   b6c26:	68a1      	ldr	r1, [r4, #8]
   b6c28:	4607      	mov	r7, r0
   b6c2a:	a8ba      	add	r0, sp, #744	; 0x2e8
   b6c2c:	f7fe f85e 	bl	b4cec <_Z19decodificarNOTA_msgi>
	StringSumHelper(const String &s) : String(s) {}
   b6c30:	a9ba      	add	r1, sp, #744	; 0x2e8
   b6c32:	a8c2      	add	r0, sp, #776	; 0x308
   b6c34:	f002 fdbc 	bl	b97b0 <_ZN6StringC1ERKS_>
   b6c38:	68e1      	ldr	r1, [r4, #12]
   b6c3a:	a8be      	add	r0, sp, #760	; 0x2f8
   b6c3c:	f7fe f888 	bl	b4d50 <_Z19decodificarTIPO_msgi>
   b6c40:	a9be      	add	r1, sp, #760	; 0x2f8
   b6c42:	a8c2      	add	r0, sp, #776	; 0x308
   b6c44:	f002 fdfb 	bl	b983e <_ZplRK15StringSumHelperRK6String>
   b6c48:	6801      	ldr	r1, [r0, #0]
   b6c4a:	4638      	mov	r0, r7
   b6c4c:	f7fd fa68 	bl	b4120 <_ZN5Print8printlnfEPKcz>
   b6c50:	a8be      	add	r0, sp, #760	; 0x2f8
   b6c52:	f002 fd3f 	bl	b96d4 <_ZN6StringD1Ev>
class StringSumHelper : public String
   b6c56:	a8c2      	add	r0, sp, #776	; 0x308
   b6c58:	f002 fd3c 	bl	b96d4 <_ZN6StringD1Ev>
   b6c5c:	a8ba      	add	r0, sp, #744	; 0x2e8
   b6c5e:	f002 fd39 	bl	b96d4 <_ZN6StringD1Ev>
        reproducirNOTA(tagInfo[2], tagInfo[3]);
   b6c62:	e9d4 0102 	ldrd	r0, r1, [r4, #8]
   b6c66:	f7fe f88d 	bl	b4d84 <_Z14reproducirNOTAii>
        notas[posicion] = tagInfo[2];
   b6c6a:	682b      	ldr	r3, [r5, #0]
   b6c6c:	4a6d      	ldr	r2, [pc, #436]	; (b6e24 <loop+0xe80>)
   b6c6e:	68a1      	ldr	r1, [r4, #8]
   b6c70:	f842 1023 	str.w	r1, [r2, r3, lsl #2]
        duraciones[posicion] = tagInfo[3];
   b6c74:	4a6c      	ldr	r2, [pc, #432]	; (b6e28 <loop+0xe84>)
   b6c76:	68e1      	ldr	r1, [r4, #12]
   b6c78:	f842 1023 	str.w	r1, [r2, r3, lsl #2]
        posicion++;
   b6c7c:	3301      	adds	r3, #1
   b6c7e:	602b      	str	r3, [r5, #0]
        if (bucle) {
   b6c80:	4b6a      	ldr	r3, [pc, #424]	; (b6e2c <loop+0xe88>)
   b6c82:	781b      	ldrb	r3, [r3, #0]
   b6c84:	2b00      	cmp	r3, #0
   b6c86:	f43f af1c 	beq.w	b6ac2 <loop+0xb1e>
          tam_bucle++;
   b6c8a:	4a69      	ldr	r2, [pc, #420]	; (b6e30 <loop+0xe8c>)
   b6c8c:	6813      	ldr	r3, [r2, #0]
   b6c8e:	3301      	adds	r3, #1
   b6c90:	6013      	str	r3, [r2, #0]
   b6c92:	e716      	b.n	b6ac2 <loop+0xb1e>
        } else if (posicion==23){
   b6c94:	2b17      	cmp	r3, #23
   b6c96:	d1c4      	bne.n	b6c22 <loop+0xc7e>
          snprintf(buf, sizeof(buf), "...");
   b6c98:	4966      	ldr	r1, [pc, #408]	; (b6e34 <loop+0xe90>)
   b6c9a:	4860      	ldr	r0, [pc, #384]	; (b6e1c <loop+0xe78>)
   b6c9c:	f003 ffe4 	bl	bac68 <strcpy>
   b6ca0:	e7b8      	b.n	b6c14 <loop+0xc70>
        if (!bucle) {
   b6ca2:	4f62      	ldr	r7, [pc, #392]	; (b6e2c <loop+0xe88>)
   b6ca4:	783b      	ldrb	r3, [r7, #0]
   b6ca6:	2b00      	cmp	r3, #0
   b6ca8:	d134      	bne.n	b6d14 <loop+0xd70>
          secuencia[posicion] = "Loop - ";
   b6caa:	4d59      	ldr	r5, [pc, #356]	; (b6e10 <loop+0xe6c>)
   b6cac:	f8df 8164 	ldr.w	r8, [pc, #356]	; b6e14 <loop+0xe70>
          Serial.println("Loop");
   b6cb0:	f003 f82a 	bl	b9d08 <_Z16_fetch_usbserialv>
   b6cb4:	4960      	ldr	r1, [pc, #384]	; (b6e38 <loop+0xe94>)
   b6cb6:	f002 fe26 	bl	b9906 <_ZN5Print7printlnEPKc>
          secuencia[posicion] = "Loop - ";
   b6cba:	6828      	ldr	r0, [r5, #0]
   b6cbc:	495f      	ldr	r1, [pc, #380]	; (b6e3c <loop+0xe98>)
   b6cbe:	eb08 1000 	add.w	r0, r8, r0, lsl #4
   b6cc2:	f002 fd80 	bl	b97c6 <_ZN6StringaSEPKc>
          if (posicion<23) {
   b6cc6:	682b      	ldr	r3, [r5, #0]
   b6cc8:	2b16      	cmp	r3, #22
   b6cca:	dc1c      	bgt.n	b6d06 <loop+0xd62>
	const char * c_str() const { return buffer; }
   b6ccc:	011b      	lsls	r3, r3, #4
            snprintf(buf, sizeof(buf), secuencia[posicion]);
   b6cce:	4853      	ldr	r0, [pc, #332]	; (b6e1c <loop+0xe78>)
   b6cd0:	f858 2003 	ldr.w	r2, [r8, r3]
   b6cd4:	2140      	movs	r1, #64	; 0x40
   b6cd6:	f002 fb87 	bl	b93e8 <snprintf>
            display.print(buf);
   b6cda:	4950      	ldr	r1, [pc, #320]	; (b6e1c <loop+0xe78>)
   b6cdc:	4850      	ldr	r0, [pc, #320]	; (b6e20 <loop+0xe7c>)
   b6cde:	f002 fdff 	bl	b98e0 <_ZN5Print5printEPKc>
            display.display();
   b6ce2:	484f      	ldr	r0, [pc, #316]	; (b6e20 <loop+0xe7c>)
   b6ce4:	f001 ffa6 	bl	b8c34 <_ZN16Adafruit_SSD13067displayEv>
          notas[posicion] = -1;
   b6ce8:	682b      	ldr	r3, [r5, #0]
   b6cea:	4a4e      	ldr	r2, [pc, #312]	; (b6e24 <loop+0xe80>)
   b6cec:	f04f 31ff 	mov.w	r1, #4294967295
   b6cf0:	f842 1023 	str.w	r1, [r2, r3, lsl #2]
          duraciones[posicion] = 0;
   b6cf4:	4a4c      	ldr	r2, [pc, #304]	; (b6e28 <loop+0xe84>)
   b6cf6:	2100      	movs	r1, #0
   b6cf8:	f842 1023 	str.w	r1, [r2, r3, lsl #2]
          posicion++;
   b6cfc:	3301      	adds	r3, #1
   b6cfe:	602b      	str	r3, [r5, #0]
          bucle = true;
   b6d00:	2301      	movs	r3, #1
   b6d02:	703b      	strb	r3, [r7, #0]
   b6d04:	e6dd      	b.n	b6ac2 <loop+0xb1e>
          } else if (posicion==23){
   b6d06:	2b17      	cmp	r3, #23
   b6d08:	d1ee      	bne.n	b6ce8 <loop+0xd44>
            snprintf(buf, sizeof(buf), "...");
   b6d0a:	494a      	ldr	r1, [pc, #296]	; (b6e34 <loop+0xe90>)
   b6d0c:	4843      	ldr	r0, [pc, #268]	; (b6e1c <loop+0xe78>)
   b6d0e:	f003 ffab 	bl	bac68 <strcpy>
   b6d12:	e7e2      	b.n	b6cda <loop+0xd36>
          Serial.println("Para comenzar un loop hay que finalizar el anterior.");
   b6d14:	f002 fff8 	bl	b9d08 <_Z16_fetch_usbserialv>
   b6d18:	4949      	ldr	r1, [pc, #292]	; (b6e40 <loop+0xe9c>)
          Serial.println("Loop sin comenzar o sin contenido");
   b6d1a:	f002 fdf4 	bl	b9906 <_ZN5Print7printlnEPKc>
          showBitmap(2,2,"");
   b6d1e:	4949      	ldr	r1, [pc, #292]	; (b6e44 <loop+0xea0>)
   b6d20:	a8c2      	add	r0, sp, #776	; 0x308
   b6d22:	f002 fd22 	bl	b976a <_ZN6StringC1EPK19__FlashStringHelper>
   b6d26:	aac2      	add	r2, sp, #776	; 0x308
   b6d28:	2102      	movs	r1, #2
        showBitmap(2,0,"");
   b6d2a:	2002      	movs	r0, #2
   b6d2c:	e6dd      	b.n	b6aea <loop+0xb46>
        if (bucle && tam_bucle>0) {
   b6d2e:	4f3f      	ldr	r7, [pc, #252]	; (b6e2c <loop+0xe88>)
   b6d30:	783b      	ldrb	r3, [r7, #0]
   b6d32:	2b00      	cmp	r3, #0
   b6d34:	d057      	beq.n	b6de6 <loop+0xe42>
   b6d36:	f8df 80f8 	ldr.w	r8, [pc, #248]	; b6e30 <loop+0xe8c>
   b6d3a:	f8d8 3000 	ldr.w	r3, [r8]
   b6d3e:	2b00      	cmp	r3, #0
   b6d40:	dd51      	ble.n	b6de6 <loop+0xe42>
          Serial.println("END Loop");
   b6d42:	f002 ffe1 	bl	b9d08 <_Z16_fetch_usbserialv>
   b6d46:	4940      	ldr	r1, [pc, #256]	; (b6e48 <loop+0xea4>)
          secuencia[posicion] = String(tagInfo[2]+2)+"rep - ";
   b6d48:	4d31      	ldr	r5, [pc, #196]	; (b6e10 <loop+0xe6c>)
   b6d4a:	f8df 90c8 	ldr.w	r9, [pc, #200]	; b6e14 <loop+0xe70>
          Serial.println("END Loop");
   b6d4e:	f002 fdda 	bl	b9906 <_ZN5Print7printlnEPKc>
          secuencia[posicion] = String(tagInfo[2]+2)+"rep - ";
   b6d52:	68a1      	ldr	r1, [r4, #8]
   b6d54:	220a      	movs	r2, #10
   b6d56:	3102      	adds	r1, #2
   b6d58:	a8be      	add	r0, sp, #760	; 0x2f8
   b6d5a:	f002 fd46 	bl	b97ea <_ZN6StringC1Eih>
	StringSumHelper(const String &s) : String(s) {}
   b6d5e:	a9be      	add	r1, sp, #760	; 0x2f8
   b6d60:	a8c2      	add	r0, sp, #776	; 0x308
   b6d62:	f002 fd25 	bl	b97b0 <_ZN6StringC1ERKS_>
   b6d66:	4939      	ldr	r1, [pc, #228]	; (b6e4c <loop+0xea8>)
   b6d68:	a8c2      	add	r0, sp, #776	; 0x308
   b6d6a:	f002 fd74 	bl	b9856 <_ZplRK15StringSumHelperPKc>
   b6d6e:	4601      	mov	r1, r0
   b6d70:	6828      	ldr	r0, [r5, #0]
   b6d72:	eb09 1000 	add.w	r0, r9, r0, lsl #4
   b6d76:	f002 fd0c 	bl	b9792 <_ZN6StringaSERKS_>
class StringSumHelper : public String
   b6d7a:	a8c2      	add	r0, sp, #776	; 0x308
   b6d7c:	f002 fcaa 	bl	b96d4 <_ZN6StringD1Ev>
   b6d80:	a8be      	add	r0, sp, #760	; 0x2f8
   b6d82:	f002 fca7 	bl	b96d4 <_ZN6StringD1Ev>
          if (posicion<23) {
   b6d86:	682b      	ldr	r3, [r5, #0]
   b6d88:	2b16      	cmp	r3, #22
   b6d8a:	dc25      	bgt.n	b6dd8 <loop+0xe34>
	const char * c_str() const { return buffer; }
   b6d8c:	011b      	lsls	r3, r3, #4
            snprintf(buf, sizeof(buf), secuencia[posicion]);
   b6d8e:	4823      	ldr	r0, [pc, #140]	; (b6e1c <loop+0xe78>)
   b6d90:	f859 2003 	ldr.w	r2, [r9, r3]
   b6d94:	2140      	movs	r1, #64	; 0x40
   b6d96:	f002 fb27 	bl	b93e8 <snprintf>
            display.print(buf);
   b6d9a:	4920      	ldr	r1, [pc, #128]	; (b6e1c <loop+0xe78>)
   b6d9c:	4820      	ldr	r0, [pc, #128]	; (b6e20 <loop+0xe7c>)
   b6d9e:	f002 fd9f 	bl	b98e0 <_ZN5Print5printEPKc>
            display.display();
   b6da2:	481f      	ldr	r0, [pc, #124]	; (b6e20 <loop+0xe7c>)
   b6da4:	f001 ff46 	bl	b8c34 <_ZN16Adafruit_SSD13067displayEv>
          notas[posicion] = -2;
   b6da8:	682b      	ldr	r3, [r5, #0]
   b6daa:	4a1e      	ldr	r2, [pc, #120]	; (b6e24 <loop+0xe80>)
          duraciones[posicion] = tam_bucle; // Almacenamos el tamao del bucle en la posicion donde acaba
   b6dac:	481e      	ldr	r0, [pc, #120]	; (b6e28 <loop+0xe84>)
          notas[posicion] = -2;
   b6dae:	f06f 0101 	mvn.w	r1, #1
   b6db2:	f842 1023 	str.w	r1, [r2, r3, lsl #2]
          duraciones[posicion] = tam_bucle; // Almacenamos el tamao del bucle en la posicion donde acaba
   b6db6:	f8d8 2000 	ldr.w	r2, [r8]
   b6dba:	f840 2023 	str.w	r2, [r0, r3, lsl #2]
          duraciones[posicion - (tam_bucle+1)] = tagInfo[2]+2; // Almacenamos el num de iteraciones en la posicion de inicio del bucle
   b6dbe:	68a1      	ldr	r1, [r4, #8]
   b6dc0:	3201      	adds	r2, #1
   b6dc2:	1a9a      	subs	r2, r3, r2
          posicion++;
   b6dc4:	3301      	adds	r3, #1
          duraciones[posicion - (tam_bucle+1)] = tagInfo[2]+2; // Almacenamos el num de iteraciones en la posicion de inicio del bucle
   b6dc6:	3102      	adds	r1, #2
          posicion++;
   b6dc8:	602b      	str	r3, [r5, #0]
          bucle = false;
   b6dca:	2300      	movs	r3, #0
          duraciones[posicion - (tam_bucle+1)] = tagInfo[2]+2; // Almacenamos el num de iteraciones en la posicion de inicio del bucle
   b6dcc:	f840 1022 	str.w	r1, [r0, r2, lsl #2]
          bucle = false;
   b6dd0:	703b      	strb	r3, [r7, #0]
          tam_bucle = 0;
   b6dd2:	f8c8 3000 	str.w	r3, [r8]
   b6dd6:	e674      	b.n	b6ac2 <loop+0xb1e>
          } else if (posicion==23){
   b6dd8:	2b17      	cmp	r3, #23
   b6dda:	d1e5      	bne.n	b6da8 <loop+0xe04>
            snprintf(buf, sizeof(buf), "...");
   b6ddc:	4915      	ldr	r1, [pc, #84]	; (b6e34 <loop+0xe90>)
   b6dde:	480f      	ldr	r0, [pc, #60]	; (b6e1c <loop+0xe78>)
   b6de0:	f003 ff42 	bl	bac68 <strcpy>
   b6de4:	e7d9      	b.n	b6d9a <loop+0xdf6>
          Serial.println("Loop sin comenzar o sin contenido");
   b6de6:	f002 ff8f 	bl	b9d08 <_Z16_fetch_usbserialv>
   b6dea:	4919      	ldr	r1, [pc, #100]	; (b6e50 <loop+0xeac>)
   b6dec:	e795      	b.n	b6d1a <loop+0xd76>
      if ( tagInfo[0] != -1 ) {
   b6dee:	3501      	adds	r5, #1
   b6df0:	f43f ae67 	beq.w	b6ac2 <loop+0xb1e>
        Serial.println("Tarjeta invlida para este modo");
   b6df4:	f002 ff88 	bl	b9d08 <_Z16_fetch_usbserialv>
   b6df8:	4916      	ldr	r1, [pc, #88]	; (b6e54 <loop+0xeb0>)
   b6dfa:	f002 fd84 	bl	b9906 <_ZN5Print7printlnEPKc>
        showBitmap(2,0,"");
   b6dfe:	4911      	ldr	r1, [pc, #68]	; (b6e44 <loop+0xea0>)
   b6e00:	a8c2      	add	r0, sp, #776	; 0x308
   b6e02:	f002 fcb2 	bl	b976a <_ZN6StringC1EPK19__FlashStringHelper>
   b6e06:	aac2      	add	r2, sp, #776	; 0x308
   b6e08:	2100      	movs	r1, #0
   b6e0a:	e78e      	b.n	b6d2a <loop+0xd86>
   b6e0c:	000bb4c9 	.word	0x000bb4c9
   b6e10:	2003da40 	.word	0x2003da40
   b6e14:	2003da58 	.word	0x2003da58
   b6e18:	000bb864 	.word	0x000bb864
   b6e1c:	2003d30d 	.word	0x2003d30d
   b6e20:	2003d358 	.word	0x2003d358
   b6e24:	2003d710 	.word	0x2003d710
   b6e28:	2003d3c8 	.word	0x2003d3c8
   b6e2c:	2003d30c 	.word	0x2003d30c
   b6e30:	2003dc40 	.word	0x2003dc40
   b6e34:	000bb4a8 	.word	0x000bb4a8
   b6e38:	000bb85c 	.word	0x000bb85c
   b6e3c:	000bb81b 	.word	0x000bb81b
   b6e40:	000bb823 	.word	0x000bb823
   b6e44:	000bafca 	.word	0x000bafca
   b6e48:	000bb858 	.word	0x000bb858
   b6e4c:	000bb861 	.word	0x000bb861
   b6e50:	000bb868 	.word	0x000bb868
   b6e54:	000bb76c 	.word	0x000bb76c

000b6e58 <_ZN8particle11SPISettingsD1Ev>:
  SPISettings()
  {
  }

  virtual ~SPISettings() {
  }
   b6e58:	4770      	bx	lr

000b6e5a <_ZN8particle11SPISettingsD0Ev>:
  virtual ~SPISettings() {
   b6e5a:	b510      	push	{r4, lr}
  }
   b6e5c:	2110      	movs	r1, #16
  virtual ~SPISettings() {
   b6e5e:	4604      	mov	r4, r0
  }
   b6e60:	f7fd f91b 	bl	b409a <_ZdlPvj>
   b6e64:	4620      	mov	r0, r4
   b6e66:	bd10      	pop	{r4, pc}

000b6e68 <_ZNK8particle11SPISettings7printToER5Print>:
  bool operator!=(const SPISettings& other) const
  {
    return !(other == *this);
  }

  virtual size_t printTo(Print& p) const
   b6e68:	b573      	push	{r0, r1, r4, r5, r6, lr}
   b6e6a:	4604      	mov	r4, r0
   b6e6c:	4608      	mov	r0, r1
  {
    if (default_ && clock_ == 0)
   b6e6e:	7922      	ldrb	r2, [r4, #4]
   b6e70:	68a3      	ldr	r3, [r4, #8]
   b6e72:	b132      	cbz	r2, b6e82 <_ZNK8particle11SPISettings7printToER5Print+0x1a>
   b6e74:	b9a3      	cbnz	r3, b6ea0 <_ZNK8particle11SPISettings7printToER5Print+0x38>
      return p.print("<SPISettings default>");
   b6e76:	490b      	ldr	r1, [pc, #44]	; (b6ea4 <_ZNK8particle11SPISettings7printToER5Print+0x3c>)
    else
      return p.printf("<SPISettings %s%u %s MODE%u>", default_ ? "default " : "", (unsigned int)clock_,
          bitOrder_ == MSBFIRST ? "MSB" : "LSB", (unsigned int)dataMode_);
  }
   b6e78:	b002      	add	sp, #8
   b6e7a:	e8bd 4070 	ldmia.w	sp!, {r4, r5, r6, lr}
      return p.print("<SPISettings default>");
   b6e7e:	f002 bd2f 	b.w	b98e0 <_ZN5Print5printEPKc>
      return p.printf("<SPISettings %s%u %s MODE%u>", default_ ? "default " : "", (unsigned int)clock_,
   b6e82:	4a09      	ldr	r2, [pc, #36]	; (b6ea8 <_ZNK8particle11SPISettings7printToER5Print+0x40>)
   b6e84:	7b26      	ldrb	r6, [r4, #12]
   b6e86:	4d09      	ldr	r5, [pc, #36]	; (b6eac <_ZNK8particle11SPISettings7printToER5Print+0x44>)
   b6e88:	4909      	ldr	r1, [pc, #36]	; (b6eb0 <_ZNK8particle11SPISettings7printToER5Print+0x48>)
   b6e8a:	7b64      	ldrb	r4, [r4, #13]
   b6e8c:	2e01      	cmp	r6, #1
   b6e8e:	bf18      	it	ne
   b6e90:	4629      	movne	r1, r5
   b6e92:	e9cd 1400 	strd	r1, r4, [sp]
   b6e96:	4907      	ldr	r1, [pc, #28]	; (b6eb4 <_ZNK8particle11SPISettings7printToER5Print+0x4c>)
   b6e98:	f7fd f934 	bl	b4104 <_ZN5Print6printfEPKcz>
  }
   b6e9c:	b002      	add	sp, #8
   b6e9e:	bd70      	pop	{r4, r5, r6, pc}
      return p.printf("<SPISettings %s%u %s MODE%u>", default_ ? "default " : "", (unsigned int)clock_,
   b6ea0:	4a05      	ldr	r2, [pc, #20]	; (b6eb8 <_ZNK8particle11SPISettings7printToER5Print+0x50>)
   b6ea2:	e7ef      	b.n	b6e84 <_ZNK8particle11SPISettings7printToER5Print+0x1c>
   b6ea4:	000bbca7 	.word	0x000bbca7
   b6ea8:	000bafca 	.word	0x000bafca
   b6eac:	000bbca3 	.word	0x000bbca3
   b6eb0:	000bbc9f 	.word	0x000bbc9f
   b6eb4:	000bbcbd 	.word	0x000bbcbd
   b6eb8:	000bbc96 	.word	0x000bbc96

000b6ebc <_ZN12Adafruit_GFX9writeLineEsssst>:
    @param    y1  End point y coordinate
    @param    color 16-bit 5-6-5 Color to draw with
*/
/**************************************************************************/
void Adafruit_GFX::writeLine(int16_t x0, int16_t y0, int16_t x1, int16_t y1,
        uint16_t color) {
   b6ebc:	e92d 4ff0 	stmdb	sp!, {r4, r5, r6, r7, r8, r9, sl, fp, lr}
   b6ec0:	b085      	sub	sp, #20
   b6ec2:	461f      	mov	r7, r3
   b6ec4:	f9bd 8038 	ldrsh.w	r8, [sp, #56]	; 0x38
   b6ec8:	f8bd 303c 	ldrh.w	r3, [sp, #60]	; 0x3c
#if defined(ESP8266)
    yield();
#endif
    int16_t steep = abs(y1 - y0) > abs(x1 - x0);
   b6ecc:	eba8 0902 	sub.w	r9, r8, r2
   b6ed0:	eba7 0a01 	sub.w	sl, r7, r1
   b6ed4:	f1b9 0f00 	cmp.w	r9, #0
   b6ed8:	bfb8      	it	lt
   b6eda:	f1c9 0900 	rsblt	r9, r9, #0
   b6ede:	f1ba 0f00 	cmp.w	sl, #0
   b6ee2:	bfb8      	it	lt
   b6ee4:	f1ca 0a00 	rsblt	sl, sl, #0
    if (steep) {
   b6ee8:	45d1      	cmp	r9, sl
        uint16_t color) {
   b6eea:	4683      	mov	fp, r0
   b6eec:	460c      	mov	r4, r1
   b6eee:	4615      	mov	r5, r2
    if (steep) {
   b6ef0:	dd04      	ble.n	b6efc <_ZN12Adafruit_GFX9writeLineEsssst+0x40>
   b6ef2:	463a      	mov	r2, r7
        _swap_int16_t(x0, y0);
   b6ef4:	462c      	mov	r4, r5
        _swap_int16_t(x1, y1);
   b6ef6:	4647      	mov	r7, r8
        _swap_int16_t(x0, y0);
   b6ef8:	460d      	mov	r5, r1
        _swap_int16_t(x1, y1);
   b6efa:	4690      	mov	r8, r2
    }

    if (x0 > x1) {
   b6efc:	42bc      	cmp	r4, r7
   b6efe:	dd05      	ble.n	b6f0c <_ZN12Adafruit_GFX9writeLineEsssst+0x50>
   b6f00:	462a      	mov	r2, r5
        _swap_int16_t(x0, x1);
        _swap_int16_t(y0, y1);
   b6f02:	4645      	mov	r5, r8
   b6f04:	4690      	mov	r8, r2
    if (x0 > x1) {
   b6f06:	4622      	mov	r2, r4
   b6f08:	463c      	mov	r4, r7
   b6f0a:	4617      	mov	r7, r2
    }

    int16_t dx, dy;
    dx = x1 - x0;
   b6f0c:	1b3e      	subs	r6, r7, r4
   b6f0e:	b2b2      	uxth	r2, r6
   b6f10:	9200      	str	r2, [sp, #0]
    dy = abs(y1 - y0);
   b6f12:	eba8 0205 	sub.w	r2, r8, r5
   b6f16:	ea82 71e2 	eor.w	r1, r2, r2, asr #31
   b6f1a:	eba1 71e2 	sub.w	r1, r1, r2, asr #31

    int16_t err = dx / 2;
   b6f1e:	f3c6 32c0 	ubfx	r2, r6, #15, #1
   b6f22:	fa02 f686 	sxtah	r6, r2, r6
    int16_t ystep;

    if (y0 < y1) {
        ystep = 1;
    } else {
        ystep = -1;
   b6f26:	4545      	cmp	r5, r8
   b6f28:	bfb4      	ite	lt
   b6f2a:	2201      	movlt	r2, #1
   b6f2c:	f04f 32ff 	movge.w	r2, #4294967295
    dy = abs(y1 - y0);
   b6f30:	9101      	str	r1, [sp, #4]
    int16_t err = dx / 2;
   b6f32:	1076      	asrs	r6, r6, #1
        ystep = -1;
   b6f34:	9202      	str	r2, [sp, #8]
    }

    for (; x0<=x1; x0++) {
   b6f36:	42bc      	cmp	r4, r7
   b6f38:	dc1c      	bgt.n	b6f74 <_ZN12Adafruit_GFX9writeLineEsssst+0xb8>
        if (steep) {
            writePixel(y0, x0, color);
   b6f3a:	f8db 2000 	ldr.w	r2, [fp]
   b6f3e:	9303      	str	r3, [sp, #12]
        if (steep) {
   b6f40:	45d1      	cmp	r9, sl
            writePixel(y0, x0, color);
   b6f42:	f8d2 8018 	ldr.w	r8, [r2, #24]
   b6f46:	bfc7      	ittee	gt
   b6f48:	4629      	movgt	r1, r5
   b6f4a:	4622      	movgt	r2, r4
        } else {
            writePixel(x0, y0, color);
   b6f4c:	462a      	movle	r2, r5
   b6f4e:	4621      	movle	r1, r4
   b6f50:	4658      	mov	r0, fp
   b6f52:	47c0      	blx	r8
        }
        err -= dy;
   b6f54:	9a01      	ldr	r2, [sp, #4]
            writePixel(x0, y0, color);
   b6f56:	9b03      	ldr	r3, [sp, #12]
        err -= dy;
   b6f58:	1ab6      	subs	r6, r6, r2
   b6f5a:	b2b1      	uxth	r1, r6
   b6f5c:	b236      	sxth	r6, r6
        if (err < 0) {
   b6f5e:	2e00      	cmp	r6, #0
   b6f60:	da05      	bge.n	b6f6e <_ZN12Adafruit_GFX9writeLineEsssst+0xb2>
            y0 += ystep;
   b6f62:	9a02      	ldr	r2, [sp, #8]
   b6f64:	4415      	add	r5, r2
            err += dx;
   b6f66:	9a00      	ldr	r2, [sp, #0]
   b6f68:	1856      	adds	r6, r2, r1
            y0 += ystep;
   b6f6a:	b22d      	sxth	r5, r5
            err += dx;
   b6f6c:	b236      	sxth	r6, r6
    for (; x0<=x1; x0++) {
   b6f6e:	3401      	adds	r4, #1
   b6f70:	b224      	sxth	r4, r4
   b6f72:	e7e0      	b.n	b6f36 <_ZN12Adafruit_GFX9writeLineEsssst+0x7a>
        }
    }
}
   b6f74:	b005      	add	sp, #20
   b6f76:	e8bd 8ff0 	ldmia.w	sp!, {r4, r5, r6, r7, r8, r9, sl, fp, pc}

000b6f7a <_ZN12Adafruit_GFX10startWriteEv>:
/*!
   @brief    Start a display-writing routine, overwrite in subclasses.
*/
/**************************************************************************/
void Adafruit_GFX::startWrite(){
}
   b6f7a:	4770      	bx	lr

000b6f7c <_ZN12Adafruit_GFX10writePixelEsst>:
    @param   x   x coordinate
    @param   y   y coordinate
   @param    color 16-bit 5-6-5 Color to fill with
*/
/**************************************************************************/
void Adafruit_GFX::writePixel(int16_t x, int16_t y, uint16_t color){
   b6f7c:	b410      	push	{r4}
    drawPixel(x, y, color);
   b6f7e:	6804      	ldr	r4, [r0, #0]
   b6f80:	6924      	ldr	r4, [r4, #16]
   b6f82:	46a4      	mov	ip, r4
}
   b6f84:	f85d 4b04 	ldr.w	r4, [sp], #4
    drawPixel(x, y, color);
   b6f88:	4760      	bx	ip

000b6f8a <_ZN12Adafruit_GFX14writeFastVLineEssst>:
    @param    h   Height in pixels
   @param    color 16-bit 5-6-5 Color to fill with
*/
/**************************************************************************/
void Adafruit_GFX::writeFastVLine(int16_t x, int16_t y,
        int16_t h, uint16_t color) {
   b6f8a:	b430      	push	{r4, r5}
    // Overwrite in subclasses if startWrite is defined!
    // Can be just writeLine(x, y, x, y+h-1, color);
    // or writeFillRect(x, y, 1, h, color);
    drawFastVLine(x, y, h, color);
   b6f8c:	6804      	ldr	r4, [r0, #0]
        int16_t h, uint16_t color) {
   b6f8e:	f8bd 5008 	ldrh.w	r5, [sp, #8]
    drawFastVLine(x, y, h, color);
   b6f92:	9502      	str	r5, [sp, #8]
   b6f94:	6ba4      	ldr	r4, [r4, #56]	; 0x38
   b6f96:	46a4      	mov	ip, r4
}
   b6f98:	bc30      	pop	{r4, r5}
    drawFastVLine(x, y, h, color);
   b6f9a:	4760      	bx	ip

000b6f9c <_ZN12Adafruit_GFX14writeFastHLineEssst>:
    @param    w   Width in pixels
   @param    color 16-bit 5-6-5 Color to fill with
*/
/**************************************************************************/
void Adafruit_GFX::writeFastHLine(int16_t x, int16_t y,
        int16_t w, uint16_t color) {
   b6f9c:	b430      	push	{r4, r5}
    // Overwrite in subclasses if startWrite is defined!
    // Example: writeLine(x, y, x+w-1, y, color);
    // or writeFillRect(x, y, w, 1, color);
    drawFastHLine(x, y, w, color);
   b6f9e:	6804      	ldr	r4, [r0, #0]
        int16_t w, uint16_t color) {
   b6fa0:	f8bd 5008 	ldrh.w	r5, [sp, #8]
    drawFastHLine(x, y, w, color);
   b6fa4:	9502      	str	r5, [sp, #8]
   b6fa6:	6be4      	ldr	r4, [r4, #60]	; 0x3c
   b6fa8:	46a4      	mov	ip, r4
}
   b6faa:	bc30      	pop	{r4, r5}
    drawFastHLine(x, y, w, color);
   b6fac:	4760      	bx	ip

000b6fae <_ZN12Adafruit_GFX13writeFillRectEsssst>:
    @param    h   Height in pixels
   @param    color 16-bit 5-6-5 Color to fill with
*/
/**************************************************************************/
void Adafruit_GFX::writeFillRect(int16_t x, int16_t y, int16_t w, int16_t h,
        uint16_t color) {
   b6fae:	b470      	push	{r4, r5, r6}
   b6fb0:	f9bd 500c 	ldrsh.w	r5, [sp, #12]
   b6fb4:	f8bd 6010 	ldrh.w	r6, [sp, #16]
    // Overwrite in subclasses if desired!
    fillRect(x,y,w,h,color);
   b6fb8:	6804      	ldr	r4, [r0, #0]
   b6fba:	e9cd 5603 	strd	r5, r6, [sp, #12]
   b6fbe:	6c24      	ldr	r4, [r4, #64]	; 0x40
   b6fc0:	46a4      	mov	ip, r4
}
   b6fc2:	bc70      	pop	{r4, r5, r6}
    fillRect(x,y,w,h,color);
   b6fc4:	4760      	bx	ip

000b6fc6 <_ZN12Adafruit_GFX13drawFastVLineEssst>:
    @param    h   Height in pixels
   @param    color 16-bit 5-6-5 Color to fill with
*/
/**************************************************************************/
void Adafruit_GFX::drawFastVLine(int16_t x, int16_t y,
        int16_t h, uint16_t color) {
   b6fc6:	e92d 41f3 	stmdb	sp!, {r0, r1, r4, r5, r6, r7, r8, lr}
   b6fca:	461c      	mov	r4, r3
    startWrite();
   b6fcc:	6803      	ldr	r3, [r0, #0]
        int16_t h, uint16_t color) {
   b6fce:	f8bd 8020 	ldrh.w	r8, [sp, #32]
    startWrite();
   b6fd2:	695b      	ldr	r3, [r3, #20]
        int16_t h, uint16_t color) {
   b6fd4:	4605      	mov	r5, r0
   b6fd6:	4616      	mov	r6, r2
    writeLine(x, y, x, y+h-1, color);
   b6fd8:	3c01      	subs	r4, #1
   b6fda:	4434      	add	r4, r6
        int16_t h, uint16_t color) {
   b6fdc:	460f      	mov	r7, r1
    writeLine(x, y, x, y+h-1, color);
   b6fde:	b224      	sxth	r4, r4
    startWrite();
   b6fe0:	4798      	blx	r3
    writeLine(x, y, x, y+h-1, color);
   b6fe2:	682b      	ldr	r3, [r5, #0]
   b6fe4:	f8cd 8004 	str.w	r8, [sp, #4]
   b6fe8:	9400      	str	r4, [sp, #0]
   b6fea:	6a9c      	ldr	r4, [r3, #40]	; 0x28
   b6fec:	4628      	mov	r0, r5
   b6fee:	463b      	mov	r3, r7
   b6ff0:	4632      	mov	r2, r6
   b6ff2:	4639      	mov	r1, r7
   b6ff4:	47a0      	blx	r4
    endWrite();
   b6ff6:	682b      	ldr	r3, [r5, #0]
   b6ff8:	6adb      	ldr	r3, [r3, #44]	; 0x2c
   b6ffa:	4628      	mov	r0, r5
}
   b6ffc:	b002      	add	sp, #8
   b6ffe:	e8bd 41f0 	ldmia.w	sp!, {r4, r5, r6, r7, r8, lr}
    endWrite();
   b7002:	4718      	bx	r3

000b7004 <_ZN12Adafruit_GFX13drawFastHLineEssst>:
    @param    w   Width in pixels
   @param    color 16-bit 5-6-5 Color to fill with
*/
/**************************************************************************/
void Adafruit_GFX::drawFastHLine(int16_t x, int16_t y,
        int16_t w, uint16_t color) {
   b7004:	e92d 41f3 	stmdb	sp!, {r0, r1, r4, r5, r6, r7, r8, lr}
   b7008:	461d      	mov	r5, r3
    startWrite();
   b700a:	6803      	ldr	r3, [r0, #0]
        int16_t w, uint16_t color) {
   b700c:	f8bd 8020 	ldrh.w	r8, [sp, #32]
    startWrite();
   b7010:	695b      	ldr	r3, [r3, #20]
        int16_t w, uint16_t color) {
   b7012:	4604      	mov	r4, r0
   b7014:	4617      	mov	r7, r2
   b7016:	460e      	mov	r6, r1
    startWrite();
   b7018:	4798      	blx	r3
    writeLine(x, y, x+w-1, y, color);
   b701a:	e9cd 7800 	strd	r7, r8, [sp]
   b701e:	6822      	ldr	r2, [r4, #0]
   b7020:	1e6b      	subs	r3, r5, #1
   b7022:	4433      	add	r3, r6
   b7024:	6a95      	ldr	r5, [r2, #40]	; 0x28
   b7026:	4620      	mov	r0, r4
   b7028:	b21b      	sxth	r3, r3
   b702a:	463a      	mov	r2, r7
   b702c:	4631      	mov	r1, r6
   b702e:	47a8      	blx	r5
    endWrite();
   b7030:	6823      	ldr	r3, [r4, #0]
   b7032:	6adb      	ldr	r3, [r3, #44]	; 0x2c
   b7034:	4620      	mov	r0, r4
}
   b7036:	b002      	add	sp, #8
   b7038:	e8bd 41f0 	ldmia.w	sp!, {r4, r5, r6, r7, r8, lr}
    endWrite();
   b703c:	4718      	bx	r3

000b703e <_ZN12Adafruit_GFX8fillRectEsssst>:
    @param    h   Height in pixels
   @param    color 16-bit 5-6-5 Color to fill with
*/
/**************************************************************************/
void Adafruit_GFX::fillRect(int16_t x, int16_t y, int16_t w, int16_t h,
        uint16_t color) {
   b703e:	e92d 47f3 	stmdb	sp!, {r0, r1, r4, r5, r6, r7, r8, r9, sl, lr}
   b7042:	461e      	mov	r6, r3
    startWrite();
   b7044:	6803      	ldr	r3, [r0, #0]
        uint16_t color) {
   b7046:	f9bd 9028 	ldrsh.w	r9, [sp, #40]	; 0x28
    startWrite();
   b704a:	695b      	ldr	r3, [r3, #20]
        uint16_t color) {
   b704c:	f8bd 802c 	ldrh.w	r8, [sp, #44]	; 0x2c
   b7050:	460c      	mov	r4, r1
   b7052:	4605      	mov	r5, r0
   b7054:	4617      	mov	r7, r2
    startWrite();
   b7056:	4798      	blx	r3
    for (int16_t i=x; i<x+w; i++) {
   b7058:	4426      	add	r6, r4
   b705a:	42b4      	cmp	r4, r6
        writeFastVLine(i, y, h, color);
   b705c:	682b      	ldr	r3, [r5, #0]
    for (int16_t i=x; i<x+w; i++) {
   b705e:	da0b      	bge.n	b7078 <_ZN12Adafruit_GFX8fillRectEsssst+0x3a>
        writeFastVLine(i, y, h, color);
   b7060:	f8cd 8000 	str.w	r8, [sp]
   b7064:	f8d3 a020 	ldr.w	sl, [r3, #32]
   b7068:	4621      	mov	r1, r4
   b706a:	464b      	mov	r3, r9
   b706c:	463a      	mov	r2, r7
   b706e:	4628      	mov	r0, r5
   b7070:	3401      	adds	r4, #1
   b7072:	47d0      	blx	sl
    for (int16_t i=x; i<x+w; i++) {
   b7074:	b224      	sxth	r4, r4
   b7076:	e7f0      	b.n	b705a <_ZN12Adafruit_GFX8fillRectEsssst+0x1c>
    }
    endWrite();
   b7078:	6adb      	ldr	r3, [r3, #44]	; 0x2c
   b707a:	4628      	mov	r0, r5
}
   b707c:	b002      	add	sp, #8
   b707e:	e8bd 47f0 	ldmia.w	sp!, {r4, r5, r6, r7, r8, r9, sl, lr}
    endWrite();
   b7082:	4718      	bx	r3

000b7084 <_ZN12Adafruit_GFX10fillScreenEt>:
/*!
   @brief    Fill the screen completely with one color. Update in subclasses if desired!
    @param    color 16-bit 5-6-5 Color to fill with
*/
/**************************************************************************/
void Adafruit_GFX::fillScreen(uint16_t color) {
   b7084:	b513      	push	{r0, r1, r4, lr}
    fillRect(0, 0, _width, _height, color);
   b7086:	6802      	ldr	r2, [r0, #0]
   b7088:	9101      	str	r1, [sp, #4]
   b708a:	f9b0 100e 	ldrsh.w	r1, [r0, #14]
   b708e:	9100      	str	r1, [sp, #0]
   b7090:	6c14      	ldr	r4, [r2, #64]	; 0x40
   b7092:	f9b0 300c 	ldrsh.w	r3, [r0, #12]
   b7096:	2200      	movs	r2, #0
   b7098:	4611      	mov	r1, r2
   b709a:	47a0      	blx	r4
}
   b709c:	b002      	add	sp, #8
   b709e:	bd10      	pop	{r4, pc}

000b70a0 <_ZN12Adafruit_GFX8drawLineEsssst>:
    @param    y1  End point y coordinate
    @param    color 16-bit 5-6-5 Color to draw with
*/
/**************************************************************************/
void Adafruit_GFX::drawLine(int16_t x0, int16_t y0, int16_t x1, int16_t y1,
        uint16_t color) {
   b70a0:	e92d 43f7 	stmdb	sp!, {r0, r1, r2, r4, r5, r6, r7, r8, r9, lr}
    // Update in subclasses if desired!
    if(x0 == x1){
   b70a4:	4299      	cmp	r1, r3
        uint16_t color) {
   b70a6:	4616      	mov	r6, r2
   b70a8:	f9bd 7028 	ldrsh.w	r7, [sp, #40]	; 0x28
   b70ac:	f8bd 902c 	ldrh.w	r9, [sp, #44]	; 0x2c
        if(y0 > y1) _swap_int16_t(y0, y1);
        drawFastVLine(x0, y0, y1 - y0 + 1, color);
   b70b0:	6802      	ldr	r2, [r0, #0]
        uint16_t color) {
   b70b2:	4680      	mov	r8, r0
   b70b4:	460d      	mov	r5, r1
   b70b6:	461c      	mov	r4, r3
    if(x0 == x1){
   b70b8:	d113      	bne.n	b70e2 <_ZN12Adafruit_GFX8drawLineEsssst+0x42>
        if(y0 > y1) _swap_int16_t(y0, y1);
   b70ba:	42be      	cmp	r6, r7
   b70bc:	bfc8      	it	gt
   b70be:	4633      	movgt	r3, r6
        drawFastVLine(x0, y0, y1 - y0 + 1, color);
   b70c0:	f8cd 9028 	str.w	r9, [sp, #40]	; 0x28
        if(y0 > y1) _swap_int16_t(y0, y1);
   b70c4:	bfc4      	itt	gt
   b70c6:	463e      	movgt	r6, r7
   b70c8:	461f      	movgt	r7, r3
        drawFastVLine(x0, y0, y1 - y0 + 1, color);
   b70ca:	1c7b      	adds	r3, r7, #1
   b70cc:	6b94      	ldr	r4, [r2, #56]	; 0x38
   b70ce:	1b9b      	subs	r3, r3, r6
    } else if(y0 == y1){
        if(x0 > x1) _swap_int16_t(x0, x1);
        drawFastHLine(x0, y0, x1 - x0 + 1, color);
   b70d0:	b21b      	sxth	r3, r3
   b70d2:	4632      	mov	r2, r6
   b70d4:	4629      	mov	r1, r5
   b70d6:	4640      	mov	r0, r8
   b70d8:	46a4      	mov	ip, r4
    } else {
        startWrite();
        writeLine(x0, y0, x1, y1, color);
        endWrite();
    }
}
   b70da:	b003      	add	sp, #12
   b70dc:	e8bd 43f0 	ldmia.w	sp!, {r4, r5, r6, r7, r8, r9, lr}
        drawFastHLine(x0, y0, x1 - x0 + 1, color);
   b70e0:	4760      	bx	ip
    } else if(y0 == y1){
   b70e2:	42be      	cmp	r6, r7
   b70e4:	d10a      	bne.n	b70fc <_ZN12Adafruit_GFX8drawLineEsssst+0x5c>
        if(x0 > x1) _swap_int16_t(x0, x1);
   b70e6:	4299      	cmp	r1, r3
   b70e8:	bfc2      	ittt	gt
   b70ea:	460b      	movgt	r3, r1
   b70ec:	4625      	movgt	r5, r4
   b70ee:	461c      	movgt	r4, r3
        drawFastHLine(x0, y0, x1 - x0 + 1, color);
   b70f0:	1c63      	adds	r3, r4, #1
   b70f2:	f8cd 9028 	str.w	r9, [sp, #40]	; 0x28
   b70f6:	6bd4      	ldr	r4, [r2, #60]	; 0x3c
   b70f8:	1b5b      	subs	r3, r3, r5
   b70fa:	e7e9      	b.n	b70d0 <_ZN12Adafruit_GFX8drawLineEsssst+0x30>
        startWrite();
   b70fc:	6953      	ldr	r3, [r2, #20]
   b70fe:	4798      	blx	r3
        writeLine(x0, y0, x1, y1, color);
   b7100:	e9cd 7900 	strd	r7, r9, [sp]
   b7104:	f8d8 3000 	ldr.w	r3, [r8]
   b7108:	4640      	mov	r0, r8
   b710a:	6a9f      	ldr	r7, [r3, #40]	; 0x28
   b710c:	4632      	mov	r2, r6
   b710e:	4623      	mov	r3, r4
   b7110:	4629      	mov	r1, r5
   b7112:	47b8      	blx	r7
        endWrite();
   b7114:	f8d8 3000 	ldr.w	r3, [r8]
   b7118:	6adb      	ldr	r3, [r3, #44]	; 0x2c
   b711a:	4640      	mov	r0, r8
}
   b711c:	b003      	add	sp, #12
   b711e:	e8bd 43f0 	ldmia.w	sp!, {r4, r5, r6, r7, r8, r9, lr}
        endWrite();
   b7122:	4718      	bx	r3

000b7124 <_ZN12Adafruit_GFX8drawRectEsssst>:
    @param    h   Height in pixels
    @param    color 16-bit 5-6-5 Color to draw with
*/
/**************************************************************************/
void Adafruit_GFX::drawRect(int16_t x, int16_t y, int16_t w, int16_t h,
        uint16_t color) {
   b7124:	e92d 47f3 	stmdb	sp!, {r0, r1, r4, r5, r6, r7, r8, r9, sl, lr}
   b7128:	461d      	mov	r5, r3
    startWrite();
   b712a:	6803      	ldr	r3, [r0, #0]
        uint16_t color) {
   b712c:	f8bd 802c 	ldrh.w	r8, [sp, #44]	; 0x2c
    startWrite();
   b7130:	695b      	ldr	r3, [r3, #20]
        uint16_t color) {
   b7132:	f9bd 9028 	ldrsh.w	r9, [sp, #40]	; 0x28
   b7136:	4604      	mov	r4, r0
   b7138:	460f      	mov	r7, r1
   b713a:	4616      	mov	r6, r2
    startWrite();
   b713c:	4798      	blx	r3
    writeFastHLine(x, y, w, color);
   b713e:	6823      	ldr	r3, [r4, #0]
   b7140:	f8cd 8000 	str.w	r8, [sp]
   b7144:	f8d3 a024 	ldr.w	sl, [r3, #36]	; 0x24
   b7148:	4632      	mov	r2, r6
   b714a:	462b      	mov	r3, r5
   b714c:	4639      	mov	r1, r7
   b714e:	4620      	mov	r0, r4
   b7150:	47d0      	blx	sl
    writeFastHLine(x, y+h-1, w, color);
   b7152:	6823      	ldr	r3, [r4, #0]
   b7154:	f8cd 8000 	str.w	r8, [sp]
   b7158:	f109 32ff 	add.w	r2, r9, #4294967295
   b715c:	4432      	add	r2, r6
   b715e:	f8d3 a024 	ldr.w	sl, [r3, #36]	; 0x24
   b7162:	4639      	mov	r1, r7
   b7164:	462b      	mov	r3, r5
   b7166:	4620      	mov	r0, r4
   b7168:	b212      	sxth	r2, r2
   b716a:	47d0      	blx	sl
    writeFastVLine(x, y, h, color);
   b716c:	6823      	ldr	r3, [r4, #0]
   b716e:	f8cd 8000 	str.w	r8, [sp]
   b7172:	f8d3 a020 	ldr.w	sl, [r3, #32]
   b7176:	4632      	mov	r2, r6
   b7178:	464b      	mov	r3, r9
   b717a:	4639      	mov	r1, r7
   b717c:	4620      	mov	r0, r4
   b717e:	47d0      	blx	sl
    writeFastVLine(x+w-1, y, h, color);
   b7180:	1e6b      	subs	r3, r5, #1
   b7182:	19d9      	adds	r1, r3, r7
   b7184:	6823      	ldr	r3, [r4, #0]
   b7186:	f8cd 8000 	str.w	r8, [sp]
   b718a:	6a1d      	ldr	r5, [r3, #32]
   b718c:	4620      	mov	r0, r4
   b718e:	464b      	mov	r3, r9
   b7190:	4632      	mov	r2, r6
   b7192:	b209      	sxth	r1, r1
   b7194:	47a8      	blx	r5
    endWrite();
   b7196:	6823      	ldr	r3, [r4, #0]
   b7198:	6adb      	ldr	r3, [r3, #44]	; 0x2c
   b719a:	4620      	mov	r0, r4
}
   b719c:	b002      	add	sp, #8
   b719e:	e8bd 47f0 	ldmia.w	sp!, {r4, r5, r6, r7, r8, r9, sl, lr}
    endWrite();
   b71a2:	4718      	bx	r3

000b71a4 <_ZN12Adafruit_GFX13invertDisplayEb>:
    @param   i  True if you want to invert, false to make 'normal'
*/
/**************************************************************************/
void Adafruit_GFX::invertDisplay(boolean i) {
    // Do nothing, must be subclassed if supported by hardware
}
   b71a4:	4770      	bx	lr

000b71a6 <_ZN12Adafruit_GFX11setRotationEh>:
    rotation = (x & 3);
   b71a6:	f001 0303 	and.w	r3, r1, #3
            _height = HEIGHT;
   b71aa:	f9b0 200a 	ldrsh.w	r2, [r0, #10]
    rotation = (x & 3);
   b71ae:	7683      	strb	r3, [r0, #26]
    switch(rotation) {
   b71b0:	07c9      	lsls	r1, r1, #31
            _width  = WIDTH;
   b71b2:	f9b0 3008 	ldrsh.w	r3, [r0, #8]
   b71b6:	bf59      	ittee	pl
   b71b8:	8183      	strhpl	r3, [r0, #12]
            _height = HEIGHT;
   b71ba:	81c2      	strhpl	r2, [r0, #14]
            _width  = HEIGHT;
   b71bc:	8182      	strhmi	r2, [r0, #12]
            _height = WIDTH;
   b71be:	81c3      	strhmi	r3, [r0, #14]
}
   b71c0:	4770      	bx	lr
	...

000b71c4 <_ZN12Adafruit_GFXC1Ess>:
Adafruit_GFX::Adafruit_GFX(int16_t w, int16_t h):
   b71c4:	b530      	push	{r4, r5, lr}
WIDTH(w), HEIGHT(h)
   b71c6:	8142      	strh	r2, [r0, #10]
    _height   = HEIGHT;
   b71c8:	81c2      	strh	r2, [r0, #14]
    textsize_x = textsize_y  = 1;
   b71ca:	4a07      	ldr	r2, [pc, #28]	; (b71e8 <_ZN12Adafruit_GFXC1Ess+0x24>)
WIDTH(w), HEIGHT(h)
   b71cc:	4d07      	ldr	r5, [pc, #28]	; (b71ec <_ZN12Adafruit_GFXC1Ess+0x28>)
   b71ce:	8101      	strh	r1, [r0, #8]
    Print() : write_error(0) {}
   b71d0:	2400      	movs	r4, #0
    _width    = WIDTH;
   b71d2:	8181      	strh	r1, [r0, #12]
    textsize_x = textsize_y  = 1;
   b71d4:	f04f 31ff 	mov.w	r1, #4294967295
   b71d8:	e9c0 1205 	strd	r1, r2, [r0, #20]
   b71dc:	6044      	str	r4, [r0, #4]
WIDTH(w), HEIGHT(h)
   b71de:	6005      	str	r5, [r0, #0]
    cursor_y  = cursor_x    = 0;
   b71e0:	6104      	str	r4, [r0, #16]
    _cp437    = false;
   b71e2:	7704      	strb	r4, [r0, #28]
    gfxFont   = NULL;
   b71e4:	6204      	str	r4, [r0, #32]
}
   b71e6:	bd30      	pop	{r4, r5, pc}
   b71e8:	01000101 	.word	0x01000101
   b71ec:	000bc1e4 	.word	0x000bc1e4

000b71f0 <_ZN12Adafruit_GFX16fillCircleHelperEssshst>:
  uint8_t corners, int16_t delta, uint16_t color) {
   b71f0:	e92d 4ff0 	stmdb	sp!, {r4, r5, r6, r7, r8, r9, sl, fp, lr}
   b71f4:	b08b      	sub	sp, #44	; 0x2c
   b71f6:	461c      	mov	r4, r3
   b71f8:	f8bd 3058 	ldrh.w	r3, [sp, #88]	; 0x58
   b71fc:	9304      	str	r3, [sp, #16]
    int16_t f     = 1 - r;
   b71fe:	b2a3      	uxth	r3, r4
   b7200:	f1c3 0501 	rsb	r5, r3, #1
    int16_t ddF_y = -2 * r;
   b7204:	ebc3 33c3 	rsb	r3, r3, r3, lsl #15
   b7208:	005b      	lsls	r3, r3, #1
   b720a:	b21b      	sxth	r3, r3
   b720c:	9307      	str	r3, [sp, #28]
    delta++; // Avoid some +1's in the loop
   b720e:	f9bd 3054 	ldrsh.w	r3, [sp, #84]	; 0x54
   b7212:	3301      	adds	r3, #1
   b7214:	b29b      	uxth	r3, r3
   b7216:	9305      	str	r3, [sp, #20]
   b7218:	b293      	uxth	r3, r2
   b721a:	9306      	str	r3, [sp, #24]
  uint8_t corners, int16_t delta, uint16_t color) {
   b721c:	4688      	mov	r8, r1
    delta++; // Avoid some +1's in the loop
   b721e:	9b05      	ldr	r3, [sp, #20]
  uint8_t corners, int16_t delta, uint16_t color) {
   b7220:	f89d 1050 	ldrb.w	r1, [sp, #80]	; 0x50
    delta++; // Avoid some +1's in the loop
   b7224:	9303      	str	r3, [sp, #12]
    int16_t x     = 0;
   b7226:	2300      	movs	r3, #0
   b7228:	9302      	str	r3, [sp, #8]
            if(corners & 1) writeFastVLine(x0+x, y0-y, 2*y+delta, color);
   b722a:	f001 0301 	and.w	r3, r1, #1
   b722e:	9308      	str	r3, [sp, #32]
    delta++; // Avoid some +1's in the loop
   b7230:	f8dd a018 	ldr.w	sl, [sp, #24]
            if(corners & 2) writeFastVLine(x0-x, y0-y, 2*y+delta, color);
   b7234:	f001 0302 	and.w	r3, r1, #2
  uint8_t corners, int16_t delta, uint16_t color) {
   b7238:	4683      	mov	fp, r0
    int16_t f     = 1 - r;
   b723a:	b22d      	sxth	r5, r5
            if(corners & 2) writeFastVLine(x0-x, y0-y, 2*y+delta, color);
   b723c:	9309      	str	r3, [sp, #36]	; 0x24
    while(x < y) {
   b723e:	9b02      	ldr	r3, [sp, #8]
   b7240:	42a3      	cmp	r3, r4
   b7242:	da6f      	bge.n	b7324 <_ZN12Adafruit_GFX16fillCircleHelperEssshst+0x134>
        if (f >= 0) {
   b7244:	2d00      	cmp	r5, #0
   b7246:	db6b      	blt.n	b7320 <_ZN12Adafruit_GFX16fillCircleHelperEssshst+0x130>
            ddF_y += 2;
   b7248:	9b07      	ldr	r3, [sp, #28]
   b724a:	3302      	adds	r3, #2
            y--;
   b724c:	1e66      	subs	r6, r4, #1
            ddF_y += 2;
   b724e:	b21a      	sxth	r2, r3
            f     += ddF_y;
   b7250:	fa15 f583 	uxtah	r5, r5, r3
            y--;
   b7254:	b236      	sxth	r6, r6
            ddF_y += 2;
   b7256:	9207      	str	r2, [sp, #28]
            f     += ddF_y;
   b7258:	b22d      	sxth	r5, r5
        x++;
   b725a:	9f02      	ldr	r7, [sp, #8]
   b725c:	3701      	adds	r7, #1
   b725e:	fa1f f987 	uxth.w	r9, r7
   b7262:	b23b      	sxth	r3, r7
        ddF_x += 2;
   b7264:	eb05 0549 	add.w	r5, r5, r9, lsl #1
        f     += ddF_x;
   b7268:	3501      	adds	r5, #1
        if(x < (y + 1)) {
   b726a:	429e      	cmp	r6, r3
   b726c:	9302      	str	r3, [sp, #8]
        f     += ddF_x;
   b726e:	b22d      	sxth	r5, r5
        if(x < (y + 1)) {
   b7270:	db29      	blt.n	b72c6 <_ZN12Adafruit_GFX16fillCircleHelperEssshst+0xd6>
            if(corners & 1) writeFastVLine(x0+x, y0-y, 2*y+delta, color);
   b7272:	9b08      	ldr	r3, [sp, #32]
   b7274:	b193      	cbz	r3, b729c <_ZN12Adafruit_GFX16fillCircleHelperEssshst+0xac>
   b7276:	9804      	ldr	r0, [sp, #16]
   b7278:	9000      	str	r0, [sp, #0]
   b727a:	f8db 0000 	ldr.w	r0, [fp]
   b727e:	9906      	ldr	r1, [sp, #24]
   b7280:	9b05      	ldr	r3, [sp, #20]
   b7282:	6a00      	ldr	r0, [r0, #32]
   b7284:	b2b2      	uxth	r2, r6
   b7286:	eb03 0342 	add.w	r3, r3, r2, lsl #1
   b728a:	1a8a      	subs	r2, r1, r2
   b728c:	eb09 0108 	add.w	r1, r9, r8
   b7290:	4607      	mov	r7, r0
   b7292:	b21b      	sxth	r3, r3
   b7294:	b212      	sxth	r2, r2
   b7296:	b209      	sxth	r1, r1
   b7298:	4658      	mov	r0, fp
   b729a:	47b8      	blx	r7
            if(corners & 2) writeFastVLine(x0-x, y0-y, 2*y+delta, color);
   b729c:	9b09      	ldr	r3, [sp, #36]	; 0x24
   b729e:	b193      	cbz	r3, b72c6 <_ZN12Adafruit_GFX16fillCircleHelperEssshst+0xd6>
   b72a0:	9906      	ldr	r1, [sp, #24]
   b72a2:	9804      	ldr	r0, [sp, #16]
   b72a4:	9b05      	ldr	r3, [sp, #20]
   b72a6:	9000      	str	r0, [sp, #0]
   b72a8:	b2b2      	uxth	r2, r6
   b72aa:	f8db 0000 	ldr.w	r0, [fp]
   b72ae:	eb03 0342 	add.w	r3, r3, r2, lsl #1
   b72b2:	1a8a      	subs	r2, r1, r2
   b72b4:	eba8 0109 	sub.w	r1, r8, r9
   b72b8:	b21b      	sxth	r3, r3
   b72ba:	f8d0 9020 	ldr.w	r9, [r0, #32]
   b72be:	b212      	sxth	r2, r2
   b72c0:	b209      	sxth	r1, r1
   b72c2:	4658      	mov	r0, fp
   b72c4:	47c8      	blx	r9
        if(y != py) {
   b72c6:	42b4      	cmp	r4, r6
   b72c8:	d020      	beq.n	b730c <_ZN12Adafruit_GFX16fillCircleHelperEssshst+0x11c>
            if(corners & 1) writeFastVLine(x0+py, y0-px, 2*px+delta, color);
   b72ca:	9b08      	ldr	r3, [sp, #32]
   b72cc:	b173      	cbz	r3, b72ec <_ZN12Adafruit_GFX16fillCircleHelperEssshst+0xfc>
   b72ce:	f8db 3000 	ldr.w	r3, [fp]
   b72d2:	9a04      	ldr	r2, [sp, #16]
   b72d4:	9200      	str	r2, [sp, #0]
   b72d6:	eb08 0104 	add.w	r1, r8, r4
   b72da:	f8d3 9020 	ldr.w	r9, [r3, #32]
   b72de:	f9bd 300c 	ldrsh.w	r3, [sp, #12]
   b72e2:	fa0f f28a 	sxth.w	r2, sl
   b72e6:	b209      	sxth	r1, r1
   b72e8:	4658      	mov	r0, fp
   b72ea:	47c8      	blx	r9
            if(corners & 2) writeFastVLine(x0-py, y0-px, 2*px+delta, color);
   b72ec:	9b09      	ldr	r3, [sp, #36]	; 0x24
   b72ee:	b16b      	cbz	r3, b730c <_ZN12Adafruit_GFX16fillCircleHelperEssshst+0x11c>
   b72f0:	f8db 3000 	ldr.w	r3, [fp]
   b72f4:	9a04      	ldr	r2, [sp, #16]
   b72f6:	9200      	str	r2, [sp, #0]
   b72f8:	eba8 0104 	sub.w	r1, r8, r4
   b72fc:	fa0f f28a 	sxth.w	r2, sl
   b7300:	6a1c      	ldr	r4, [r3, #32]
   b7302:	f9bd 300c 	ldrsh.w	r3, [sp, #12]
   b7306:	b209      	sxth	r1, r1
   b7308:	4658      	mov	r0, fp
   b730a:	47a0      	blx	r4
   b730c:	f10a 33ff 	add.w	r3, sl, #4294967295
   b7310:	fa1f fa83 	uxth.w	sl, r3
   b7314:	9b03      	ldr	r3, [sp, #12]
   b7316:	3302      	adds	r3, #2
   b7318:	b29b      	uxth	r3, r3
   b731a:	9303      	str	r3, [sp, #12]
  uint8_t corners, int16_t delta, uint16_t color) {
   b731c:	4634      	mov	r4, r6
   b731e:	e78e      	b.n	b723e <_ZN12Adafruit_GFX16fillCircleHelperEssshst+0x4e>
   b7320:	4626      	mov	r6, r4
   b7322:	e79a      	b.n	b725a <_ZN12Adafruit_GFX16fillCircleHelperEssshst+0x6a>
}
   b7324:	b00b      	add	sp, #44	; 0x2c
   b7326:	e8bd 8ff0 	ldmia.w	sp!, {r4, r5, r6, r7, r8, r9, sl, fp, pc}

000b732a <_ZN12Adafruit_GFX10fillCircleEssst>:
        uint16_t color) {
   b732a:	e92d 41f0 	stmdb	sp!, {r4, r5, r6, r7, r8, lr}
   b732e:	461e      	mov	r6, r3
   b7330:	b086      	sub	sp, #24
    startWrite();
   b7332:	6803      	ldr	r3, [r0, #0]
        uint16_t color) {
   b7334:	9105      	str	r1, [sp, #20]
   b7336:	4604      	mov	r4, r0
    startWrite();
   b7338:	695b      	ldr	r3, [r3, #20]
        uint16_t color) {
   b733a:	f8bd 7030 	ldrh.w	r7, [sp, #48]	; 0x30
   b733e:	4615      	mov	r5, r2
    startWrite();
   b7340:	4798      	blx	r3
    writeFastVLine(x0, y0-r, 2*r+1, color);
   b7342:	b2b2      	uxth	r2, r6
   b7344:	6820      	ldr	r0, [r4, #0]
   b7346:	9700      	str	r7, [sp, #0]
   b7348:	0053      	lsls	r3, r2, #1
   b734a:	3301      	adds	r3, #1
   b734c:	1aaa      	subs	r2, r5, r2
   b734e:	f8d0 8020 	ldr.w	r8, [r0, #32]
   b7352:	9905      	ldr	r1, [sp, #20]
   b7354:	4620      	mov	r0, r4
   b7356:	b21b      	sxth	r3, r3
   b7358:	b212      	sxth	r2, r2
   b735a:	47c0      	blx	r8
    fillCircleHelper(x0, y0, r, 3, 0, color);
   b735c:	2303      	movs	r3, #3
   b735e:	2200      	movs	r2, #0
   b7360:	e9cd 3200 	strd	r3, r2, [sp]
   b7364:	4620      	mov	r0, r4
   b7366:	4633      	mov	r3, r6
   b7368:	9905      	ldr	r1, [sp, #20]
   b736a:	9702      	str	r7, [sp, #8]
   b736c:	462a      	mov	r2, r5
   b736e:	f7ff ff3f 	bl	b71f0 <_ZN12Adafruit_GFX16fillCircleHelperEssshst>
    endWrite();
   b7372:	6823      	ldr	r3, [r4, #0]
   b7374:	6adb      	ldr	r3, [r3, #44]	; 0x2c
   b7376:	4620      	mov	r0, r4
}
   b7378:	b006      	add	sp, #24
   b737a:	e8bd 41f0 	ldmia.w	sp!, {r4, r5, r6, r7, r8, lr}
    endWrite();
   b737e:	4718      	bx	r3

000b7380 <_ZN12Adafruit_GFX12fillTriangleEsssssst>:
        int16_t x1, int16_t y1, int16_t x2, int16_t y2, uint16_t color) {
   b7380:	e92d 4ff0 	stmdb	sp!, {r4, r5, r6, r7, r8, r9, sl, fp, lr}
   b7384:	b08d      	sub	sp, #52	; 0x34
   b7386:	461d      	mov	r5, r3
   b7388:	f9bd 6058 	ldrsh.w	r6, [sp, #88]	; 0x58
   b738c:	f8bd 3064 	ldrh.w	r3, [sp, #100]	; 0x64
   b7390:	f9bd 805c 	ldrsh.w	r8, [sp, #92]	; 0x5c
   b7394:	f9bd 7060 	ldrsh.w	r7, [sp, #96]	; 0x60
   b7398:	9304      	str	r3, [sp, #16]
    if (y0 > y1) {
   b739a:	42b2      	cmp	r2, r6
        int16_t x1, int16_t y1, int16_t x2, int16_t y2, uint16_t color) {
   b739c:	4683      	mov	fp, r0
   b739e:	4689      	mov	r9, r1
   b73a0:	4614      	mov	r4, r2
    if (y0 > y1) {
   b73a2:	f340 80ce 	ble.w	b7542 <_ZN12Adafruit_GFX12fillTriangleEsssssst+0x1c2>
    if (y1 > y2) {
   b73a6:	42ba      	cmp	r2, r7
   b73a8:	dd17      	ble.n	b73da <_ZN12Adafruit_GFX12fillTriangleEsssssst+0x5a>
    if (y0 > y1) {
   b73aa:	42b7      	cmp	r7, r6
   b73ac:	da0f      	bge.n	b73ce <_ZN12Adafruit_GFX12fillTriangleEsssssst+0x4e>
   b73ae:	4633      	mov	r3, r6
   b73b0:	463e      	mov	r6, r7
   b73b2:	4627      	mov	r7, r4
   b73b4:	461c      	mov	r4, r3
   b73b6:	462b      	mov	r3, r5
   b73b8:	4645      	mov	r5, r8
   b73ba:	46c8      	mov	r8, r9
    if (y1 > y2) {
   b73bc:	4699      	mov	r9, r3
   b73be:	e00c      	b.n	b73da <_ZN12Adafruit_GFX12fillTriangleEsssssst+0x5a>
   b73c0:	4623      	mov	r3, r4
   b73c2:	4634      	mov	r4, r6
   b73c4:	461e      	mov	r6, r3
   b73c6:	464b      	mov	r3, r9
   b73c8:	46a9      	mov	r9, r5
   b73ca:	461d      	mov	r5, r3
   b73cc:	e7ed      	b.n	b73aa <_ZN12Adafruit_GFX12fillTriangleEsssssst+0x2a>
   b73ce:	4623      	mov	r3, r4
   b73d0:	463c      	mov	r4, r7
   b73d2:	461f      	mov	r7, r3
   b73d4:	464b      	mov	r3, r9
   b73d6:	46c1      	mov	r9, r8
   b73d8:	4698      	mov	r8, r3
    startWrite();
   b73da:	f8db 3000 	ldr.w	r3, [fp]
   b73de:	4658      	mov	r0, fp
   b73e0:	695b      	ldr	r3, [r3, #20]
   b73e2:	4798      	blx	r3
    if(y0 == y2) { // Handle awkward all-on-same-line case as its own thing
   b73e4:	42be      	cmp	r6, r7
   b73e6:	d122      	bne.n	b742e <_ZN12Adafruit_GFX12fillTriangleEsssssst+0xae>
        if(x1 < a)      a = x1;
   b73e8:	454d      	cmp	r5, r9
   b73ea:	bfc2      	ittt	gt
   b73ec:	462b      	movgt	r3, r5
   b73ee:	464d      	movgt	r5, r9
   b73f0:	4699      	movgt	r9, r3
        if(x2 < a)      a = x2;
   b73f2:	4545      	cmp	r5, r8
   b73f4:	dc05      	bgt.n	b7402 <_ZN12Adafruit_GFX12fillTriangleEsssssst+0x82>
        else if(x2 > b) b = x2;
   b73f6:	45c1      	cmp	r9, r8
   b73f8:	bfb8      	it	lt
   b73fa:	46c1      	movlt	r9, r8
   b73fc:	fa0f f989 	sxth.w	r9, r9
   b7400:	46a8      	mov	r8, r5
        writeFastHLine(a, y0, b-a+1, color);
   b7402:	f8db 2000 	ldr.w	r2, [fp]
   b7406:	9904      	ldr	r1, [sp, #16]
   b7408:	9100      	str	r1, [sp, #0]
   b740a:	f109 0301 	add.w	r3, r9, #1
   b740e:	eba3 0308 	sub.w	r3, r3, r8
   b7412:	6a54      	ldr	r4, [r2, #36]	; 0x24
   b7414:	b21b      	sxth	r3, r3
   b7416:	4632      	mov	r2, r6
   b7418:	4641      	mov	r1, r8
   b741a:	4658      	mov	r0, fp
   b741c:	47a0      	blx	r4
    endWrite();
   b741e:	f8db 3000 	ldr.w	r3, [fp]
   b7422:	6adb      	ldr	r3, [r3, #44]	; 0x2c
   b7424:	4658      	mov	r0, fp
}
   b7426:	b00d      	add	sp, #52	; 0x34
   b7428:	e8bd 4ff0 	ldmia.w	sp!, {r4, r5, r6, r7, r8, r9, sl, fp, lr}
    endWrite();
   b742c:	4718      	bx	r3
    dx01 = x1 - x0,
   b742e:	fa1f f389 	uxth.w	r3, r9
   b7432:	9303      	str	r3, [sp, #12]
   b7434:	b2ab      	uxth	r3, r5
   b7436:	9302      	str	r3, [sp, #8]
   b7438:	e9dd 2302 	ldrd	r2, r3, [sp, #8]
   b743c:	1a9b      	subs	r3, r3, r2
   b743e:	b21b      	sxth	r3, r3
    dy01 = y1 - y0,
   b7440:	fa1f fc86 	uxth.w	ip, r6
    dx01 = x1 - x0,
   b7444:	9308      	str	r3, [sp, #32]
    dy01 = y1 - y0,
   b7446:	b2a3      	uxth	r3, r4
   b7448:	eba3 020c 	sub.w	r2, r3, ip
   b744c:	b212      	sxth	r2, r2
   b744e:	9209      	str	r2, [sp, #36]	; 0x24
    dx02 = x2 - x0,
   b7450:	9a02      	ldr	r2, [sp, #8]
   b7452:	fa1f f188 	uxth.w	r1, r8
   b7456:	eba1 0802 	sub.w	r8, r1, r2
    dy02 = y2 - y0,
   b745a:	b2ba      	uxth	r2, r7
   b745c:	eba2 0c0c 	sub.w	ip, r2, ip
   b7460:	fa0f f08c 	sxth.w	r0, ip
   b7464:	9006      	str	r0, [sp, #24]
    dx12 = x2 - x1,
   b7466:	9803      	ldr	r0, [sp, #12]
    if(y1 == y2) last = y1;   // Include y1 scanline
   b7468:	42bc      	cmp	r4, r7
    dy12 = y2 - y1;
   b746a:	eba2 0203 	sub.w	r2, r2, r3
    dx12 = x2 - x1,
   b746e:	eba1 0100 	sub.w	r1, r1, r0
    else         last = y1-1; // Skip it
   b7472:	bf18      	it	ne
   b7474:	f103 33ff 	addne.w	r3, r3, #4294967295
    dy12 = y2 - y1;
   b7478:	b212      	sxth	r2, r2
    dx12 = x2 - x1,
   b747a:	b209      	sxth	r1, r1
    else         last = y1-1; // Skip it
   b747c:	bf18      	it	ne
   b747e:	b21b      	sxthne	r3, r3
    sb   = 0;
   b7480:	f04f 0900 	mov.w	r9, #0
    dy12 = y2 - y1;
   b7484:	920a      	str	r2, [sp, #40]	; 0x28
    dx02 = x2 - x0,
   b7486:	fa0f f888 	sxth.w	r8, r8
    dx12 = x2 - x1,
   b748a:	9107      	str	r1, [sp, #28]
    else         last = y1-1; // Skip it
   b748c:	bf14      	ite	ne
   b748e:	9305      	strne	r3, [sp, #20]
   b7490:	9405      	streq	r4, [sp, #20]
    for(y=y0; y<=last; y++) {
   b7492:	4632      	mov	r2, r6
    sa   = 0,
   b7494:	46ca      	mov	sl, r9
    for(y=y0; y<=last; y++) {
   b7496:	9b05      	ldr	r3, [sp, #20]
   b7498:	429a      	cmp	r2, r3
   b749a:	dc24      	bgt.n	b74e6 <_ZN12Adafruit_GFX12fillTriangleEsssssst+0x166>
        a   = x0 + sa / dy01;
   b749c:	9b09      	ldr	r3, [sp, #36]	; 0x24
        b   = x0 + sb / dy02;
   b749e:	9802      	ldr	r0, [sp, #8]
        a   = x0 + sa / dy01;
   b74a0:	fb9a f1f3 	sdiv	r1, sl, r3
   b74a4:	9b02      	ldr	r3, [sp, #8]
        writeFastHLine(a, y, b-a+1, color);
   b74a6:	920b      	str	r2, [sp, #44]	; 0x2c
        a   = x0 + sa / dy01;
   b74a8:	4419      	add	r1, r3
        b   = x0 + sb / dy02;
   b74aa:	9b06      	ldr	r3, [sp, #24]
   b74ac:	fb99 f3f3 	sdiv	r3, r9, r3
   b74b0:	4403      	add	r3, r0
        sa += dx01;
   b74b2:	9808      	ldr	r0, [sp, #32]
        a   = x0 + sa / dy01;
   b74b4:	b209      	sxth	r1, r1
        b   = x0 + sb / dy02;
   b74b6:	b21b      	sxth	r3, r3
        if(a > b) _swap_int16_t(a,b);
   b74b8:	4299      	cmp	r1, r3
        sa += dx01;
   b74ba:	4482      	add	sl, r0
        writeFastHLine(a, y, b-a+1, color);
   b74bc:	9804      	ldr	r0, [sp, #16]
   b74be:	9000      	str	r0, [sp, #0]
        if(a > b) _swap_int16_t(a,b);
   b74c0:	bfc8      	it	gt
   b74c2:	468c      	movgt	ip, r1
        writeFastHLine(a, y, b-a+1, color);
   b74c4:	f8db 0000 	ldr.w	r0, [fp]
        if(a > b) _swap_int16_t(a,b);
   b74c8:	bfc4      	itt	gt
   b74ca:	4619      	movgt	r1, r3
   b74cc:	4663      	movgt	r3, ip
        writeFastHLine(a, y, b-a+1, color);
   b74ce:	6a40      	ldr	r0, [r0, #36]	; 0x24
   b74d0:	3301      	adds	r3, #1
   b74d2:	1a5b      	subs	r3, r3, r1
   b74d4:	4605      	mov	r5, r0
   b74d6:	b21b      	sxth	r3, r3
   b74d8:	4658      	mov	r0, fp
   b74da:	47a8      	blx	r5
   b74dc:	9a0b      	ldr	r2, [sp, #44]	; 0x2c
   b74de:	3201      	adds	r2, #1
        sb += dx02;
   b74e0:	44c1      	add	r9, r8
    for(y=y0; y<=last; y++) {
   b74e2:	b212      	sxth	r2, r2
   b74e4:	e7d7      	b.n	b7496 <_ZN12Adafruit_GFX12fillTriangleEsssssst+0x116>
    sa = (int32_t)dx12 * (y - y1);
   b74e6:	9b07      	ldr	r3, [sp, #28]
   b74e8:	1b14      	subs	r4, r2, r4
    sb = (int32_t)dx02 * (y - y0);
   b74ea:	1b96      	subs	r6, r2, r6
    sa = (int32_t)dx12 * (y - y1);
   b74ec:	435c      	muls	r4, r3
    sb = (int32_t)dx02 * (y - y0);
   b74ee:	fb08 f606 	mul.w	r6, r8, r6
    for(; y<=y2; y++) {
   b74f2:	42ba      	cmp	r2, r7
   b74f4:	dc93      	bgt.n	b741e <_ZN12Adafruit_GFX12fillTriangleEsssssst+0x9e>
        a   = x1 + sa / dy12;
   b74f6:	9b0a      	ldr	r3, [sp, #40]	; 0x28
        b   = x0 + sb / dy02;
   b74f8:	9802      	ldr	r0, [sp, #8]
        a   = x1 + sa / dy12;
   b74fa:	fb94 f1f3 	sdiv	r1, r4, r3
   b74fe:	9b03      	ldr	r3, [sp, #12]
        writeFastHLine(a, y, b-a+1, color);
   b7500:	9205      	str	r2, [sp, #20]
        a   = x1 + sa / dy12;
   b7502:	4419      	add	r1, r3
        b   = x0 + sb / dy02;
   b7504:	9b06      	ldr	r3, [sp, #24]
   b7506:	fb96 f3f3 	sdiv	r3, r6, r3
   b750a:	4403      	add	r3, r0
        a   = x1 + sa / dy12;
   b750c:	b209      	sxth	r1, r1
        b   = x0 + sb / dy02;
   b750e:	b21b      	sxth	r3, r3
        if(a > b) _swap_int16_t(a,b);
   b7510:	4299      	cmp	r1, r3
        sa += dx12;
   b7512:	9807      	ldr	r0, [sp, #28]
        if(a > b) _swap_int16_t(a,b);
   b7514:	bfc8      	it	gt
   b7516:	468c      	movgt	ip, r1
        sa += dx12;
   b7518:	4404      	add	r4, r0
        if(a > b) _swap_int16_t(a,b);
   b751a:	bfc8      	it	gt
   b751c:	4619      	movgt	r1, r3
        writeFastHLine(a, y, b-a+1, color);
   b751e:	9804      	ldr	r0, [sp, #16]
   b7520:	9000      	str	r0, [sp, #0]
        if(a > b) _swap_int16_t(a,b);
   b7522:	bfc8      	it	gt
   b7524:	4663      	movgt	r3, ip
        writeFastHLine(a, y, b-a+1, color);
   b7526:	f8db 0000 	ldr.w	r0, [fp]
   b752a:	3301      	adds	r3, #1
   b752c:	1a5b      	subs	r3, r3, r1
   b752e:	f8d0 9024 	ldr.w	r9, [r0, #36]	; 0x24
   b7532:	b21b      	sxth	r3, r3
   b7534:	4658      	mov	r0, fp
   b7536:	47c8      	blx	r9
   b7538:	9a05      	ldr	r2, [sp, #20]
   b753a:	3201      	adds	r2, #1
        sb += dx02;
   b753c:	4446      	add	r6, r8
    for(; y<=y2; y++) {
   b753e:	b212      	sxth	r2, r2
   b7540:	e7d7      	b.n	b74f2 <_ZN12Adafruit_GFX12fillTriangleEsssssst+0x172>
    if (y1 > y2) {
   b7542:	42be      	cmp	r6, r7
   b7544:	f73f af3c 	bgt.w	b73c0 <_ZN12Adafruit_GFX12fillTriangleEsssssst+0x40>
   b7548:	4633      	mov	r3, r6
   b754a:	461c      	mov	r4, r3
   b754c:	4616      	mov	r6, r2
   b754e:	462b      	mov	r3, r5
   b7550:	460d      	mov	r5, r1
   b7552:	e733      	b.n	b73bc <_ZN12Adafruit_GFX12fillTriangleEsssssst+0x3c>

000b7554 <_ZN12Adafruit_GFX10drawBitmapEssPKhsst>:
  const uint8_t bitmap[], int16_t w, int16_t h, uint16_t color) {
   b7554:	e92d 4ff0 	stmdb	sp!, {r4, r5, r6, r7, r8, r9, sl, fp, lr}
   b7558:	b089      	sub	sp, #36	; 0x24
   b755a:	e9cd 1202 	strd	r1, r2, [sp, #8]
    startWrite();
   b755e:	6802      	ldr	r2, [r0, #0]
  const uint8_t bitmap[], int16_t w, int16_t h, uint16_t color) {
   b7560:	f9bd 8048 	ldrsh.w	r8, [sp, #72]	; 0x48
   b7564:	9304      	str	r3, [sp, #16]
   b7566:	f9bd 304c 	ldrsh.w	r3, [sp, #76]	; 0x4c
    startWrite();
   b756a:	6952      	ldr	r2, [r2, #20]
  const uint8_t bitmap[], int16_t w, int16_t h, uint16_t color) {
   b756c:	9305      	str	r3, [sp, #20]
   b756e:	f8bd a050 	ldrh.w	sl, [sp, #80]	; 0x50
   b7572:	4604      	mov	r4, r0
    startWrite();
   b7574:	4790      	blx	r2
    int16_t byteWidth = (w + 7) / 8; // Bitmap scanline pad = whole byte
   b7576:	f118 0207 	adds.w	r2, r8, #7
    startWrite();
   b757a:	f04f 0600 	mov.w	r6, #0
    int16_t byteWidth = (w + 7) / 8; // Bitmap scanline pad = whole byte
   b757e:	bf48      	it	mi
   b7580:	f108 020e 	addmi.w	r2, r8, #14
   b7584:	ea4f 0be2 	mov.w	fp, r2, asr #3
    startWrite();
   b7588:	9601      	str	r6, [sp, #4]
    uint8_t byte = 0;
   b758a:	4635      	mov	r5, r6
   b758c:	9b03      	ldr	r3, [sp, #12]
   b758e:	9a01      	ldr	r2, [sp, #4]
    for(int16_t j=0; j<h; j++, y++) {
   b7590:	f9bd 1004 	ldrsh.w	r1, [sp, #4]
   b7594:	189a      	adds	r2, r3, r2
   b7596:	9b05      	ldr	r3, [sp, #20]
   b7598:	428b      	cmp	r3, r1
   b759a:	b212      	sxth	r2, r2
   b759c:	dd27      	ble.n	b75ee <_ZN12Adafruit_GFX10drawBitmapEssPKhsst+0x9a>
            else      byte   = pgm_read_byte(&bitmap[j * byteWidth + i / 8]);
   b759e:	9b04      	ldr	r3, [sp, #16]
   b75a0:	4433      	add	r3, r6
    for(int16_t j=0; j<h; j++, y++) {
   b75a2:	f04f 0900 	mov.w	r9, #0
            else      byte   = pgm_read_byte(&bitmap[j * byteWidth + i / 8]);
   b75a6:	9306      	str	r3, [sp, #24]
   b75a8:	fa0f f089 	sxth.w	r0, r9
        for(int16_t i=0; i<w; i++) {
   b75ac:	4580      	cmp	r8, r0
   b75ae:	fa1f f189 	uxth.w	r1, r9
   b75b2:	dd17      	ble.n	b75e4 <_ZN12Adafruit_GFX10drawBitmapEssPKhsst+0x90>
            if(i & 7) byte <<= 1;
   b75b4:	074f      	lsls	r7, r1, #29
            else      byte   = pgm_read_byte(&bitmap[j * byteWidth + i / 8]);
   b75b6:	bf05      	ittet	eq
   b75b8:	9b06      	ldreq	r3, [sp, #24]
   b75ba:	10c0      	asreq	r0, r0, #3
            if(i & 7) byte <<= 1;
   b75bc:	006d      	lslne	r5, r5, #1
            else      byte   = pgm_read_byte(&bitmap[j * byteWidth + i / 8]);
   b75be:	5c1d      	ldrbeq	r5, [r3, r0]
            if(i & 7) byte <<= 1;
   b75c0:	bf18      	it	ne
   b75c2:	b2ed      	uxtbne	r5, r5
            if(byte & 0x80) writePixel(x+i, y, color);
   b75c4:	062b      	lsls	r3, r5, #24
   b75c6:	d50a      	bpl.n	b75de <_ZN12Adafruit_GFX10drawBitmapEssPKhsst+0x8a>
   b75c8:	9b02      	ldr	r3, [sp, #8]
   b75ca:	6820      	ldr	r0, [r4, #0]
   b75cc:	9207      	str	r2, [sp, #28]
   b75ce:	4419      	add	r1, r3
   b75d0:	6983      	ldr	r3, [r0, #24]
   b75d2:	b209      	sxth	r1, r1
   b75d4:	461f      	mov	r7, r3
   b75d6:	4620      	mov	r0, r4
   b75d8:	4653      	mov	r3, sl
   b75da:	47b8      	blx	r7
   b75dc:	9a07      	ldr	r2, [sp, #28]
        for(int16_t i=0; i<w; i++) {
   b75de:	f109 0901 	add.w	r9, r9, #1
   b75e2:	e7e1      	b.n	b75a8 <_ZN12Adafruit_GFX10drawBitmapEssPKhsst+0x54>
    for(int16_t j=0; j<h; j++, y++) {
   b75e4:	9b01      	ldr	r3, [sp, #4]
   b75e6:	3301      	adds	r3, #1
   b75e8:	9301      	str	r3, [sp, #4]
   b75ea:	445e      	add	r6, fp
   b75ec:	e7ce      	b.n	b758c <_ZN12Adafruit_GFX10drawBitmapEssPKhsst+0x38>
    endWrite();
   b75ee:	6823      	ldr	r3, [r4, #0]
   b75f0:	6adb      	ldr	r3, [r3, #44]	; 0x2c
   b75f2:	4620      	mov	r0, r4
}
   b75f4:	b009      	add	sp, #36	; 0x24
   b75f6:	e8bd 4ff0 	ldmia.w	sp!, {r4, r5, r6, r7, r8, r9, sl, fp, lr}
    endWrite();
   b75fa:	4718      	bx	r3

000b75fc <_ZN12Adafruit_GFX8drawCharEsshtthh>:
  uint16_t color, uint16_t bg, uint8_t size_x, uint8_t size_y) {
   b75fc:	e92d 4ff0 	stmdb	sp!, {r4, r5, r6, r7, r8, r9, sl, fp, lr}
   b7600:	ed2d 8b02 	vpush	{d8}
   b7604:	b091      	sub	sp, #68	; 0x44
   b7606:	4616      	mov	r6, r2
    if(!gfxFont) { // 'Classic' built-in font
   b7608:	6a02      	ldr	r2, [r0, #32]
  uint16_t color, uint16_t bg, uint8_t size_x, uint8_t size_y) {
   b760a:	f8bd 8074 	ldrh.w	r8, [sp, #116]	; 0x74
   b760e:	f89d 5078 	ldrb.w	r5, [sp, #120]	; 0x78
   b7612:	f89d 407c 	ldrb.w	r4, [sp, #124]	; 0x7c
   b7616:	9103      	str	r1, [sp, #12]
   b7618:	461f      	mov	r7, r3
   b761a:	f8bd 3070 	ldrh.w	r3, [sp, #112]	; 0x70
   b761e:	9304      	str	r3, [sp, #16]
   b7620:	4683      	mov	fp, r0
    if(!gfxFont) { // 'Classic' built-in font
   b7622:	2a00      	cmp	r2, #0
   b7624:	f040 80c5 	bne.w	b77b2 <_ZN12Adafruit_GFX8drawCharEsshtthh+0x1b6>
        if((x >= _width)            || // Clip right
   b7628:	f9b0 300c 	ldrsh.w	r3, [r0, #12]
   b762c:	428b      	cmp	r3, r1
   b762e:	f340 814c 	ble.w	b78ca <_ZN12Adafruit_GFX8drawCharEsshtthh+0x2ce>
   b7632:	f9b0 300e 	ldrsh.w	r3, [r0, #14]
   b7636:	42b3      	cmp	r3, r6
   b7638:	f340 8147 	ble.w	b78ca <_ZN12Adafruit_GFX8drawCharEsshtthh+0x2ce>
           ((x + 6 * size_x - 1) < 0) || // Clip left
   b763c:	2306      	movs	r3, #6
   b763e:	fb13 1305 	smlabb	r3, r3, r5, r1
           (y >= _height)           || // Clip bottom
   b7642:	2b00      	cmp	r3, #0
   b7644:	f340 8141 	ble.w	b78ca <_ZN12Adafruit_GFX8drawCharEsshtthh+0x2ce>
           ((y + 8 * size_y - 1) < 0))   // Clip top
   b7648:	eb06 03c4 	add.w	r3, r6, r4, lsl #3
           ((x + 6 * size_x - 1) < 0) || // Clip left
   b764c:	2b00      	cmp	r3, #0
   b764e:	f340 813c 	ble.w	b78ca <_ZN12Adafruit_GFX8drawCharEsshtthh+0x2ce>
        if(!_cp437 && (c >= 176)) c++; // Handle 'classic' charset behavior
   b7652:	7f03      	ldrb	r3, [r0, #28]
   b7654:	b91b      	cbnz	r3, b765e <_ZN12Adafruit_GFX8drawCharEsshtthh+0x62>
   b7656:	2faf      	cmp	r7, #175	; 0xaf
   b7658:	bf84      	itt	hi
   b765a:	3701      	addhi	r7, #1
   b765c:	b2ff      	uxtbhi	r7, r7
        startWrite();
   b765e:	f8db 3000 	ldr.w	r3, [fp]
   b7662:	4658      	mov	r0, fp
   b7664:	695b      	ldr	r3, [r3, #20]
   b7666:	4798      	blx	r3
            uint8_t line = pgm_read_byte(&font[c * 5 + i]);
   b7668:	2205      	movs	r2, #5
   b766a:	9209      	str	r2, [sp, #36]	; 0x24
        for(int8_t i=0; i<5; i++ ) { // Char bitmap = 5 columns
   b766c:	2200      	movs	r2, #0
   b766e:	9205      	str	r2, [sp, #20]
            uint8_t line = pgm_read_byte(&font[c * 5 + i]);
   b7670:	4a98      	ldr	r2, [pc, #608]	; (b78d4 <_ZN12Adafruit_GFX8drawCharEsshtthh+0x2d8>)
   b7672:	eb07 0387 	add.w	r3, r7, r7, lsl #2
   b7676:	18d3      	adds	r3, r2, r3
   b7678:	930c      	str	r3, [sp, #48]	; 0x30
                        writePixel(x+i, y+j, color);
   b767a:	b2b3      	uxth	r3, r6
   b767c:	9306      	str	r3, [sp, #24]
            uint8_t line = pgm_read_byte(&font[c * 5 + i]);
   b767e:	9a05      	ldr	r2, [sp, #20]
   b7680:	9b0c      	ldr	r3, [sp, #48]	; 0x30
   b7682:	5c9b      	ldrb	r3, [r3, r2]
   b7684:	9307      	str	r3, [sp, #28]
                        writeFillRect(x+i*size_x, y+j*size_y, size_x, size_y, bg);
   b7686:	b2ab      	uxth	r3, r5
   b7688:	930b      	str	r3, [sp, #44]	; 0x2c
   b768a:	f8bd 300c 	ldrh.w	r3, [sp, #12]
   b768e:	9308      	str	r3, [sp, #32]
   b7690:	9b03      	ldr	r3, [sp, #12]
   b7692:	fb02 f905 	mul.w	r9, r2, r5
   b7696:	fa19 f983 	uxtah	r9, r9, r3
   b769a:	fa0f f389 	sxth.w	r3, r9
   b769e:	ee08 3a10 	vmov	s16, r3
   b76a2:	2308      	movs	r3, #8
   b76a4:	930a      	str	r3, [sp, #40]	; 0x28
                        writePixel(x+i, y+j, bg);
   b76a6:	9b03      	ldr	r3, [sp, #12]
   b76a8:	eb02 0a03 	add.w	sl, r2, r3
            for(int8_t j=0; j<8; j++, line >>= 1) {
   b76ac:	f04f 0900 	mov.w	r9, #0
                        writePixel(x+i, y+j, bg);
   b76b0:	fa0f fa8a 	sxth.w	sl, sl
                if(line & 1) {
   b76b4:	9a07      	ldr	r2, [sp, #28]
                        writePixel(x+i, y+j, color);
   b76b6:	f8db 3000 	ldr.w	r3, [fp]
                if(line & 1) {
   b76ba:	07d2      	lsls	r2, r2, #31
   b76bc:	d552      	bpl.n	b7764 <_ZN12Adafruit_GFX8drawCharEsshtthh+0x168>
                    if(size_x == 1 && size_y == 1)
   b76be:	2d01      	cmp	r5, #1
                        writePixel(x+i, y+j, color);
   b76c0:	fa1f f289 	uxth.w	r2, r9
                    if(size_x == 1 && size_y == 1)
   b76c4:	d13e      	bne.n	b7744 <_ZN12Adafruit_GFX8drawCharEsshtthh+0x148>
   b76c6:	2c01      	cmp	r4, #1
   b76c8:	d13c      	bne.n	b7744 <_ZN12Adafruit_GFX8drawCharEsshtthh+0x148>
                        writePixel(x+i, y+j, color);
   b76ca:	699b      	ldr	r3, [r3, #24]
   b76cc:	9906      	ldr	r1, [sp, #24]
   b76ce:	461f      	mov	r7, r3
   b76d0:	9b04      	ldr	r3, [sp, #16]
   b76d2:	440a      	add	r2, r1
                        writePixel(x+i, y+j, bg);
   b76d4:	b212      	sxth	r2, r2
   b76d6:	4651      	mov	r1, sl
   b76d8:	4658      	mov	r0, fp
   b76da:	47b8      	blx	r7
            for(int8_t j=0; j<8; j++, line >>= 1) {
   b76dc:	f109 0301 	add.w	r3, r9, #1
   b76e0:	fa4f f983 	sxtb.w	r9, r3
   b76e4:	9b07      	ldr	r3, [sp, #28]
   b76e6:	085b      	lsrs	r3, r3, #1
   b76e8:	9307      	str	r3, [sp, #28]
   b76ea:	9b0a      	ldr	r3, [sp, #40]	; 0x28
   b76ec:	3b01      	subs	r3, #1
   b76ee:	f013 03ff 	ands.w	r3, r3, #255	; 0xff
   b76f2:	930a      	str	r3, [sp, #40]	; 0x28
   b76f4:	d1de      	bne.n	b76b4 <_ZN12Adafruit_GFX8drawCharEsshtthh+0xb8>
        for(int8_t i=0; i<5; i++ ) { // Char bitmap = 5 columns
   b76f6:	9f05      	ldr	r7, [sp, #20]
   b76f8:	3701      	adds	r7, #1
   b76fa:	b27b      	sxtb	r3, r7
   b76fc:	9305      	str	r3, [sp, #20]
   b76fe:	9b09      	ldr	r3, [sp, #36]	; 0x24
   b7700:	3b01      	subs	r3, #1
   b7702:	f013 03ff 	ands.w	r3, r3, #255	; 0xff
   b7706:	9309      	str	r3, [sp, #36]	; 0x24
   b7708:	d1b9      	bne.n	b767e <_ZN12Adafruit_GFX8drawCharEsshtthh+0x82>
        if(bg != color) { // If opaque, draw vertical line for last column
   b770a:	9b04      	ldr	r3, [sp, #16]
   b770c:	4543      	cmp	r3, r8
   b770e:	d00f      	beq.n	b7730 <_ZN12Adafruit_GFX8drawCharEsshtthh+0x134>
            if(size_x == 1 && size_y == 1) writeFastVLine(x+5, y, 8, bg);
   b7710:	2d01      	cmp	r5, #1
   b7712:	f8db 3000 	ldr.w	r3, [fp]
   b7716:	d13b      	bne.n	b7790 <_ZN12Adafruit_GFX8drawCharEsshtthh+0x194>
   b7718:	2c01      	cmp	r4, #1
   b771a:	d139      	bne.n	b7790 <_ZN12Adafruit_GFX8drawCharEsshtthh+0x194>
   b771c:	9908      	ldr	r1, [sp, #32]
   b771e:	f8cd 8000 	str.w	r8, [sp]
   b7722:	3105      	adds	r1, #5
   b7724:	6a1c      	ldr	r4, [r3, #32]
   b7726:	4632      	mov	r2, r6
   b7728:	2308      	movs	r3, #8
   b772a:	b209      	sxth	r1, r1
   b772c:	4658      	mov	r0, fp
   b772e:	47a0      	blx	r4
        endWrite();
   b7730:	f8db 3000 	ldr.w	r3, [fp]
   b7734:	6adb      	ldr	r3, [r3, #44]	; 0x2c
   b7736:	4658      	mov	r0, fp
}
   b7738:	b011      	add	sp, #68	; 0x44
   b773a:	ecbd 8b02 	vpop	{d8}
   b773e:	e8bd 4ff0 	ldmia.w	sp!, {r4, r5, r6, r7, r8, r9, sl, fp, lr}
        endWrite();
   b7742:	4718      	bx	r3
                        writeFillRect(x+i*size_x, y+j*size_y, size_x, size_y, color);
   b7744:	9906      	ldr	r1, [sp, #24]
   b7746:	fb14 f202 	smulbb	r2, r4, r2
   b774a:	440a      	add	r2, r1
   b774c:	9904      	ldr	r1, [sp, #16]
   b774e:	9101      	str	r1, [sp, #4]
                        writeFillRect(x+i*size_x, y+j*size_y, size_x, size_y, bg);
   b7750:	9400      	str	r4, [sp, #0]
   b7752:	69db      	ldr	r3, [r3, #28]
   b7754:	ee18 1a10 	vmov	r1, s16
   b7758:	461f      	mov	r7, r3
   b775a:	b212      	sxth	r2, r2
   b775c:	462b      	mov	r3, r5
   b775e:	4658      	mov	r0, fp
   b7760:	47b8      	blx	r7
   b7762:	e7bb      	b.n	b76dc <_ZN12Adafruit_GFX8drawCharEsshtthh+0xe0>
                } else if(bg != color) {
   b7764:	9a04      	ldr	r2, [sp, #16]
   b7766:	4542      	cmp	r2, r8
   b7768:	d0b8      	beq.n	b76dc <_ZN12Adafruit_GFX8drawCharEsshtthh+0xe0>
                    if(size_x == 1 && size_y == 1)
   b776a:	2d01      	cmp	r5, #1
                        writePixel(x+i, y+j, color);
   b776c:	fa1f f289 	uxth.w	r2, r9
                    if(size_x == 1 && size_y == 1)
   b7770:	d107      	bne.n	b7782 <_ZN12Adafruit_GFX8drawCharEsshtthh+0x186>
   b7772:	2c01      	cmp	r4, #1
   b7774:	d105      	bne.n	b7782 <_ZN12Adafruit_GFX8drawCharEsshtthh+0x186>
                        writePixel(x+i, y+j, bg);
   b7776:	699b      	ldr	r3, [r3, #24]
   b7778:	9906      	ldr	r1, [sp, #24]
   b777a:	461f      	mov	r7, r3
   b777c:	440a      	add	r2, r1
   b777e:	4643      	mov	r3, r8
   b7780:	e7a8      	b.n	b76d4 <_ZN12Adafruit_GFX8drawCharEsshtthh+0xd8>
                        writeFillRect(x+i*size_x, y+j*size_y, size_x, size_y, bg);
   b7782:	9906      	ldr	r1, [sp, #24]
   b7784:	f8cd 8004 	str.w	r8, [sp, #4]
   b7788:	fb14 f202 	smulbb	r2, r4, r2
   b778c:	440a      	add	r2, r1
   b778e:	e7df      	b.n	b7750 <_ZN12Adafruit_GFX8drawCharEsshtthh+0x154>
            else          writeFillRect(x+5*size_x, y, size_x, 8*size_y, bg);
   b7790:	9a0b      	ldr	r2, [sp, #44]	; 0x2c
   b7792:	f8cd 8004 	str.w	r8, [sp, #4]
   b7796:	eb02 0182 	add.w	r1, r2, r2, lsl #2
   b779a:	9a08      	ldr	r2, [sp, #32]
   b779c:	00e4      	lsls	r4, r4, #3
   b779e:	440a      	add	r2, r1
   b77a0:	4611      	mov	r1, r2
   b77a2:	9400      	str	r4, [sp, #0]
   b77a4:	69dc      	ldr	r4, [r3, #28]
   b77a6:	4632      	mov	r2, r6
   b77a8:	462b      	mov	r3, r5
   b77aa:	b209      	sxth	r1, r1
   b77ac:	4658      	mov	r0, fp
   b77ae:	47a0      	blx	r4
        endWrite();
   b77b0:	e7be      	b.n	b7730 <_ZN12Adafruit_GFX8drawCharEsshtthh+0x134>
        c -= (uint8_t)pgm_read_byte(&gfxFont->first);
   b77b2:	7a13      	ldrb	r3, [r2, #8]
    return gfxFont->glyph + c;
   b77b4:	6851      	ldr	r1, [r2, #4]
    return gfxFont->bitmap;
   b77b6:	6812      	ldr	r2, [r2, #0]
   b77b8:	920b      	str	r2, [sp, #44]	; 0x2c
        c -= (uint8_t)pgm_read_byte(&gfxFont->first);
   b77ba:	1aff      	subs	r7, r7, r3
    return gfxFont->glyph + c;
   b77bc:	b2ff      	uxtb	r7, r7
   b77be:	eb01 03c7 	add.w	r3, r1, r7, lsl #3
        uint16_t bo = pgm_read_word(&glyph->bitmapOffset);
   b77c2:	f831 2037 	ldrh.w	r2, [r1, r7, lsl #3]
   b77c6:	9206      	str	r2, [sp, #24]
        uint8_t  w  = pgm_read_byte(&glyph->width),
   b77c8:	789a      	ldrb	r2, [r3, #2]
   b77ca:	9209      	str	r2, [sp, #36]	; 0x24
                 h  = pgm_read_byte(&glyph->height);
   b77cc:	78da      	ldrb	r2, [r3, #3]
   b77ce:	920c      	str	r2, [sp, #48]	; 0x30
        if(size_x > 1 || size_y > 1) {
   b77d0:	2d01      	cmp	r5, #1
        int8_t   xo = pgm_read_byte(&glyph->xOffset),
   b77d2:	f993 2005 	ldrsb.w	r2, [r3, #5]
                 yo = pgm_read_byte(&glyph->yOffset);
   b77d6:	f993 a006 	ldrsb.w	sl, [r3, #6]
        int8_t   xo = pgm_read_byte(&glyph->xOffset),
   b77da:	920a      	str	r2, [sp, #40]	; 0x28
        if(size_x > 1 || size_y > 1) {
   b77dc:	d801      	bhi.n	b77e2 <_ZN12Adafruit_GFX8drawCharEsshtthh+0x1e6>
   b77de:	2c01      	cmp	r4, #1
   b77e0:	d957      	bls.n	b7892 <_ZN12Adafruit_GFX8drawCharEsshtthh+0x296>
            xo16 = xo;
   b77e2:	f9bd 3028 	ldrsh.w	r3, [sp, #40]	; 0x28
   b77e6:	9308      	str	r3, [sp, #32]
            yo16 = yo;
   b77e8:	fa0f f38a 	sxth.w	r3, sl
   b77ec:	9307      	str	r3, [sp, #28]
        startWrite();
   b77ee:	f8db 3000 	ldr.w	r3, [fp]
   b77f2:	4658      	mov	r0, fp
   b77f4:	695b      	ldr	r3, [r3, #20]
   b77f6:	4798      	blx	r3
                        writeFillRect(x+(xo16+xx)*size_x, y+(yo16+yy)*size_y,
   b77f8:	b2b3      	uxth	r3, r6
        uint8_t  xx, yy, bits = 0, bit = 0;
   b77fa:	f04f 0800 	mov.w	r8, #0
                        writeFillRect(x+(xo16+xx)*size_x, y+(yo16+yy)*size_y,
   b77fe:	930e      	str	r3, [sp, #56]	; 0x38
                        writePixel(x+xo+xx, y+yo+yy, color);
   b7800:	fa1a f386 	uxtah	r3, sl, r6
        uint8_t  xx, yy, bits = 0, bit = 0;
   b7804:	46c1      	mov	r9, r8
        for(yy=0; yy<h; yy++) {
   b7806:	4647      	mov	r7, r8
                        writePixel(x+xo+xx, y+yo+yy, color);
   b7808:	930f      	str	r3, [sp, #60]	; 0x3c
        for(yy=0; yy<h; yy++) {
   b780a:	9b0c      	ldr	r3, [sp, #48]	; 0x30
   b780c:	429f      	cmp	r7, r3
   b780e:	d28f      	bcs.n	b7730 <_ZN12Adafruit_GFX8drawCharEsshtthh+0x134>
                        writeFillRect(x+(xo16+xx)*size_x, y+(yo16+yy)*size_y,
   b7810:	9b07      	ldr	r3, [sp, #28]
   b7812:	9a0e      	ldr	r2, [sp, #56]	; 0x38
   b7814:	443b      	add	r3, r7
   b7816:	fb03 2304 	mla	r3, r3, r4, r2
            for(xx=0; xx<w; xx++) {
   b781a:	2200      	movs	r2, #0
   b781c:	9205      	str	r2, [sp, #20]
                        writePixel(x+xo+xx, y+yo+yy, color);
   b781e:	9a0f      	ldr	r2, [sp, #60]	; 0x3c
                        writeFillRect(x+(xo16+xx)*size_x, y+(yo16+yy)*size_y,
   b7820:	b21b      	sxth	r3, r3
                        writePixel(x+xo+xx, y+yo+yy, color);
   b7822:	eb02 0a07 	add.w	sl, r2, r7
                        writeFillRect(x+(xo16+xx)*size_x, y+(yo16+yy)*size_y,
   b7826:	ee08 3a10 	vmov	s16, r3
                        writePixel(x+xo+xx, y+yo+yy, color);
   b782a:	fa0f fa8a 	sxth.w	sl, sl
                        writeFillRect(x+(xo16+xx)*size_x, y+(yo16+yy)*size_y,
   b782e:	4643      	mov	r3, r8
            for(xx=0; xx<w; xx++) {
   b7830:	9a09      	ldr	r2, [sp, #36]	; 0x24
   b7832:	9905      	ldr	r1, [sp, #20]
   b7834:	4291      	cmp	r1, r2
   b7836:	d241      	bcs.n	b78bc <_ZN12Adafruit_GFX8drawCharEsshtthh+0x2c0>
                if(!(bit++ & 7)) {
   b7838:	1c5a      	adds	r2, r3, #1
   b783a:	b2d2      	uxtb	r2, r2
   b783c:	075b      	lsls	r3, r3, #29
   b783e:	920d      	str	r2, [sp, #52]	; 0x34
   b7840:	d107      	bne.n	b7852 <_ZN12Adafruit_GFX8drawCharEsshtthh+0x256>
                    bits = pgm_read_byte(&bitmap[bo++]);
   b7842:	9b06      	ldr	r3, [sp, #24]
   b7844:	9906      	ldr	r1, [sp, #24]
   b7846:	9a0b      	ldr	r2, [sp, #44]	; 0x2c
   b7848:	3301      	adds	r3, #1
   b784a:	b29b      	uxth	r3, r3
   b784c:	f812 9001 	ldrb.w	r9, [r2, r1]
   b7850:	9306      	str	r3, [sp, #24]
                if(bits & 0x80) {
   b7852:	f019 0f80 	tst.w	r9, #128	; 0x80
   b7856:	d012      	beq.n	b787e <_ZN12Adafruit_GFX8drawCharEsshtthh+0x282>
                    if(size_x == 1 && size_y == 1) {
   b7858:	2d01      	cmp	r5, #1
                        writePixel(x+xo+xx, y+yo+yy, color);
   b785a:	f8db 3000 	ldr.w	r3, [fp]
                        writeFillRect(x+i*size_x, y+j*size_y, size_x, size_y, bg);
   b785e:	f8bd 100c 	ldrh.w	r1, [sp, #12]
                    if(size_x == 1 && size_y == 1) {
   b7862:	d11a      	bne.n	b789a <_ZN12Adafruit_GFX8drawCharEsshtthh+0x29e>
   b7864:	2c01      	cmp	r4, #1
   b7866:	d118      	bne.n	b789a <_ZN12Adafruit_GFX8drawCharEsshtthh+0x29e>
                        writePixel(x+xo+xx, y+yo+yy, color);
   b7868:	9a0a      	ldr	r2, [sp, #40]	; 0x28
   b786a:	699b      	ldr	r3, [r3, #24]
   b786c:	4411      	add	r1, r2
   b786e:	9a05      	ldr	r2, [sp, #20]
   b7870:	4411      	add	r1, r2
   b7872:	461e      	mov	r6, r3
   b7874:	4652      	mov	r2, sl
   b7876:	9b04      	ldr	r3, [sp, #16]
   b7878:	b209      	sxth	r1, r1
   b787a:	4658      	mov	r0, fp
   b787c:	47b0      	blx	r6
            for(xx=0; xx<w; xx++) {
   b787e:	9e05      	ldr	r6, [sp, #20]
   b7880:	3601      	adds	r6, #1
   b7882:	b2f3      	uxtb	r3, r6
                bits <<= 1;
   b7884:	ea4f 0949 	mov.w	r9, r9, lsl #1
            for(xx=0; xx<w; xx++) {
   b7888:	9305      	str	r3, [sp, #20]
                bits <<= 1;
   b788a:	fa5f f989 	uxtb.w	r9, r9
                if(!(bit++ & 7)) {
   b788e:	9b0d      	ldr	r3, [sp, #52]	; 0x34
            for(xx=0; xx<w; xx++) {
   b7890:	e7ce      	b.n	b7830 <_ZN12Adafruit_GFX8drawCharEsshtthh+0x234>
        int16_t  xo16 = 0, yo16 = 0;
   b7892:	2300      	movs	r3, #0
   b7894:	e9cd 3307 	strd	r3, r3, [sp, #28]
   b7898:	e7a9      	b.n	b77ee <_ZN12Adafruit_GFX8drawCharEsshtthh+0x1f2>
                        writeFillRect(x+(xo16+xx)*size_x, y+(yo16+yy)*size_y,
   b789a:	9805      	ldr	r0, [sp, #20]
   b789c:	9a08      	ldr	r2, [sp, #32]
   b789e:	4402      	add	r2, r0
   b78a0:	fb02 1105 	mla	r1, r2, r5, r1
   b78a4:	9a04      	ldr	r2, [sp, #16]
   b78a6:	e9cd 4200 	strd	r4, r2, [sp]
   b78aa:	69db      	ldr	r3, [r3, #28]
   b78ac:	ee18 2a10 	vmov	r2, s16
   b78b0:	461e      	mov	r6, r3
   b78b2:	b209      	sxth	r1, r1
   b78b4:	462b      	mov	r3, r5
   b78b6:	4658      	mov	r0, fp
   b78b8:	47b0      	blx	r6
   b78ba:	e7e0      	b.n	b787e <_ZN12Adafruit_GFX8drawCharEsshtthh+0x282>
   b78bc:	9b09      	ldr	r3, [sp, #36]	; 0x24
        for(yy=0; yy<h; yy++) {
   b78be:	3701      	adds	r7, #1
   b78c0:	4498      	add	r8, r3
   b78c2:	fa5f f888 	uxtb.w	r8, r8
   b78c6:	b2ff      	uxtb	r7, r7
   b78c8:	e79f      	b.n	b780a <_ZN12Adafruit_GFX8drawCharEsshtthh+0x20e>
}
   b78ca:	b011      	add	sp, #68	; 0x44
   b78cc:	ecbd 8b02 	vpop	{d8}
   b78d0:	e8bd 8ff0 	ldmia.w	sp!, {r4, r5, r6, r7, r8, r9, sl, fp, pc}
   b78d4:	000bbcda 	.word	0x000bbcda

000b78d8 <_ZN12Adafruit_GFX5writeEh>:
size_t Adafruit_GFX::write(uint8_t c) {
   b78d8:	b5f0      	push	{r4, r5, r6, r7, lr}
    if(!gfxFont) { // 'Classic' built-in font
   b78da:	6a02      	ldr	r2, [r0, #32]
size_t Adafruit_GFX::write(uint8_t c) {
   b78dc:	b085      	sub	sp, #20
   b78de:	4604      	mov	r4, r0
   b78e0:	460b      	mov	r3, r1
    if(!gfxFont) { // 'Classic' built-in font
   b78e2:	2a00      	cmp	r2, #0
   b78e4:	d134      	bne.n	b7950 <_ZN12Adafruit_GFX5writeEh+0x78>
        if(c == '\n') {                        // Newline?
   b78e6:	290a      	cmp	r1, #10
   b78e8:	d108      	bne.n	b78fc <_ZN12Adafruit_GFX5writeEh+0x24>
            cursor_y += textsize_y * 8;        // advance y one line
   b78ea:	8a43      	ldrh	r3, [r0, #18]
            cursor_x  = 0;                     // Reset x to zero,
   b78ec:	8202      	strh	r2, [r0, #16]
            cursor_y += textsize_y * 8;        // advance y one line
   b78ee:	7e42      	ldrb	r2, [r0, #25]
   b78f0:	eb03 03c2 	add.w	r3, r3, r2, lsl #3
            cursor_y += (int16_t)textsize_y *
   b78f4:	8263      	strh	r3, [r4, #18]
}
   b78f6:	2001      	movs	r0, #1
   b78f8:	b005      	add	sp, #20
   b78fa:	bdf0      	pop	{r4, r5, r6, r7, pc}
        } else if(c != '\r') {                 // Ignore carriage returns
   b78fc:	290d      	cmp	r1, #13
   b78fe:	d0fa      	beq.n	b78f6 <_ZN12Adafruit_GFX5writeEh+0x1e>
            if(wrap && ((cursor_x + textsize_x * 6) > _width)) { // Off right?
   b7900:	7ee1      	ldrb	r1, [r4, #27]
   b7902:	7e00      	ldrb	r0, [r0, #24]
            cursor_y += textsize_y * 8;        // advance y one line
   b7904:	7e65      	ldrb	r5, [r4, #25]
            if(wrap && ((cursor_x + textsize_x * 6) > _width)) { // Off right?
   b7906:	b171      	cbz	r1, b7926 <_ZN12Adafruit_GFX5writeEh+0x4e>
   b7908:	f9b4 6010 	ldrsh.w	r6, [r4, #16]
   b790c:	2106      	movs	r1, #6
   b790e:	fb11 6100 	smlabb	r1, r1, r0, r6
   b7912:	f9b4 600c 	ldrsh.w	r6, [r4, #12]
   b7916:	42b1      	cmp	r1, r6
            cursor_y += textsize_y * 8;        // advance y one line
   b7918:	bfc1      	itttt	gt
   b791a:	f9b4 1012 	ldrshgt.w	r1, [r4, #18]
                cursor_x  = 0;                 // Reset x to zero,
   b791e:	8222      	strhgt	r2, [r4, #16]
                cursor_y += textsize_y * 8;    // advance y one line
   b7920:	eb01 02c5 	addgt.w	r2, r1, r5, lsl #3
   b7924:	8262      	strhgt	r2, [r4, #18]
            drawChar(cursor_x, cursor_y, c, textcolor, textbgcolor, textsize_x, textsize_y);
   b7926:	8ae2      	ldrh	r2, [r4, #22]
   b7928:	9201      	str	r2, [sp, #4]
   b792a:	8aa2      	ldrh	r2, [r4, #20]
   b792c:	9200      	str	r2, [sp, #0]
   b792e:	e9cd 0502 	strd	r0, r5, [sp, #8]
   b7932:	f9b4 2012 	ldrsh.w	r2, [r4, #18]
   b7936:	f9b4 1010 	ldrsh.w	r1, [r4, #16]
   b793a:	4620      	mov	r0, r4
   b793c:	f7ff fe5e 	bl	b75fc <_ZN12Adafruit_GFX8drawCharEsshtthh>
            cursor_x += textsize_x * 6;          // Advance x one char
   b7940:	7e23      	ldrb	r3, [r4, #24]
   b7942:	8a22      	ldrh	r2, [r4, #16]
   b7944:	eb03 0343 	add.w	r3, r3, r3, lsl #1
   b7948:	eb02 0343 	add.w	r3, r2, r3, lsl #1
                cursor_x += (uint8_t)pgm_read_byte(&glyph->xAdvance) * (int16_t)textsize_x;
   b794c:	8223      	strh	r3, [r4, #16]
   b794e:	e7d2      	b.n	b78f6 <_ZN12Adafruit_GFX5writeEh+0x1e>
        if(c == '\n') {
   b7950:	290a      	cmp	r1, #10
   b7952:	d107      	bne.n	b7964 <_ZN12Adafruit_GFX5writeEh+0x8c>
            cursor_x  = 0;
   b7954:	2300      	movs	r3, #0
   b7956:	8203      	strh	r3, [r0, #16]
            cursor_y += (int16_t)textsize_y *
   b7958:	7e41      	ldrb	r1, [r0, #25]
                        (uint8_t)pgm_read_byte(&gfxFont->yAdvance);
   b795a:	7a92      	ldrb	r2, [r2, #10]
            cursor_y += (int16_t)textsize_y *
   b795c:	8a43      	ldrh	r3, [r0, #18]
   b795e:	fb01 3302 	mla	r3, r1, r2, r3
   b7962:	e7c7      	b.n	b78f4 <_ZN12Adafruit_GFX5writeEh+0x1c>
        } else if(c != '\r') {
   b7964:	290d      	cmp	r1, #13
   b7966:	d0c6      	beq.n	b78f6 <_ZN12Adafruit_GFX5writeEh+0x1e>
            uint8_t first = pgm_read_byte(&gfxFont->first);
   b7968:	7a15      	ldrb	r5, [r2, #8]
            if((c >= first) && (c <= (uint8_t)pgm_read_byte(&gfxFont->last))) {
   b796a:	42a9      	cmp	r1, r5
   b796c:	d3c3      	bcc.n	b78f6 <_ZN12Adafruit_GFX5writeEh+0x1e>
   b796e:	7a51      	ldrb	r1, [r2, #9]
   b7970:	4299      	cmp	r1, r3
   b7972:	d3c0      	bcc.n	b78f6 <_ZN12Adafruit_GFX5writeEh+0x1e>
    return gfxFont->glyph + c;
   b7974:	6851      	ldr	r1, [r2, #4]
                GFXglyph *glyph  = pgm_read_glyph_ptr(gfxFont, c - first);
   b7976:	1b5d      	subs	r5, r3, r5
    return gfxFont->glyph + c;
   b7978:	b2ed      	uxtb	r5, r5
   b797a:	eb01 05c5 	add.w	r5, r1, r5, lsl #3
                uint8_t   w     = pgm_read_byte(&glyph->width),
   b797e:	78a8      	ldrb	r0, [r5, #2]
                if((w > 0) && (h > 0)) { // Is there an associated bitmap?
   b7980:	b328      	cbz	r0, b79ce <_ZN12Adafruit_GFX5writeEh+0xf6>
   b7982:	78e9      	ldrb	r1, [r5, #3]
   b7984:	b319      	cbz	r1, b79ce <_ZN12Adafruit_GFX5writeEh+0xf6>
                    if(wrap && ((cursor_x + textsize_x * (xo + w)) > _width)) {
   b7986:	7ee1      	ldrb	r1, [r4, #27]
            if(wrap && ((cursor_x + textsize_x * 6) > _width)) { // Off right?
   b7988:	7e26      	ldrb	r6, [r4, #24]
            cursor_y += textsize_y * 8;        // advance y one line
   b798a:	7e67      	ldrb	r7, [r4, #25]
                    if(wrap && ((cursor_x + textsize_x * (xo + w)) > _width)) {
   b798c:	b191      	cbz	r1, b79b4 <_ZN12Adafruit_GFX5writeEh+0xdc>
   b798e:	f995 1005 	ldrsb.w	r1, [r5, #5]
   b7992:	4408      	add	r0, r1
   b7994:	f9b4 1010 	ldrsh.w	r1, [r4, #16]
   b7998:	fb06 1100 	mla	r1, r6, r0, r1
   b799c:	f9b4 000c 	ldrsh.w	r0, [r4, #12]
   b79a0:	4281      	cmp	r1, r0
   b79a2:	dd07      	ble.n	b79b4 <_ZN12Adafruit_GFX5writeEh+0xdc>
                        cursor_x  = 0;
   b79a4:	2000      	movs	r0, #0
   b79a6:	8220      	strh	r0, [r4, #16]
            cursor_y += textsize_y * 8;        // advance y one line
   b79a8:	f9b4 1012 	ldrsh.w	r1, [r4, #18]
                          (uint8_t)pgm_read_byte(&gfxFont->yAdvance);
   b79ac:	7a92      	ldrb	r2, [r2, #10]
                        cursor_y += (int16_t)textsize_y *
   b79ae:	fb02 1207 	mla	r2, r2, r7, r1
   b79b2:	8262      	strh	r2, [r4, #18]
                    drawChar(cursor_x, cursor_y, c, textcolor, textbgcolor, textsize_x, textsize_y);
   b79b4:	8ae2      	ldrh	r2, [r4, #22]
   b79b6:	9201      	str	r2, [sp, #4]
   b79b8:	8aa2      	ldrh	r2, [r4, #20]
   b79ba:	9200      	str	r2, [sp, #0]
   b79bc:	e9cd 6702 	strd	r6, r7, [sp, #8]
   b79c0:	f9b4 2012 	ldrsh.w	r2, [r4, #18]
   b79c4:	f9b4 1010 	ldrsh.w	r1, [r4, #16]
   b79c8:	4620      	mov	r0, r4
   b79ca:	f7ff fe17 	bl	b75fc <_ZN12Adafruit_GFX8drawCharEsshtthh>
                cursor_x += (uint8_t)pgm_read_byte(&glyph->xAdvance) * (int16_t)textsize_x;
   b79ce:	7929      	ldrb	r1, [r5, #4]
   b79d0:	7e22      	ldrb	r2, [r4, #24]
   b79d2:	8a23      	ldrh	r3, [r4, #16]
   b79d4:	fb01 3302 	mla	r3, r1, r2, r3
   b79d8:	e7b8      	b.n	b794c <_ZN12Adafruit_GFX5writeEh+0x74>

000b79da <_ZN12Adafruit_GFX11setTextSizeEh>:
    textsize_x = (s_x > 0) ? s_x : 1;
   b79da:	2901      	cmp	r1, #1
   b79dc:	bf38      	it	cc
   b79de:	2101      	movcc	r1, #1
   b79e0:	7601      	strb	r1, [r0, #24]
    textsize_y = (s_y > 0) ? s_y : 1;
   b79e2:	7641      	strb	r1, [r0, #25]
}
   b79e4:	4770      	bx	lr

000b79e6 <_ZN7MFRC522C1Ehh>:

/**
 * Constructor.
 * Prepares the output pins.
 */
MFRC522::MFRC522(	byte chipSelectPin,		///< Arduino pin connected to MFRC522's SPI slave select input (Pin 24, NSS, active low)
   b79e6:	b538      	push	{r3, r4, r5, lr}
   b79e8:	4604      	mov	r4, r0
   b79ea:	4608      	mov	r0, r1
					byte resetPowerDownPin	///< Arduino pin connected to MFRC522's reset and power down input (Pin 6, NRSTPD, active low)
				) {
	// Set the chipSelectPin as digital output, do not select the slave yet
	_chipSelectPin = chipSelectPin;
   b79ec:	7321      	strb	r1, [r4, #12]
	pinMode(_chipSelectPin, OUTPUT);
   b79ee:	2101      	movs	r1, #1
MFRC522::MFRC522(	byte chipSelectPin,		///< Arduino pin connected to MFRC522's SPI slave select input (Pin 24, NSS, active low)
   b79f0:	4615      	mov	r5, r2
	pinMode(_chipSelectPin, OUTPUT);
   b79f2:	f002 fbb3 	bl	ba15c <pinMode>
	digitalWrite(_chipSelectPin, HIGH);
   b79f6:	7b20      	ldrb	r0, [r4, #12]
   b79f8:	2101      	movs	r1, #1
   b79fa:	f002 fbc0 	bl	ba17e <digitalWrite>
	
	// Set the resetPowerDownPin as digital output, do not reset or power down.
	_resetPowerDownPin = resetPowerDownPin;
	pinMode(_resetPowerDownPin, OUTPUT);
   b79fe:	4628      	mov	r0, r5
	_resetPowerDownPin = resetPowerDownPin;
   b7a00:	7365      	strb	r5, [r4, #13]
	pinMode(_resetPowerDownPin, OUTPUT);
   b7a02:	2101      	movs	r1, #1
   b7a04:	f002 fbaa 	bl	ba15c <pinMode>
	digitalWrite(_resetPowerDownPin, LOW);
   b7a08:	7b60      	ldrb	r0, [r4, #13]
   b7a0a:	2100      	movs	r1, #0
   b7a0c:	f002 fbb7 	bl	ba17e <digitalWrite>
	
	// Set SPI bus to work with MFRC522 chip.
	//setSPIConfig();
} // End constructor
   b7a10:	4620      	mov	r0, r4
   b7a12:	bd38      	pop	{r3, r4, r5, pc}

000b7a14 <_ZN7MFRC52217GetStatusCodeNameEh>:
 * Returns a string pointer to a status code name.
 * 
 */
const char *MFRC522::GetStatusCodeName(byte code	///< One of the StatusCode enums.
										) {
	switch (code) {
   b7a14:	3901      	subs	r1, #1
   b7a16:	b2c9      	uxtb	r1, r1
   b7a18:	2908      	cmp	r1, #8
   b7a1a:	bf9a      	itte	ls
   b7a1c:	4b02      	ldrls	r3, [pc, #8]	; (b7a28 <_ZN7MFRC52217GetStatusCodeNameEh+0x14>)
   b7a1e:	f853 0021 	ldrls.w	r0, [r3, r1, lsl #2]
										) {
   b7a22:	4802      	ldrhi	r0, [pc, #8]	; (b7a2c <_ZN7MFRC52217GetStatusCodeNameEh+0x18>)
		case STATUS_MIFARE_NACK:	return "A MIFARE PICC responded with NAK."; break;
		default:
			return "Unknown error";
			break;
	}
} // End GetStatusCodeName()
   b7a24:	4770      	bx	lr
   b7a26:	bf00      	nop
   b7a28:	000bc32c 	.word	0x000bc32c
   b7a2c:	000bc234 	.word	0x000bc234

000b7a30 <_ZN8particle8SpiProxyIL19hal_spi_interface_t0EE8instanceEv>:
    static SPIClass& instance() {
   b7a30:	b513      	push	{r0, r1, r4, lr}
        static SPIClass instance(Interface);
   b7a32:	4c0b      	ldr	r4, [pc, #44]	; (b7a60 <_ZN8particle8SpiProxyIL19hal_spi_interface_t0EE8instanceEv+0x30>)
   b7a34:	7821      	ldrb	r1, [r4, #0]
   b7a36:	f3bf 8f5b 	dmb	ish
   b7a3a:	f011 0101 	ands.w	r1, r1, #1
   b7a3e:	d10b      	bne.n	b7a58 <_ZN8particle8SpiProxyIL19hal_spi_interface_t0EE8instanceEv+0x28>
   b7a40:	4620      	mov	r0, r4
   b7a42:	9101      	str	r1, [sp, #4]
   b7a44:	f7fc fb38 	bl	b40b8 <__cxa_guard_acquire>
   b7a48:	9901      	ldr	r1, [sp, #4]
   b7a4a:	b128      	cbz	r0, b7a58 <_ZN8particle8SpiProxyIL19hal_spi_interface_t0EE8instanceEv+0x28>
   b7a4c:	4805      	ldr	r0, [pc, #20]	; (b7a64 <_ZN8particle8SpiProxyIL19hal_spi_interface_t0EE8instanceEv+0x34>)
   b7a4e:	f001 fd37 	bl	b94c0 <_ZN8SPIClassC1E19hal_spi_interface_t>
   b7a52:	4620      	mov	r0, r4
   b7a54:	f7fc fb35 	bl	b40c2 <__cxa_guard_release>
    }
   b7a58:	4802      	ldr	r0, [pc, #8]	; (b7a64 <_ZN8particle8SpiProxyIL19hal_spi_interface_t0EE8instanceEv+0x34>)
   b7a5a:	b002      	add	sp, #8
   b7a5c:	bd10      	pop	{r4, pc}
   b7a5e:	bf00      	nop
   b7a60:	2003cd14 	.word	0x2003cd14
   b7a64:	2003cd18 	.word	0x2003cd18

000b7a68 <_ZN8particle8SpiProxyIL19hal_spi_interface_t0EE8transferEh.constprop.0>:
        return instance().setClockSpeed(value, scale);
    }
    static void computeClockDivider(unsigned reference, unsigned targetSpeed, uint8_t& divider, unsigned& clock) {
        instance().computeClockDivider(reference, targetSpeed, divider, clock);
    }
    byte transfer(byte data) {
   b7a68:	b507      	push	{r0, r1, r2, lr}
   b7a6a:	9001      	str	r0, [sp, #4]
        return instance().transfer(data);
   b7a6c:	f7ff ffe0 	bl	b7a30 <_ZN8particle8SpiProxyIL19hal_spi_interface_t0EE8instanceEv>
   b7a70:	9901      	ldr	r1, [sp, #4]
    }
   b7a72:	b003      	add	sp, #12
   b7a74:	f85d eb04 	ldr.w	lr, [sp], #4
        return instance().transfer(data);
   b7a78:	f001 bdc8 	b.w	b960c <_ZN8SPIClass8transferEh>

000b7a7c <_ZN7MFRC52216PCD_ReadRegisterEhhPhh>:
								) {
   b7a7c:	e92d 4ff7 	stmdb	sp!, {r0, r1, r2, r4, r5, r6, r7, r8, r9, sl, fp, lr}
   b7a80:	4607      	mov	r7, r0
   b7a82:	f89d 8030 	ldrb.w	r8, [sp, #48]	; 0x30
   b7a86:	461e      	mov	r6, r3
	if (count == 0) {
   b7a88:	4615      	mov	r5, r2
   b7a8a:	2a00      	cmp	r2, #0
   b7a8c:	d042      	beq.n	b7b14 <_ZN7MFRC52216PCD_ReadRegisterEhhPhh+0x98>
	byte address = 0x80 | (reg & 0x7E);		// MSB == 1 is for reading. LSB is not used in address. Datasheet section 8.1.2.3.
   b7a8e:	f001 017e 	and.w	r1, r1, #126	; 0x7e
	digitalWrite(_chipSelectPin, LOW);		// Select slave
   b7a92:	7b00      	ldrb	r0, [r0, #12]
	byte address = 0x80 | (reg & 0x7E);		// MSB == 1 is for reading. LSB is not used in address. Datasheet section 8.1.2.3.
   b7a94:	f041 0980 	orr.w	r9, r1, #128	; 0x80
	digitalWrite(_chipSelectPin, LOW);		// Select slave
   b7a98:	2100      	movs	r1, #0
   b7a9a:	f002 fb70 	bl	ba17e <digitalWrite>
	SPI.transfer(address);					// Tell MFRC522 which address we want to read
   b7a9e:	4648      	mov	r0, r9
   b7aa0:	f7ff ffe2 	bl	b7a68 <_ZN8particle8SpiProxyIL19hal_spi_interface_t0EE8transferEh.constprop.0>
	count--;								// One read is performed outside of the loop
   b7aa4:	3d01      	subs	r5, #1
   b7aa6:	b2ed      	uxtb	r5, r5
	SPI.transfer(address);					// Tell MFRC522 which address we want to read
   b7aa8:	f04f 0b00 	mov.w	fp, #0
				mask |= (1 << i);
   b7aac:	f04f 0a01 	mov.w	sl, #1
	while (index < count) {
   b7ab0:	fa5f f48b 	uxtb.w	r4, fp
   b7ab4:	42a5      	cmp	r5, r4
   b7ab6:	d922      	bls.n	b7afe <_ZN7MFRC52216PCD_ReadRegisterEhhPhh+0x82>
		if (index == 0 && rxAlign) { // Only update bit positions rxAlign..7 in values[0]
   b7ab8:	b9dc      	cbnz	r4, b7af2 <_ZN7MFRC52216PCD_ReadRegisterEhhPhh+0x76>
   b7aba:	f1b8 0f00 	cmp.w	r8, #0
   b7abe:	d018      	beq.n	b7af2 <_ZN7MFRC52216PCD_ReadRegisterEhhPhh+0x76>
   b7ac0:	4642      	mov	r2, r8
			for (byte i = rxAlign; i <= 7; i++) {
   b7ac2:	b2d3      	uxtb	r3, r2
   b7ac4:	2b07      	cmp	r3, #7
				mask |= (1 << i);
   b7ac6:	b261      	sxtb	r1, r4
			for (byte i = rxAlign; i <= 7; i++) {
   b7ac8:	d805      	bhi.n	b7ad6 <_ZN7MFRC52216PCD_ReadRegisterEhhPhh+0x5a>
				mask |= (1 << i);
   b7aca:	fa0a f402 	lsl.w	r4, sl, r2
   b7ace:	430c      	orrs	r4, r1
   b7ad0:	b2e4      	uxtb	r4, r4
			for (byte i = rxAlign; i <= 7; i++) {
   b7ad2:	3201      	adds	r2, #1
   b7ad4:	e7f5      	b.n	b7ac2 <_ZN7MFRC52216PCD_ReadRegisterEhhPhh+0x46>
			byte value = SPI.transfer(address);	
   b7ad6:	4648      	mov	r0, r9
   b7ad8:	9101      	str	r1, [sp, #4]
   b7ada:	f7ff ffc5 	bl	b7a68 <_ZN8particle8SpiProxyIL19hal_spi_interface_t0EE8transferEh.constprop.0>
			values[0] = (values[index] & ~mask) | (value & mask);
   b7ade:	7833      	ldrb	r3, [r6, #0]
   b7ae0:	9901      	ldr	r1, [sp, #4]
   b7ae2:	4004      	ands	r4, r0
   b7ae4:	ea23 0301 	bic.w	r3, r3, r1
   b7ae8:	431c      	orrs	r4, r3
   b7aea:	7034      	strb	r4, [r6, #0]
		index++;
   b7aec:	f10b 0b01 	add.w	fp, fp, #1
	while (index < count) {
   b7af0:	e7de      	b.n	b7ab0 <_ZN7MFRC52216PCD_ReadRegisterEhhPhh+0x34>
			values[index] = SPI.transfer(address);	// Read value and tell that we want to read the same address again.
   b7af2:	4648      	mov	r0, r9
   b7af4:	f7ff ffb8 	bl	b7a68 <_ZN8particle8SpiProxyIL19hal_spi_interface_t0EE8transferEh.constprop.0>
   b7af8:	f806 000b 	strb.w	r0, [r6, fp]
   b7afc:	e7f6      	b.n	b7aec <_ZN7MFRC52216PCD_ReadRegisterEhhPhh+0x70>
	values[index] = SPI.transfer(0);			// Read the final byte. Send 0 to stop reading.
   b7afe:	2000      	movs	r0, #0
   b7b00:	f7ff ffb2 	bl	b7a68 <_ZN8particle8SpiProxyIL19hal_spi_interface_t0EE8transferEh.constprop.0>
   b7b04:	5570      	strb	r0, [r6, r5]
	digitalWrite(_chipSelectPin, HIGH);			// Release slave again
   b7b06:	7b38      	ldrb	r0, [r7, #12]
   b7b08:	2101      	movs	r1, #1
} // End PCD_ReadRegister()
   b7b0a:	b003      	add	sp, #12
   b7b0c:	e8bd 4ff0 	ldmia.w	sp!, {r4, r5, r6, r7, r8, r9, sl, fp, lr}
	digitalWrite(_chipSelectPin, HIGH);			// Release slave again
   b7b10:	f002 bb35 	b.w	ba17e <digitalWrite>
} // End PCD_ReadRegister()
   b7b14:	b003      	add	sp, #12
   b7b16:	e8bd 8ff0 	ldmia.w	sp!, {r4, r5, r6, r7, r8, r9, sl, fp, pc}

000b7b1a <_ZN7MFRC52216PCD_ReadRegisterEh>:
								) {
   b7b1a:	b538      	push	{r3, r4, r5, lr}
   b7b1c:	460c      	mov	r4, r1
   b7b1e:	4605      	mov	r5, r0
	digitalWrite(_chipSelectPin, LOW);			// Select slave
   b7b20:	2100      	movs	r1, #0
   b7b22:	7b00      	ldrb	r0, [r0, #12]
	SPI.transfer(0x80 | (reg & 0x7E));			// MSB == 1 is for reading. LSB is not used in address. Datasheet section 8.1.2.3.
   b7b24:	f004 047e 	and.w	r4, r4, #126	; 0x7e
	digitalWrite(_chipSelectPin, LOW);			// Select slave
   b7b28:	f002 fb29 	bl	ba17e <digitalWrite>
	SPI.transfer(0x80 | (reg & 0x7E));			// MSB == 1 is for reading. LSB is not used in address. Datasheet section 8.1.2.3.
   b7b2c:	f044 0080 	orr.w	r0, r4, #128	; 0x80
   b7b30:	f7ff ff9a 	bl	b7a68 <_ZN8particle8SpiProxyIL19hal_spi_interface_t0EE8transferEh.constprop.0>
	value = SPI.transfer(0);					// Read the value back. Send 0 to stop reading.
   b7b34:	2000      	movs	r0, #0
   b7b36:	f7ff ff97 	bl	b7a68 <_ZN8particle8SpiProxyIL19hal_spi_interface_t0EE8transferEh.constprop.0>
	digitalWrite(_chipSelectPin, HIGH);			// Release slave again
   b7b3a:	2101      	movs	r1, #1
	value = SPI.transfer(0);					// Read the value back. Send 0 to stop reading.
   b7b3c:	4604      	mov	r4, r0
	digitalWrite(_chipSelectPin, HIGH);			// Release slave again
   b7b3e:	7b28      	ldrb	r0, [r5, #12]
   b7b40:	f002 fb1d 	bl	ba17e <digitalWrite>
} // End PCD_ReadRegister()
   b7b44:	4620      	mov	r0, r4
   b7b46:	bd38      	pop	{r3, r4, r5, pc}

000b7b48 <_ZN7MFRC52217PCD_WriteRegisterEhhPh>:
								) {
   b7b48:	b5f8      	push	{r3, r4, r5, r6, r7, lr}
   b7b4a:	460f      	mov	r7, r1
   b7b4c:	4606      	mov	r6, r0
	digitalWrite(_chipSelectPin, LOW);		// Select slave
   b7b4e:	2100      	movs	r1, #0
   b7b50:	7b00      	ldrb	r0, [r0, #12]
								) {
   b7b52:	4615      	mov	r5, r2
   b7b54:	461c      	mov	r4, r3
	digitalWrite(_chipSelectPin, LOW);		// Select slave
   b7b56:	f002 fb12 	bl	ba17e <digitalWrite>
	SPI.transfer(reg & 0x7E);				// MSB == 0 is for writing. LSB is not used in address. Datasheet section 8.1.2.3.
   b7b5a:	f007 007e 	and.w	r0, r7, #126	; 0x7e
   b7b5e:	f7ff ff83 	bl	b7a68 <_ZN8particle8SpiProxyIL19hal_spi_interface_t0EE8transferEh.constprop.0>
	for (byte index = 0; index < count; index++) {
   b7b62:	4425      	add	r5, r4
   b7b64:	42ac      	cmp	r4, r5
   b7b66:	d004      	beq.n	b7b72 <_ZN7MFRC52217PCD_WriteRegisterEhhPh+0x2a>
		SPI.transfer(values[index]);
   b7b68:	f814 0b01 	ldrb.w	r0, [r4], #1
   b7b6c:	f7ff ff7c 	bl	b7a68 <_ZN8particle8SpiProxyIL19hal_spi_interface_t0EE8transferEh.constprop.0>
	for (byte index = 0; index < count; index++) {
   b7b70:	e7f8      	b.n	b7b64 <_ZN7MFRC52217PCD_WriteRegisterEhhPh+0x1c>
	digitalWrite(_chipSelectPin, HIGH);		// Release slave again
   b7b72:	7b30      	ldrb	r0, [r6, #12]
   b7b74:	2101      	movs	r1, #1
} // End PCD_WriteRegister()
   b7b76:	e8bd 40f8 	ldmia.w	sp!, {r3, r4, r5, r6, r7, lr}
	digitalWrite(_chipSelectPin, HIGH);		// Release slave again
   b7b7a:	f002 bb00 	b.w	ba17e <digitalWrite>

000b7b7e <_ZN7MFRC52217PCD_WriteRegisterEhh>:
								) {
   b7b7e:	b570      	push	{r4, r5, r6, lr}
   b7b80:	4604      	mov	r4, r0
   b7b82:	460e      	mov	r6, r1
	digitalWrite(_chipSelectPin, LOW);		// Select slave
   b7b84:	7b00      	ldrb	r0, [r0, #12]
   b7b86:	2100      	movs	r1, #0
								) {
   b7b88:	4615      	mov	r5, r2
	digitalWrite(_chipSelectPin, LOW);		// Select slave
   b7b8a:	f002 faf8 	bl	ba17e <digitalWrite>
	SPI.transfer(reg & 0x7E);					// MSB == 0 is for writing. LSB is not used in address. Datasheet section 8.1.2.3.
   b7b8e:	f006 007e 	and.w	r0, r6, #126	; 0x7e
   b7b92:	f7ff ff69 	bl	b7a68 <_ZN8particle8SpiProxyIL19hal_spi_interface_t0EE8transferEh.constprop.0>
	SPI.transfer(value);
   b7b96:	4628      	mov	r0, r5
   b7b98:	f7ff ff66 	bl	b7a68 <_ZN8particle8SpiProxyIL19hal_spi_interface_t0EE8transferEh.constprop.0>
	digitalWrite(_chipSelectPin, HIGH);		// Release slave again
   b7b9c:	7b20      	ldrb	r0, [r4, #12]
   b7b9e:	2101      	movs	r1, #1
} // End PCD_WriteRegister()
   b7ba0:	e8bd 4070 	ldmia.w	sp!, {r4, r5, r6, lr}
	digitalWrite(_chipSelectPin, HIGH);		// Release slave again
   b7ba4:	f002 baeb 	b.w	ba17e <digitalWrite>

000b7ba8 <_ZN7MFRC52222PCD_SetRegisterBitMaskEhh>:
									) { 
   b7ba8:	b570      	push	{r4, r5, r6, lr}
   b7baa:	4616      	mov	r6, r2
   b7bac:	4604      	mov	r4, r0
   b7bae:	460d      	mov	r5, r1
	tmp = PCD_ReadRegister(reg);
   b7bb0:	f7ff ffb3 	bl	b7b1a <_ZN7MFRC52216PCD_ReadRegisterEh>
	PCD_WriteRegister(reg, tmp | mask);			// set bit mask
   b7bb4:	4330      	orrs	r0, r6
   b7bb6:	b2c2      	uxtb	r2, r0
   b7bb8:	4629      	mov	r1, r5
   b7bba:	4620      	mov	r0, r4
} // End PCD_SetRegisterBitMask()
   b7bbc:	e8bd 4070 	ldmia.w	sp!, {r4, r5, r6, lr}
	PCD_WriteRegister(reg, tmp | mask);			// set bit mask
   b7bc0:	f7ff bfdd 	b.w	b7b7e <_ZN7MFRC52217PCD_WriteRegisterEhh>

000b7bc4 <_ZN7MFRC52224PCD_ClearRegisterBitMaskEhh>:
									  ) {
   b7bc4:	b570      	push	{r4, r5, r6, lr}
   b7bc6:	4616      	mov	r6, r2
   b7bc8:	4604      	mov	r4, r0
   b7bca:	460d      	mov	r5, r1
	tmp = PCD_ReadRegister(reg);
   b7bcc:	f7ff ffa5 	bl	b7b1a <_ZN7MFRC52216PCD_ReadRegisterEh>
	PCD_WriteRegister(reg, tmp & (~mask));		// clear bit mask
   b7bd0:	ea20 0006 	bic.w	r0, r0, r6
   b7bd4:	b2c2      	uxtb	r2, r0
   b7bd6:	4629      	mov	r1, r5
   b7bd8:	4620      	mov	r0, r4
} // End PCD_ClearRegisterBitMask()
   b7bda:	e8bd 4070 	ldmia.w	sp!, {r4, r5, r6, lr}
	PCD_WriteRegister(reg, tmp & (~mask));		// clear bit mask
   b7bde:	f7ff bfce 	b.w	b7b7e <_ZN7MFRC52217PCD_WriteRegisterEhh>

000b7be2 <_ZN7MFRC52215PCD_StopCrypto1Ev>:
	PCD_ClearRegisterBitMask(Status2Reg, 0x08); // Status2Reg[7..0] bits are: TempSensClear I2CForceHS reserved reserved   MFCrypto1On ModemState[2:0]
   b7be2:	2208      	movs	r2, #8
   b7be4:	2110      	movs	r1, #16
   b7be6:	f7ff bfed 	b.w	b7bc4 <_ZN7MFRC52224PCD_ClearRegisterBitMaskEhh>

000b7bea <_ZN7MFRC52216PCD_CalculateCRCEPhhS0_>:
					 ) {
   b7bea:	b5f8      	push	{r3, r4, r5, r6, r7, lr}
   b7bec:	4604      	mov	r4, r0
   b7bee:	4615      	mov	r5, r2
   b7bf0:	460f      	mov	r7, r1
	PCD_WriteRegister(CommandReg, PCD_Idle);			// Stop any active command.
   b7bf2:	2200      	movs	r2, #0
   b7bf4:	2102      	movs	r1, #2
					 ) {
   b7bf6:	461e      	mov	r6, r3
	PCD_WriteRegister(CommandReg, PCD_Idle);			// Stop any active command.
   b7bf8:	f7ff ffc1 	bl	b7b7e <_ZN7MFRC52217PCD_WriteRegisterEhh>
	PCD_WriteRegister(DivIrqReg, 0x04);					// Clear the CRCIRq interrupt request bit
   b7bfc:	2204      	movs	r2, #4
   b7bfe:	210a      	movs	r1, #10
   b7c00:	4620      	mov	r0, r4
   b7c02:	f7ff ffbc 	bl	b7b7e <_ZN7MFRC52217PCD_WriteRegisterEhh>
	PCD_SetRegisterBitMask(FIFOLevelReg, 0x80);		// FlushBuffer = 1, FIFO initialization
   b7c06:	2280      	movs	r2, #128	; 0x80
   b7c08:	2114      	movs	r1, #20
   b7c0a:	4620      	mov	r0, r4
   b7c0c:	f7ff ffcc 	bl	b7ba8 <_ZN7MFRC52222PCD_SetRegisterBitMaskEhh>
	PCD_WriteRegister(FIFODataReg, length, data);		// Write data to the FIFO
   b7c10:	462a      	mov	r2, r5
   b7c12:	463b      	mov	r3, r7
   b7c14:	2112      	movs	r1, #18
   b7c16:	4620      	mov	r0, r4
   b7c18:	f7ff ff96 	bl	b7b48 <_ZN7MFRC52217PCD_WriteRegisterEhhPh>
	PCD_WriteRegister(CommandReg, PCD_CalcCRC);		// Start the calculation
   b7c1c:	2203      	movs	r2, #3
   b7c1e:	2102      	movs	r1, #2
   b7c20:	4620      	mov	r0, r4
   b7c22:	f7ff ffac 	bl	b7b7e <_ZN7MFRC52217PCD_WriteRegisterEhh>
   b7c26:	f241 3588 	movw	r5, #5000	; 0x1388
		n = PCD_ReadRegister(DivIrqReg);	// DivIrqReg[7..0] bits are: Set2 reserved reserved MfinActIRq   reserved CRCIRq reserved reserved
   b7c2a:	210a      	movs	r1, #10
   b7c2c:	4620      	mov	r0, r4
   b7c2e:	f7ff ff74 	bl	b7b1a <_ZN7MFRC52216PCD_ReadRegisterEh>
		if (n & 0x04) {						// CRCIRq bit set - calculation done
   b7c32:	0743      	lsls	r3, r0, #29
   b7c34:	d405      	bmi.n	b7c42 <_ZN7MFRC52216PCD_CalculateCRCEPhhS0_+0x58>
		if (--i == 0) {						// The emergency break. We will eventually terminate on this one after 89ms. Communication with the MFRC522 might be down.
   b7c36:	3d01      	subs	r5, #1
   b7c38:	b2ad      	uxth	r5, r5
   b7c3a:	2d00      	cmp	r5, #0
   b7c3c:	d1f5      	bne.n	b7c2a <_ZN7MFRC52216PCD_CalculateCRCEPhhS0_+0x40>
			return STATUS_TIMEOUT;
   b7c3e:	2004      	movs	r0, #4
   b7c40:	e00f      	b.n	b7c62 <_ZN7MFRC52216PCD_CalculateCRCEPhhS0_+0x78>
	PCD_WriteRegister(CommandReg, PCD_Idle);			// Stop calculating CRC for new content in the FIFO.
   b7c42:	2200      	movs	r2, #0
   b7c44:	2102      	movs	r1, #2
   b7c46:	4620      	mov	r0, r4
   b7c48:	f7ff ff99 	bl	b7b7e <_ZN7MFRC52217PCD_WriteRegisterEhh>
	result[0] = PCD_ReadRegister(CRCResultRegL);
   b7c4c:	2144      	movs	r1, #68	; 0x44
   b7c4e:	4620      	mov	r0, r4
   b7c50:	f7ff ff63 	bl	b7b1a <_ZN7MFRC52216PCD_ReadRegisterEh>
	result[1] = PCD_ReadRegister(CRCResultRegH);
   b7c54:	2142      	movs	r1, #66	; 0x42
	result[0] = PCD_ReadRegister(CRCResultRegL);
   b7c56:	7030      	strb	r0, [r6, #0]
	result[1] = PCD_ReadRegister(CRCResultRegH);
   b7c58:	4620      	mov	r0, r4
   b7c5a:	f7ff ff5e 	bl	b7b1a <_ZN7MFRC52216PCD_ReadRegisterEh>
   b7c5e:	7070      	strb	r0, [r6, #1]
	return STATUS_OK;
   b7c60:	2001      	movs	r0, #1
} // End PCD_CalculateCRC()
   b7c62:	bdf8      	pop	{r3, r4, r5, r6, r7, pc}

000b7c64 <_ZN7MFRC5229PCD_ResetEv>:
void MFRC522::PCD_Reset() {
   b7c64:	b510      	push	{r4, lr}
	PCD_WriteRegister(CommandReg, PCD_SoftReset);	// Issue the SoftReset command.
   b7c66:	220f      	movs	r2, #15
   b7c68:	2102      	movs	r1, #2
void MFRC522::PCD_Reset() {
   b7c6a:	4604      	mov	r4, r0
	PCD_WriteRegister(CommandReg, PCD_SoftReset);	// Issue the SoftReset command.
   b7c6c:	f7ff ff87 	bl	b7b7e <_ZN7MFRC52217PCD_WriteRegisterEhh>
	delay(50);
   b7c70:	2032      	movs	r0, #50	; 0x32
   b7c72:	f001 feb3 	bl	b99dc <delay>
	while (PCD_ReadRegister(CommandReg) & (1<<4)) {
   b7c76:	2102      	movs	r1, #2
   b7c78:	4620      	mov	r0, r4
   b7c7a:	f7ff ff4e 	bl	b7b1a <_ZN7MFRC52216PCD_ReadRegisterEh>
   b7c7e:	06c3      	lsls	r3, r0, #27
   b7c80:	d4f9      	bmi.n	b7c76 <_ZN7MFRC5229PCD_ResetEv+0x12>
} // End PCD_Reset()
   b7c82:	bd10      	pop	{r4, pc}

000b7c84 <_ZN7MFRC52213PCD_AntennaOnEv>:
void MFRC522::PCD_AntennaOn() {
   b7c84:	b510      	push	{r4, lr}
	byte value = PCD_ReadRegister(TxControlReg);
   b7c86:	2128      	movs	r1, #40	; 0x28
void MFRC522::PCD_AntennaOn() {
   b7c88:	4604      	mov	r4, r0
	byte value = PCD_ReadRegister(TxControlReg);
   b7c8a:	f7ff ff46 	bl	b7b1a <_ZN7MFRC52216PCD_ReadRegisterEh>
	if ((value & 0x03) != 0x03) {
   b7c8e:	f000 0303 	and.w	r3, r0, #3
   b7c92:	2b03      	cmp	r3, #3
   b7c94:	d008      	beq.n	b7ca8 <_ZN7MFRC52213PCD_AntennaOnEv+0x24>
		PCD_WriteRegister(TxControlReg, value | 0x03);
   b7c96:	f040 0203 	orr.w	r2, r0, #3
   b7c9a:	b2d2      	uxtb	r2, r2
   b7c9c:	4620      	mov	r0, r4
   b7c9e:	2128      	movs	r1, #40	; 0x28
} // End PCD_AntennaOn()
   b7ca0:	e8bd 4010 	ldmia.w	sp!, {r4, lr}
		PCD_WriteRegister(TxControlReg, value | 0x03);
   b7ca4:	f7ff bf6b 	b.w	b7b7e <_ZN7MFRC52217PCD_WriteRegisterEhh>
} // End PCD_AntennaOn()
   b7ca8:	bd10      	pop	{r4, pc}

000b7caa <_ZN7MFRC5228PCD_InitEv>:
void MFRC522::PCD_Init() {
   b7caa:	b510      	push	{r4, lr}
   b7cac:	4604      	mov	r4, r0
	if (digitalRead(_resetPowerDownPin) == LOW) { //The MFRC522 chip is in power down mode.
   b7cae:	7b40      	ldrb	r0, [r0, #13]
   b7cb0:	f002 fa7e 	bl	ba1b0 <digitalRead>
   b7cb4:	bb48      	cbnz	r0, b7d0a <_ZN7MFRC5228PCD_InitEv+0x60>
		digitalWrite(_resetPowerDownPin, HIGH);	// Exit power down mode. This triggers a hard reset.
   b7cb6:	7b60      	ldrb	r0, [r4, #13]
   b7cb8:	2101      	movs	r1, #1
   b7cba:	f002 fa60 	bl	ba17e <digitalWrite>
		delay(50);
   b7cbe:	2032      	movs	r0, #50	; 0x32
   b7cc0:	f001 fe8c 	bl	b99dc <delay>
    PCD_WriteRegister(TModeReg, 0x80);			// TAuto=1; timer starts automatically at the end of the transmission in all communication modes at all speeds
   b7cc4:	4620      	mov	r0, r4
   b7cc6:	2280      	movs	r2, #128	; 0x80
   b7cc8:	2154      	movs	r1, #84	; 0x54
   b7cca:	f7ff ff58 	bl	b7b7e <_ZN7MFRC52217PCD_WriteRegisterEhh>
    PCD_WriteRegister(TPrescalerReg, 0xA9);	// TPreScaler = TModeReg[3..0]:TPrescalerReg, ie 0x0A9 = 169 => f_timer=40kHz, ie a timer period of 25s.
   b7cce:	4620      	mov	r0, r4
   b7cd0:	22a9      	movs	r2, #169	; 0xa9
   b7cd2:	2156      	movs	r1, #86	; 0x56
   b7cd4:	f7ff ff53 	bl	b7b7e <_ZN7MFRC52217PCD_WriteRegisterEhh>
    PCD_WriteRegister(TReloadRegH, 0x03);		// Reload timer with 0x3E8 = 1000, ie 25ms before timeout.
   b7cd8:	4620      	mov	r0, r4
   b7cda:	2203      	movs	r2, #3
   b7cdc:	2158      	movs	r1, #88	; 0x58
   b7cde:	f7ff ff4e 	bl	b7b7e <_ZN7MFRC52217PCD_WriteRegisterEhh>
    PCD_WriteRegister(TReloadRegL, 0xE8);
   b7ce2:	4620      	mov	r0, r4
   b7ce4:	22e8      	movs	r2, #232	; 0xe8
   b7ce6:	215a      	movs	r1, #90	; 0x5a
   b7ce8:	f7ff ff49 	bl	b7b7e <_ZN7MFRC52217PCD_WriteRegisterEhh>
	PCD_WriteRegister(TxASKReg, 0x40);		// Default 0x00. Force a 100 % ASK modulation independent of the ModGsPReg register setting
   b7cec:	4620      	mov	r0, r4
   b7cee:	2240      	movs	r2, #64	; 0x40
   b7cf0:	212a      	movs	r1, #42	; 0x2a
   b7cf2:	f7ff ff44 	bl	b7b7e <_ZN7MFRC52217PCD_WriteRegisterEhh>
	PCD_WriteRegister(ModeReg, 0x3D);		// Default 0x3F. Set the preset value for the CRC coprocessor for the CalcCRC command to 0x6363 (ISO 14443-3 part 6.2.4)
   b7cf6:	4620      	mov	r0, r4
   b7cf8:	223d      	movs	r2, #61	; 0x3d
   b7cfa:	2122      	movs	r1, #34	; 0x22
   b7cfc:	f7ff ff3f 	bl	b7b7e <_ZN7MFRC52217PCD_WriteRegisterEhh>
	PCD_AntennaOn();						// Enable the antenna driver pins TX1 and TX2 (they were disabled by the reset)
   b7d00:	4620      	mov	r0, r4
} // End PCD_Init()
   b7d02:	e8bd 4010 	ldmia.w	sp!, {r4, lr}
	PCD_AntennaOn();						// Enable the antenna driver pins TX1 and TX2 (they were disabled by the reset)
   b7d06:	f7ff bfbd 	b.w	b7c84 <_ZN7MFRC52213PCD_AntennaOnEv>
		PCD_Reset();
   b7d0a:	4620      	mov	r0, r4
   b7d0c:	f7ff ffaa 	bl	b7c64 <_ZN7MFRC5229PCD_ResetEv>
   b7d10:	e7d8      	b.n	b7cc4 <_ZN7MFRC5228PCD_InitEv+0x1a>

000b7d12 <_ZN7MFRC52223PCD_CommunicateWithPICCEhhPhhS0_S0_S0_hb>:
									 ) {
   b7d12:	e92d 4ff0 	stmdb	sp!, {r4, r5, r6, r7, r8, r9, sl, fp, lr}
   b7d16:	b089      	sub	sp, #36	; 0x24
   b7d18:	e9dd 5613 	ldrd	r5, r6, [sp, #76]	; 0x4c
   b7d1c:	f8dd 9054 	ldr.w	r9, [sp, #84]	; 0x54
   b7d20:	9203      	str	r2, [sp, #12]
   b7d22:	f89d 205c 	ldrb.w	r2, [sp, #92]	; 0x5c
   b7d26:	f89d b058 	ldrb.w	fp, [sp, #88]	; 0x58
   b7d2a:	9204      	str	r2, [sp, #16]
   b7d2c:	4604      	mov	r4, r0
   b7d2e:	468a      	mov	sl, r1
   b7d30:	2700      	movs	r7, #0
	byte txLastBits = validBits ? *validBits : 0;
   b7d32:	f1b9 0f00 	cmp.w	r9, #0
   b7d36:	d03e      	beq.n	b7db6 <_ZN7MFRC52223PCD_CommunicateWithPICCEhhPhhS0_S0_S0_hb+0xa4>
   b7d38:	f899 8000 	ldrb.w	r8, [r9]
   b7d3c:	9305      	str	r3, [sp, #20]
	PCD_WriteRegister(CommandReg, PCD_Idle);			// Stop any active command.
   b7d3e:	2200      	movs	r2, #0
   b7d40:	2102      	movs	r1, #2
   b7d42:	4620      	mov	r0, r4
   b7d44:	f7ff ff1b 	bl	b7b7e <_ZN7MFRC52217PCD_WriteRegisterEhh>
	PCD_WriteRegister(ComIrqReg, 0x7F);					// Clear all seven interrupt request bits
   b7d48:	227f      	movs	r2, #127	; 0x7f
   b7d4a:	2108      	movs	r1, #8
   b7d4c:	4620      	mov	r0, r4
   b7d4e:	f7ff ff16 	bl	b7b7e <_ZN7MFRC52217PCD_WriteRegisterEhh>
	byte bitFraming	= (rxAlign << 4) + txLastBits;		// RxAlign = BitFramingReg[6..4]. TxLastBits = BitFramingReg[2..0]
   b7d52:	eb08 180b 	add.w	r8, r8, fp, lsl #4
	PCD_SetRegisterBitMask(FIFOLevelReg, 0x80);		// FlushBuffer = 1, FIFO initialization
   b7d56:	2280      	movs	r2, #128	; 0x80
   b7d58:	2114      	movs	r1, #20
   b7d5a:	4620      	mov	r0, r4
   b7d5c:	f7ff ff24 	bl	b7ba8 <_ZN7MFRC52222PCD_SetRegisterBitMaskEhh>
	byte bitFraming	= (rxAlign << 4) + txLastBits;		// RxAlign = BitFramingReg[6..4]. TxLastBits = BitFramingReg[2..0]
   b7d60:	fa5f f888 	uxtb.w	r8, r8
	PCD_WriteRegister(FIFODataReg, sendLen, sendData);	// Write sendData to the FIFO
   b7d64:	9b05      	ldr	r3, [sp, #20]
   b7d66:	f89d 2048 	ldrb.w	r2, [sp, #72]	; 0x48
   b7d6a:	2112      	movs	r1, #18
   b7d6c:	4620      	mov	r0, r4
   b7d6e:	f7ff feeb 	bl	b7b48 <_ZN7MFRC52217PCD_WriteRegisterEhhPh>
	PCD_WriteRegister(BitFramingReg, bitFraming);		// Bit adjustments
   b7d72:	4642      	mov	r2, r8
   b7d74:	211a      	movs	r1, #26
   b7d76:	4620      	mov	r0, r4
   b7d78:	f7ff ff01 	bl	b7b7e <_ZN7MFRC52217PCD_WriteRegisterEhh>
	PCD_WriteRegister(CommandReg, command);			// Execute the command
   b7d7c:	4652      	mov	r2, sl
   b7d7e:	2102      	movs	r1, #2
   b7d80:	4620      	mov	r0, r4
   b7d82:	f7ff fefc 	bl	b7b7e <_ZN7MFRC52217PCD_WriteRegisterEhh>
	if (command == PCD_Transceive) 	{
   b7d86:	f1ba 0f0c 	cmp.w	sl, #12
   b7d8a:	d104      	bne.n	b7d96 <_ZN7MFRC52223PCD_CommunicateWithPICCEhhPhhS0_S0_S0_hb+0x84>
		PCD_SetRegisterBitMask(BitFramingReg, 0x80);	// StartSend=1, transmission of data starts
   b7d8c:	2280      	movs	r2, #128	; 0x80
   b7d8e:	211a      	movs	r1, #26
   b7d90:	4620      	mov	r0, r4
   b7d92:	f7ff ff09 	bl	b7ba8 <_ZN7MFRC52222PCD_SetRegisterBitMaskEhh>
	byte txLastBits = validBits ? *validBits : 0;
   b7d96:	f44f 68fa 	mov.w	r8, #2000	; 0x7d0
		n = PCD_ReadRegister(ComIrqReg);	// ComIrqReg[7..0] bits are: Set1 TxIRq RxIRq IdleIRq   HiAlertIRq LoAlertIRq ErrIRq TimerIRq
   b7d9a:	2108      	movs	r1, #8
   b7d9c:	4620      	mov	r0, r4
   b7d9e:	f7ff febc 	bl	b7b1a <_ZN7MFRC52216PCD_ReadRegisterEh>
		if (n & waitIRq) {					// One of the interrupts that signal success has been set.
   b7da2:	9b03      	ldr	r3, [sp, #12]
   b7da4:	4218      	tst	r0, r3
   b7da6:	d108      	bne.n	b7dba <_ZN7MFRC52223PCD_CommunicateWithPICCEhhPhhS0_S0_S0_hb+0xa8>
		if (n & 0x01) {						// Timer interrupt - nothing received in 25ms
   b7da8:	07c3      	lsls	r3, r0, #31
   b7daa:	d402      	bmi.n	b7db2 <_ZN7MFRC52223PCD_CommunicateWithPICCEhhPhhS0_S0_S0_hb+0xa0>
		if (--i == 0) {						// The emergency break. If all other condions fail we will eventually terminate on this one after 35.7ms. Communication with the MFRC522 might be down.
   b7dac:	f1b8 0801 	subs.w	r8, r8, #1
   b7db0:	d1f3      	bne.n	b7d9a <_ZN7MFRC52223PCD_CommunicateWithPICCEhhPhhS0_S0_S0_hb+0x88>
			return STATUS_TIMEOUT;
   b7db2:	2004      	movs	r0, #4
   b7db4:	e04d      	b.n	b7e52 <_ZN7MFRC52223PCD_CommunicateWithPICCEhhPhhS0_S0_S0_hb+0x140>
	byte txLastBits = validBits ? *validBits : 0;
   b7db6:	46c8      	mov	r8, r9
   b7db8:	e7c0      	b.n	b7d3c <_ZN7MFRC52223PCD_CommunicateWithPICCEhhPhhS0_S0_S0_hb+0x2a>
	byte errorRegValue = PCD_ReadRegister(ErrorReg); // ErrorReg[7..0] bits are: WrErr TempErr reserved BufferOvfl   CollErr CRCErr ParityErr ProtocolErr
   b7dba:	210c      	movs	r1, #12
   b7dbc:	4620      	mov	r0, r4
   b7dbe:	f7ff feac 	bl	b7b1a <_ZN7MFRC52216PCD_ReadRegisterEh>
	if (errorRegValue & 0x13) {	 // BufferOvfl ParityErr ProtocolErr
   b7dc2:	f010 0f13 	tst.w	r0, #19
	byte errorRegValue = PCD_ReadRegister(ErrorReg); // ErrorReg[7..0] bits are: WrErr TempErr reserved BufferOvfl   CollErr CRCErr ParityErr ProtocolErr
   b7dc6:	4680      	mov	r8, r0
	if (errorRegValue & 0x13) {	 // BufferOvfl ParityErr ProtocolErr
   b7dc8:	d146      	bne.n	b7e58 <_ZN7MFRC52223PCD_CommunicateWithPICCEhhPhhS0_S0_S0_hb+0x146>
	if (backData && backLen) {
   b7dca:	b1dd      	cbz	r5, b7e04 <_ZN7MFRC52223PCD_CommunicateWithPICCEhhPhhS0_S0_S0_hb+0xf2>
   b7dcc:	b1d6      	cbz	r6, b7e04 <_ZN7MFRC52223PCD_CommunicateWithPICCEhhPhhS0_S0_S0_hb+0xf2>
		n = PCD_ReadRegister(FIFOLevelReg);						// Number of bytes in the FIFO
   b7dce:	2114      	movs	r1, #20
   b7dd0:	4620      	mov	r0, r4
   b7dd2:	f7ff fea2 	bl	b7b1a <_ZN7MFRC52216PCD_ReadRegisterEh>
		if (n > *backLen) {
   b7dd6:	7833      	ldrb	r3, [r6, #0]
   b7dd8:	4283      	cmp	r3, r0
		n = PCD_ReadRegister(FIFOLevelReg);						// Number of bytes in the FIFO
   b7dda:	4602      	mov	r2, r0
		if (n > *backLen) {
   b7ddc:	d33e      	bcc.n	b7e5c <_ZN7MFRC52223PCD_CommunicateWithPICCEhhPhhS0_S0_S0_hb+0x14a>
		*backLen = n;												// Number of bytes returned
   b7dde:	7030      	strb	r0, [r6, #0]
		PCD_ReadRegister(FIFODataReg, n, backData, rxAlign);		// Get received data from FIFO
   b7de0:	462b      	mov	r3, r5
   b7de2:	2112      	movs	r1, #18
   b7de4:	4620      	mov	r0, r4
   b7de6:	f8cd b000 	str.w	fp, [sp]
   b7dea:	f7ff fe47 	bl	b7a7c <_ZN7MFRC52216PCD_ReadRegisterEhhPhh>
		_validBits = PCD_ReadRegister(ControlReg) & 0x07;	// RxLastBits[2:0] indicates the number of valid bits in the last received byte. If this value is 000b, the whole byte is valid.
   b7dee:	2118      	movs	r1, #24
   b7df0:	4620      	mov	r0, r4
   b7df2:	f7ff fe92 	bl	b7b1a <_ZN7MFRC52216PCD_ReadRegisterEh>
   b7df6:	f000 0707 	and.w	r7, r0, #7
		if (validBits) {
   b7dfa:	f1b9 0f00 	cmp.w	r9, #0
   b7dfe:	d001      	beq.n	b7e04 <_ZN7MFRC52223PCD_CommunicateWithPICCEhhPhhS0_S0_S0_hb+0xf2>
			*validBits = _validBits;
   b7e00:	f889 7000 	strb.w	r7, [r9]
	if (errorRegValue & 0x08) { // CollErr
   b7e04:	f018 0f08 	tst.w	r8, #8
   b7e08:	d12a      	bne.n	b7e60 <_ZN7MFRC52223PCD_CommunicateWithPICCEhhPhhS0_S0_S0_hb+0x14e>
	if (backData && backLen && checkCRC) {
   b7e0a:	b35d      	cbz	r5, b7e64 <_ZN7MFRC52223PCD_CommunicateWithPICCEhhPhhS0_S0_S0_hb+0x152>
   b7e0c:	b356      	cbz	r6, b7e64 <_ZN7MFRC52223PCD_CommunicateWithPICCEhhPhhS0_S0_S0_hb+0x152>
   b7e0e:	9b04      	ldr	r3, [sp, #16]
   b7e10:	b343      	cbz	r3, b7e64 <_ZN7MFRC52223PCD_CommunicateWithPICCEhhPhhS0_S0_S0_hb+0x152>
		if (*backLen == 1 && _validBits == 4) {
   b7e12:	7832      	ldrb	r2, [r6, #0]
   b7e14:	2a01      	cmp	r2, #1
   b7e16:	d103      	bne.n	b7e20 <_ZN7MFRC52223PCD_CommunicateWithPICCEhhPhhS0_S0_S0_hb+0x10e>
   b7e18:	2f04      	cmp	r7, #4
   b7e1a:	d125      	bne.n	b7e68 <_ZN7MFRC52223PCD_CommunicateWithPICCEhhPhhS0_S0_S0_hb+0x156>
			return STATUS_MIFARE_NACK;
   b7e1c:	2009      	movs	r0, #9
   b7e1e:	e018      	b.n	b7e52 <_ZN7MFRC52223PCD_CommunicateWithPICCEhhPhhS0_S0_S0_hb+0x140>
		if (*backLen < 2 || _validBits != 0) {
   b7e20:	d922      	bls.n	b7e68 <_ZN7MFRC52223PCD_CommunicateWithPICCEhhPhhS0_S0_S0_hb+0x156>
   b7e22:	bb0f      	cbnz	r7, b7e68 <_ZN7MFRC52223PCD_CommunicateWithPICCEhhPhhS0_S0_S0_hb+0x156>
		n = PCD_CalculateCRC(&backData[0], *backLen - 2, &controlBuffer[0]);
   b7e24:	3a02      	subs	r2, #2
   b7e26:	ab07      	add	r3, sp, #28
   b7e28:	b2d2      	uxtb	r2, r2
   b7e2a:	4629      	mov	r1, r5
   b7e2c:	4620      	mov	r0, r4
   b7e2e:	f7ff fedc 	bl	b7bea <_ZN7MFRC52216PCD_CalculateCRCEPhhS0_>
		if (n != STATUS_OK) {
   b7e32:	2801      	cmp	r0, #1
   b7e34:	d10d      	bne.n	b7e52 <_ZN7MFRC52223PCD_CommunicateWithPICCEhhPhhS0_S0_S0_hb+0x140>
		if ((backData[*backLen - 2] != controlBuffer[0]) || (backData[*backLen - 1] != controlBuffer[1])) {
   b7e36:	7833      	ldrb	r3, [r6, #0]
   b7e38:	441d      	add	r5, r3
   b7e3a:	f89d 301c 	ldrb.w	r3, [sp, #28]
   b7e3e:	f815 2c02 	ldrb.w	r2, [r5, #-2]
   b7e42:	429a      	cmp	r2, r3
   b7e44:	d110      	bne.n	b7e68 <_ZN7MFRC52223PCD_CommunicateWithPICCEhhPhhS0_S0_S0_hb+0x156>
   b7e46:	f815 2c01 	ldrb.w	r2, [r5, #-1]
   b7e4a:	f89d 301d 	ldrb.w	r3, [sp, #29]
   b7e4e:	429a      	cmp	r2, r3
   b7e50:	d10a      	bne.n	b7e68 <_ZN7MFRC52223PCD_CommunicateWithPICCEhhPhhS0_S0_S0_hb+0x156>
} // End PCD_CommunicateWithPICC()
   b7e52:	b009      	add	sp, #36	; 0x24
   b7e54:	e8bd 8ff0 	ldmia.w	sp!, {r4, r5, r6, r7, r8, r9, sl, fp, pc}
		return STATUS_ERROR;
   b7e58:	2002      	movs	r0, #2
   b7e5a:	e7fa      	b.n	b7e52 <_ZN7MFRC52223PCD_CommunicateWithPICCEhhPhhS0_S0_S0_hb+0x140>
			return STATUS_NO_ROOM;
   b7e5c:	2005      	movs	r0, #5
   b7e5e:	e7f8      	b.n	b7e52 <_ZN7MFRC52223PCD_CommunicateWithPICCEhhPhhS0_S0_S0_hb+0x140>
		return STATUS_COLLISION;
   b7e60:	2003      	movs	r0, #3
   b7e62:	e7f6      	b.n	b7e52 <_ZN7MFRC52223PCD_CommunicateWithPICCEhhPhhS0_S0_S0_hb+0x140>
	return STATUS_OK;
   b7e64:	2001      	movs	r0, #1
   b7e66:	e7f4      	b.n	b7e52 <_ZN7MFRC52223PCD_CommunicateWithPICCEhhPhhS0_S0_S0_hb+0x140>
			return STATUS_CRC_WRONG;
   b7e68:	2008      	movs	r0, #8
   b7e6a:	e7f2      	b.n	b7e52 <_ZN7MFRC52223PCD_CommunicateWithPICCEhhPhhS0_S0_S0_hb+0x140>

000b7e6c <_ZN7MFRC52218PCD_TransceiveDataEPhhS0_S0_S0_hb>:
								 ) {
   b7e6c:	b510      	push	{r4, lr}
   b7e6e:	b086      	sub	sp, #24
	return PCD_CommunicateWithPICC(PCD_Transceive, waitIRq, sendData, sendLen, backData, backLen, validBits, rxAlign, checkCRC);
   b7e70:	f89d 402c 	ldrb.w	r4, [sp, #44]	; 0x2c
   b7e74:	9405      	str	r4, [sp, #20]
   b7e76:	f89d 4028 	ldrb.w	r4, [sp, #40]	; 0x28
   b7e7a:	9404      	str	r4, [sp, #16]
   b7e7c:	9c09      	ldr	r4, [sp, #36]	; 0x24
   b7e7e:	9403      	str	r4, [sp, #12]
   b7e80:	9c08      	ldr	r4, [sp, #32]
   b7e82:	9200      	str	r2, [sp, #0]
   b7e84:	e9cd 3401 	strd	r3, r4, [sp, #4]
   b7e88:	2230      	movs	r2, #48	; 0x30
   b7e8a:	460b      	mov	r3, r1
   b7e8c:	210c      	movs	r1, #12
   b7e8e:	f7ff ff40 	bl	b7d12 <_ZN7MFRC52223PCD_CommunicateWithPICCEhhPhhS0_S0_S0_hb>
} // End PCD_TransceiveData()
   b7e92:	b006      	add	sp, #24
   b7e94:	bd10      	pop	{r4, pc}

000b7e96 <_ZN7MFRC52217PICC_REQA_or_WUPAEhPhS0_>:
							   ) {
   b7e96:	b570      	push	{r4, r5, r6, lr}
   b7e98:	b088      	sub	sp, #32
   b7e9a:	4606      	mov	r6, r0
   b7e9c:	461c      	mov	r4, r3
   b7e9e:	f88d 1017 	strb.w	r1, [sp, #23]
	if (bufferATQA == NULL || *bufferSize < 2) {	// The ATQA response is 2 bytes long.
   b7ea2:	4615      	mov	r5, r2
   b7ea4:	b31a      	cbz	r2, b7eee <_ZN7MFRC52217PICC_REQA_or_WUPAEhPhS0_+0x58>
   b7ea6:	781b      	ldrb	r3, [r3, #0]
   b7ea8:	2b01      	cmp	r3, #1
   b7eaa:	d920      	bls.n	b7eee <_ZN7MFRC52217PICC_REQA_or_WUPAEhPhS0_+0x58>
	PCD_ClearRegisterBitMask(CollReg, 0x80);			// ValuesAfterColl=1 => Bits received after collision are cleared.
   b7eac:	2280      	movs	r2, #128	; 0x80
   b7eae:	211c      	movs	r1, #28
   b7eb0:	f7ff fe88 	bl	b7bc4 <_ZN7MFRC52224PCD_ClearRegisterBitMaskEhh>
	validBits = 7;										// For REQA and WUPA we need the short frame format - transmit only 7 bits of the last (and only) byte. TxLastBits = BitFramingReg[2..0]
   b7eb4:	2307      	movs	r3, #7
   b7eb6:	f88d 301f 	strb.w	r3, [sp, #31]
	status = PCD_TransceiveData(&command, 1, bufferATQA, bufferSize, &validBits);
   b7eba:	2300      	movs	r3, #0
   b7ebc:	e9cd 3302 	strd	r3, r3, [sp, #8]
   b7ec0:	f10d 031f 	add.w	r3, sp, #31
   b7ec4:	e9cd 4300 	strd	r4, r3, [sp]
   b7ec8:	2201      	movs	r2, #1
   b7eca:	462b      	mov	r3, r5
   b7ecc:	f10d 0117 	add.w	r1, sp, #23
   b7ed0:	4630      	mov	r0, r6
   b7ed2:	f7ff ffcb 	bl	b7e6c <_ZN7MFRC52218PCD_TransceiveDataEPhhS0_S0_S0_hb>
	if (status != STATUS_OK) {
   b7ed6:	2801      	cmp	r0, #1
   b7ed8:	d107      	bne.n	b7eea <_ZN7MFRC52217PICC_REQA_or_WUPAEhPhS0_+0x54>
	if (*bufferSize != 2 || validBits != 0) {		// ATQA must be exactly 16 bits.
   b7eda:	7823      	ldrb	r3, [r4, #0]
   b7edc:	2b02      	cmp	r3, #2
   b7ede:	d108      	bne.n	b7ef2 <_ZN7MFRC52217PICC_REQA_or_WUPAEhPhS0_+0x5c>
   b7ee0:	f89d 301f 	ldrb.w	r3, [sp, #31]
		return STATUS_ERROR;
   b7ee4:	2b00      	cmp	r3, #0
   b7ee6:	bf18      	it	ne
   b7ee8:	2002      	movne	r0, #2
} // End PICC_REQA_or_WUPA()
   b7eea:	b008      	add	sp, #32
   b7eec:	bd70      	pop	{r4, r5, r6, pc}
		return STATUS_NO_ROOM;
   b7eee:	2005      	movs	r0, #5
   b7ef0:	e7fb      	b.n	b7eea <_ZN7MFRC52217PICC_REQA_or_WUPAEhPhS0_+0x54>
		return STATUS_ERROR;
   b7ef2:	2002      	movs	r0, #2
   b7ef4:	e7f9      	b.n	b7eea <_ZN7MFRC52217PICC_REQA_or_WUPAEhPhS0_+0x54>

000b7ef6 <_ZN7MFRC52213PICC_RequestAEPhS0_>:
							) {
   b7ef6:	4613      	mov	r3, r2
	return PICC_REQA_or_WUPA(PICC_CMD_REQA, bufferATQA, bufferSize);
   b7ef8:	460a      	mov	r2, r1
   b7efa:	2126      	movs	r1, #38	; 0x26
   b7efc:	f7ff bfcb 	b.w	b7e96 <_ZN7MFRC52217PICC_REQA_or_WUPAEhPhS0_>

000b7f00 <_ZN7MFRC52221PICC_IsNewCardPresentEv>:
 * Returns true if a PICC responds to PICC_CMD_REQA.
 * Only "new" cards in state IDLE are invited. Sleeping cards in state HALT are ignored.
 * 
 * @return bool
 */
bool MFRC522::PICC_IsNewCardPresent() {
   b7f00:	b507      	push	{r0, r1, r2, lr}
	byte bufferATQA[2];
	byte bufferSize = sizeof(bufferATQA);
   b7f02:	2302      	movs	r3, #2
	byte result = PICC_RequestA(bufferATQA, &bufferSize);
   b7f04:	f10d 0203 	add.w	r2, sp, #3
   b7f08:	a901      	add	r1, sp, #4
	byte bufferSize = sizeof(bufferATQA);
   b7f0a:	f88d 3003 	strb.w	r3, [sp, #3]
	byte result = PICC_RequestA(bufferATQA, &bufferSize);
   b7f0e:	f7ff fff2 	bl	b7ef6 <_ZN7MFRC52213PICC_RequestAEPhS0_>
	return (result == STATUS_OK || result == STATUS_COLLISION);
   b7f12:	f000 00fd 	and.w	r0, r0, #253	; 0xfd
} // End PICC_IsNewCardPresent()
   b7f16:	1e43      	subs	r3, r0, #1
   b7f18:	4258      	negs	r0, r3
   b7f1a:	4158      	adcs	r0, r3
   b7f1c:	b003      	add	sp, #12
   b7f1e:	f85d fb04 	ldr.w	pc, [sp], #4

000b7f22 <_ZN7MFRC52210PICC_HaltAEv>:
byte MFRC522::PICC_HaltA() {
   b7f22:	b570      	push	{r4, r5, r6, lr}
   b7f24:	b086      	sub	sp, #24
	buffer[0] = PICC_CMD_HLTA;
   b7f26:	2350      	movs	r3, #80	; 0x50
   b7f28:	f88d 3014 	strb.w	r3, [sp, #20]
	buffer[1] = 0;
   b7f2c:	2400      	movs	r4, #0
	result = PCD_CalculateCRC(buffer, 2, &buffer[2]);
   b7f2e:	f10d 0316 	add.w	r3, sp, #22
   b7f32:	2202      	movs	r2, #2
   b7f34:	a905      	add	r1, sp, #20
byte MFRC522::PICC_HaltA() {
   b7f36:	4606      	mov	r6, r0
	buffer[1] = 0;
   b7f38:	f88d 4015 	strb.w	r4, [sp, #21]
	result = PCD_CalculateCRC(buffer, 2, &buffer[2]);
   b7f3c:	f7ff fe55 	bl	b7bea <_ZN7MFRC52216PCD_CalculateCRCEPhhS0_>
	if (result != STATUS_OK) {
   b7f40:	2801      	cmp	r0, #1
	result = PCD_CalculateCRC(buffer, 2, &buffer[2]);
   b7f42:	4605      	mov	r5, r0
	if (result != STATUS_OK) {
   b7f44:	d10f      	bne.n	b7f66 <_ZN7MFRC52210PICC_HaltAEv+0x44>
	result = PCD_TransceiveData(buffer, sizeof(buffer), NULL, 0);
   b7f46:	e9cd 4402 	strd	r4, r4, [sp, #8]
   b7f4a:	e9cd 4400 	strd	r4, r4, [sp]
   b7f4e:	4623      	mov	r3, r4
   b7f50:	2204      	movs	r2, #4
   b7f52:	a905      	add	r1, sp, #20
   b7f54:	4630      	mov	r0, r6
   b7f56:	f7ff ff89 	bl	b7e6c <_ZN7MFRC52218PCD_TransceiveDataEPhhS0_S0_S0_hb>
	if (result == STATUS_TIMEOUT) {
   b7f5a:	2804      	cmp	r0, #4
   b7f5c:	d003      	beq.n	b7f66 <_ZN7MFRC52210PICC_HaltAEv+0x44>
		return STATUS_ERROR;
   b7f5e:	2801      	cmp	r0, #1
   b7f60:	bf14      	ite	ne
   b7f62:	4605      	movne	r5, r0
   b7f64:	2502      	moveq	r5, #2
} // End PICC_HaltA()
   b7f66:	4628      	mov	r0, r5
   b7f68:	b006      	add	sp, #24
   b7f6a:	bd70      	pop	{r4, r5, r6, pc}

000b7f6c <_ZN7MFRC52211MIFARE_ReadEhPhS0_>:
						) {
   b7f6c:	b57f      	push	{r0, r1, r2, r3, r4, r5, r6, lr}
   b7f6e:	4606      	mov	r6, r0
   b7f70:	461d      	mov	r5, r3
	if (buffer == NULL || *bufferSize < 18) {
   b7f72:	4614      	mov	r4, r2
   b7f74:	b1ca      	cbz	r2, b7faa <_ZN7MFRC52211MIFARE_ReadEhPhS0_+0x3e>
   b7f76:	781b      	ldrb	r3, [r3, #0]
   b7f78:	2b11      	cmp	r3, #17
   b7f7a:	d916      	bls.n	b7faa <_ZN7MFRC52211MIFARE_ReadEhPhS0_+0x3e>
	buffer[0] = PICC_CMD_MF_READ;
   b7f7c:	2330      	movs	r3, #48	; 0x30
   b7f7e:	7013      	strb	r3, [r2, #0]
	buffer[1] = blockAddr;
   b7f80:	7051      	strb	r1, [r2, #1]
	result = PCD_CalculateCRC(buffer, 2, &buffer[2]);
   b7f82:	1c93      	adds	r3, r2, #2
   b7f84:	4621      	mov	r1, r4
   b7f86:	2202      	movs	r2, #2
   b7f88:	f7ff fe2f 	bl	b7bea <_ZN7MFRC52216PCD_CalculateCRCEPhhS0_>
	if (result != STATUS_OK) {
   b7f8c:	2801      	cmp	r0, #1
   b7f8e:	d10a      	bne.n	b7fa6 <_ZN7MFRC52211MIFARE_ReadEhPhS0_+0x3a>
	return PCD_TransceiveData(buffer, 4, buffer, bufferSize, NULL, 0, true);
   b7f90:	2300      	movs	r3, #0
   b7f92:	e9cd 3301 	strd	r3, r3, [sp, #4]
   b7f96:	9003      	str	r0, [sp, #12]
   b7f98:	9500      	str	r5, [sp, #0]
   b7f9a:	4623      	mov	r3, r4
   b7f9c:	2204      	movs	r2, #4
   b7f9e:	4621      	mov	r1, r4
   b7fa0:	4630      	mov	r0, r6
   b7fa2:	f7ff ff63 	bl	b7e6c <_ZN7MFRC52218PCD_TransceiveDataEPhhS0_S0_S0_hb>
} // End MIFARE_Read()
   b7fa6:	b004      	add	sp, #16
   b7fa8:	bd70      	pop	{r4, r5, r6, pc}
		return STATUS_NO_ROOM;
   b7faa:	2005      	movs	r0, #5
   b7fac:	e7fb      	b.n	b7fa6 <_ZN7MFRC52211MIFARE_ReadEhPhS0_+0x3a>

000b7fae <_ZN7MFRC52216PCD_AuthenticateEhhPNS_10MIFARE_KeyEPNS_3UidE>:
								) {
   b7fae:	b510      	push	{r4, lr}
   b7fb0:	b08a      	sub	sp, #40	; 0x28
   b7fb2:	9c0c      	ldr	r4, [sp, #48]	; 0x30
	sendData[1] = blockAddr;
   b7fb4:	f88d 201d 	strb.w	r2, [sp, #29]
		sendData[2+i] = key->keyByte[i];
   b7fb8:	681a      	ldr	r2, [r3, #0]
   b7fba:	889b      	ldrh	r3, [r3, #4]
   b7fbc:	f8ad 3022 	strh.w	r3, [sp, #34]	; 0x22
		sendData[8+i] = uid->uidByte[i];
   b7fc0:	7863      	ldrb	r3, [r4, #1]
   b7fc2:	f88d 3024 	strb.w	r3, [sp, #36]	; 0x24
   b7fc6:	78a3      	ldrb	r3, [r4, #2]
   b7fc8:	f88d 3025 	strb.w	r3, [sp, #37]	; 0x25
   b7fcc:	78e3      	ldrb	r3, [r4, #3]
   b7fce:	f88d 3026 	strb.w	r3, [sp, #38]	; 0x26
   b7fd2:	7923      	ldrb	r3, [r4, #4]
   b7fd4:	f88d 3027 	strb.w	r3, [sp, #39]	; 0x27
	return PCD_CommunicateWithPICC(PCD_MFAuthent, waitIRq, &sendData[0], sizeof(sendData));
   b7fd8:	2300      	movs	r3, #0
   b7fda:	e9cd 3304 	strd	r3, r3, [sp, #16]
   b7fde:	e9cd 3302 	strd	r3, r3, [sp, #8]
   b7fe2:	9301      	str	r3, [sp, #4]
   b7fe4:	230c      	movs	r3, #12
	sendData[0] = command;
   b7fe6:	f88d 101c 	strb.w	r1, [sp, #28]
		sendData[2+i] = key->keyByte[i];
   b7fea:	f8cd 201e 	str.w	r2, [sp, #30]
	return PCD_CommunicateWithPICC(PCD_MFAuthent, waitIRq, &sendData[0], sizeof(sendData));
   b7fee:	9300      	str	r3, [sp, #0]
   b7ff0:	2210      	movs	r2, #16
   b7ff2:	ab07      	add	r3, sp, #28
   b7ff4:	210e      	movs	r1, #14
   b7ff6:	f7ff fe8c 	bl	b7d12 <_ZN7MFRC52223PCD_CommunicateWithPICCEhhPhhS0_S0_S0_hb>
} // End PCD_Authenticate()
   b7ffa:	b00a      	add	sp, #40	; 0x28
   b7ffc:	bd10      	pop	{r4, pc}

000b7ffe <_ZN7MFRC52211PICC_SelectEPNS_3UidEh>:
						 ) {
   b7ffe:	e92d 4ff0 	stmdb	sp!, {r4, r5, r6, r7, r8, r9, sl, fp, lr}
	if (validBits > 80) {
   b8002:	2a50      	cmp	r2, #80	; 0x50
						 ) {
   b8004:	b08b      	sub	sp, #44	; 0x2c
   b8006:	4682      	mov	sl, r0
   b8008:	460f      	mov	r7, r1
   b800a:	4690      	mov	r8, r2
	if (validBits > 80) {
   b800c:	f200 8140 	bhi.w	b8290 <_ZN7MFRC52211PICC_SelectEPNS_3UidEh+0x292>
	PCD_ClearRegisterBitMask(CollReg, 0x80);			// ValuesAfterColl=1 => Bits received after collision are cleared.
   b8010:	2280      	movs	r2, #128	; 0x80
   b8012:	211c      	movs	r1, #28
   b8014:	f7ff fdd6 	bl	b7bc4 <_ZN7MFRC52224PCD_ClearRegisterBitMaskEhh>
				buffer[0] = PICC_CMD_SEL_CL1;
   b8018:	2393      	movs	r3, #147	; 0x93
   b801a:	f88d 301c 	strb.w	r3, [sp, #28]
				useCascadeTag = validBits && uid->size > 4;	// When we know that the UID has more than 4 bytes
   b801e:	f1b8 0f00 	cmp.w	r8, #0
   b8022:	f000 80bc 	beq.w	b819e <_ZN7MFRC52211PICC_SelectEPNS_3UidEh+0x1a0>
   b8026:	783c      	ldrb	r4, [r7, #0]
   b8028:	2c04      	cmp	r4, #4
   b802a:	bf94      	ite	ls
   b802c:	2300      	movls	r3, #0
   b802e:	2301      	movhi	r3, #1
				useCascadeTag = validBits && uid->size > 7;	// When we know that the UID has more than 7 bytes
   b8030:	2501      	movs	r5, #1
   b8032:	2600      	movs	r6, #0
   b8034:	e00b      	b.n	b804e <_ZN7MFRC52211PICC_SelectEPNS_3UidEh+0x50>
				buffer[0] = PICC_CMD_SEL_CL2;
   b8036:	2395      	movs	r3, #149	; 0x95
   b8038:	f88d 301c 	strb.w	r3, [sp, #28]
				useCascadeTag = validBits && uid->size > 7;	// When we know that the UID has more than 7 bytes
   b803c:	f1b8 0f00 	cmp.w	r8, #0
   b8040:	f000 80af 	beq.w	b81a2 <_ZN7MFRC52211PICC_SelectEPNS_3UidEh+0x1a4>
   b8044:	783c      	ldrb	r4, [r7, #0]
   b8046:	2c07      	cmp	r4, #7
   b8048:	bf94      	ite	ls
   b804a:	2300      	movls	r3, #0
   b804c:	2301      	movhi	r3, #1
		currentLevelKnownBits = validBits - (8 * uidIndex);
   b804e:	eba8 04c6 	sub.w	r4, r8, r6, lsl #3
   b8052:	b264      	sxtb	r4, r4
		if (currentLevelKnownBits < 0) {
   b8054:	ea24 74e4 	bic.w	r4, r4, r4, asr #31
		if (useCascadeTag) {
   b8058:	2b00      	cmp	r3, #0
   b805a:	f000 80a4 	beq.w	b81a6 <_ZN7MFRC52211PICC_SelectEPNS_3UidEh+0x1a8>
			buffer[index++] = PICC_CMD_CT;
   b805e:	2288      	movs	r2, #136	; 0x88
   b8060:	f88d 201e 	strb.w	r2, [sp, #30]
   b8064:	2103      	movs	r1, #3
		byte bytesToCopy = currentLevelKnownBits / 8 + (currentLevelKnownBits % 8 ? 1 : 0); // The number of bytes needed to represent the known bits for this level.
   b8066:	f014 0207 	ands.w	r2, r4, #7
   b806a:	bf18      	it	ne
   b806c:	2201      	movne	r2, #1
   b806e:	eb02 02e4 	add.w	r2, r2, r4, asr #3
		if (bytesToCopy) {
   b8072:	f012 02ff 	ands.w	r2, r2, #255	; 0xff
		byte bytesToCopy = currentLevelKnownBits / 8 + (currentLevelKnownBits % 8 ? 1 : 0); // The number of bytes needed to represent the known bits for this level.
   b8076:	b2e0      	uxtb	r0, r4
		if (bytesToCopy) {
   b8078:	d01d      	beq.n	b80b6 <_ZN7MFRC52211PICC_SelectEPNS_3UidEh+0xb8>
			byte maxBytes = useCascadeTag ? 3 : 4; // Max 4 bytes in each Cascade Level. Only 3 left if we use the Cascade Tag
   b807a:	2b00      	cmp	r3, #0
   b807c:	bf14      	ite	ne
   b807e:	f04f 0903 	movne.w	r9, #3
   b8082:	f04f 0904 	moveq.w	r9, #4
			for (count = 0; count < bytesToCopy; count++) {
   b8086:	f106 0c01 	add.w	ip, r6, #1
   b808a:	4591      	cmp	r9, r2
   b808c:	bf94      	ite	ls
   b808e:	eb01 0e09 	addls.w	lr, r1, r9
   b8092:	eb01 0e02 	addhi.w	lr, r1, r2
   b8096:	fa57 fc8c 	uxtab	ip, r7, ip
   b809a:	fa5f fe8e 	uxtb.w	lr, lr
				buffer[index++] = uid->uidByte[uidIndex + count];
   b809e:	460a      	mov	r2, r1
   b80a0:	f10d 0b28 	add.w	fp, sp, #40	; 0x28
   b80a4:	3101      	adds	r1, #1
   b80a6:	b2c9      	uxtb	r1, r1
   b80a8:	445a      	add	r2, fp
   b80aa:	f81c 9b01 	ldrb.w	r9, [ip], #1
   b80ae:	f802 9c0c 	strb.w	r9, [r2, #-12]
			for (count = 0; count < bytesToCopy; count++) {
   b80b2:	4571      	cmp	r1, lr
   b80b4:	d1f3      	bne.n	b809e <_ZN7MFRC52211PICC_SelectEPNS_3UidEh+0xa0>
		if (useCascadeTag) {
   b80b6:	b10b      	cbz	r3, b80bc <_ZN7MFRC52211PICC_SelectEPNS_3UidEh+0xbe>
			currentLevelKnownBits += 8;
   b80b8:	3008      	adds	r0, #8
   b80ba:	b244      	sxtb	r4, r0
			if (currentLevelKnownBits >= 32) { // All UID bits in this Cascade Level are known. This is a SELECT.
   b80bc:	2c1f      	cmp	r4, #31
   b80be:	dd74      	ble.n	b81aa <_ZN7MFRC52211PICC_SelectEPNS_3UidEh+0x1ac>
				buffer[1] = 0x70; // NVB - Number of Valid Bits: Seven whole bytes
   b80c0:	f04f 0370 	mov.w	r3, #112	; 0x70
				buffer[6] = buffer[2] ^ buffer[3] ^ buffer[4] ^ buffer[5];
   b80c4:	f89d 201f 	ldrb.w	r2, [sp, #31]
				buffer[1] = 0x70; // NVB - Number of Valid Bits: Seven whole bytes
   b80c8:	f88d 301d 	strb.w	r3, [sp, #29]
				buffer[6] = buffer[2] ^ buffer[3] ^ buffer[4] ^ buffer[5];
   b80cc:	f89d 301e 	ldrb.w	r3, [sp, #30]
   b80d0:	4053      	eors	r3, r2
   b80d2:	f89d 2020 	ldrb.w	r2, [sp, #32]
   b80d6:	4053      	eors	r3, r2
   b80d8:	f89d 2021 	ldrb.w	r2, [sp, #33]	; 0x21
   b80dc:	4053      	eors	r3, r2
   b80de:	f88d 3022 	strb.w	r3, [sp, #34]	; 0x22
				result = PCD_CalculateCRC(buffer, 7, &buffer[7]);
   b80e2:	2207      	movs	r2, #7
   b80e4:	f10d 0323 	add.w	r3, sp, #35	; 0x23
   b80e8:	a907      	add	r1, sp, #28
   b80ea:	4650      	mov	r0, sl
   b80ec:	f7ff fd7d 	bl	b7bea <_ZN7MFRC52216PCD_CalculateCRCEPhhS0_>
				if (result != STATUS_OK) {
   b80f0:	2801      	cmp	r0, #1
				result = PCD_CalculateCRC(buffer, 7, &buffer[7]);
   b80f2:	4681      	mov	r9, r0
				if (result != STATUS_OK) {
   b80f4:	f040 80c8 	bne.w	b8288 <_ZN7MFRC52211PICC_SelectEPNS_3UidEh+0x28a>
				txLastBits		= 0; // 0 => All 8 bits are valid.
   b80f8:	2300      	movs	r3, #0
   b80fa:	f88d 301a 	strb.w	r3, [sp, #26]
				responseLength	= 3;
   b80fe:	2303      	movs	r3, #3
   b8100:	f88d 301b 	strb.w	r3, [sp, #27]
   b8104:	9404      	str	r4, [sp, #16]
				responseBuffer	= &buffer[6];
   b8106:	f10d 0b22 	add.w	fp, sp, #34	; 0x22
				bufferUsed		= 9;
   b810a:	f04f 0909 	mov.w	r9, #9
			rxAlign = txLastBits;											// Having a seperate variable is overkill. But it makes the next line easier to read.
   b810e:	f89d 301a 	ldrb.w	r3, [sp, #26]
			PCD_WriteRegister(BitFramingReg, (rxAlign << 4) + txLastBits);	// RxAlign = BitFramingReg[6..4]. TxLastBits = BitFramingReg[2..0]
   b8112:	9305      	str	r3, [sp, #20]
   b8114:	eb03 1203 	add.w	r2, r3, r3, lsl #4
   b8118:	b2d2      	uxtb	r2, r2
   b811a:	211a      	movs	r1, #26
   b811c:	4650      	mov	r0, sl
   b811e:	f7ff fd2e 	bl	b7b7e <_ZN7MFRC52217PCD_WriteRegisterEhh>
			result = PCD_TransceiveData(buffer, bufferUsed, responseBuffer, &responseLength, &txLastBits, rxAlign);			
   b8122:	9b05      	ldr	r3, [sp, #20]
   b8124:	9302      	str	r3, [sp, #8]
   b8126:	f10d 031a 	add.w	r3, sp, #26
   b812a:	2200      	movs	r2, #0
   b812c:	9301      	str	r3, [sp, #4]
   b812e:	f10d 031b 	add.w	r3, sp, #27
   b8132:	9203      	str	r2, [sp, #12]
   b8134:	9300      	str	r3, [sp, #0]
   b8136:	464a      	mov	r2, r9
   b8138:	465b      	mov	r3, fp
   b813a:	a907      	add	r1, sp, #28
   b813c:	4650      	mov	r0, sl
   b813e:	f7ff fe95 	bl	b7e6c <_ZN7MFRC52218PCD_TransceiveDataEPhhS0_S0_S0_hb>
			if (result == STATUS_COLLISION) { // More than one PICC in the field => collision.
   b8142:	2803      	cmp	r0, #3
			result = PCD_TransceiveData(buffer, bufferUsed, responseBuffer, &responseLength, &txLastBits, rxAlign);			
   b8144:	4681      	mov	r9, r0
			if (result == STATUS_COLLISION) { // More than one PICC in the field => collision.
   b8146:	d14c      	bne.n	b81e2 <_ZN7MFRC52211PICC_SelectEPNS_3UidEh+0x1e4>
				result = PCD_ReadRegister(CollReg); // CollReg[7..0] bits are: ValuesAfterColl reserved CollPosNotValid CollPos[4:0]
   b8148:	211c      	movs	r1, #28
   b814a:	4650      	mov	r0, sl
   b814c:	f7ff fce5 	bl	b7b1a <_ZN7MFRC52216PCD_ReadRegisterEh>
				if (result & 0x20) { // CollPosNotValid
   b8150:	0681      	lsls	r1, r0, #26
   b8152:	f100 8099 	bmi.w	b8288 <_ZN7MFRC52211PICC_SelectEPNS_3UidEh+0x28a>
					collisionPos = 32;
   b8156:	f010 001f 	ands.w	r0, r0, #31
   b815a:	bf08      	it	eq
   b815c:	2020      	moveq	r0, #32
				if (collisionPos <= currentLevelKnownBits) { // No progress - should not happen 
   b815e:	42a0      	cmp	r0, r4
   b8160:	f340 8087 	ble.w	b8272 <_ZN7MFRC52211PICC_SelectEPNS_3UidEh+0x274>
				count			= (currentLevelKnownBits - 1) % 8; // The bit to modify
   b8164:	1e43      	subs	r3, r0, #1
				index			= 1 + (currentLevelKnownBits / 8) + (count ? 1 : 0); // First byte is index 0.
   b8166:	f003 0207 	and.w	r2, r3, #7
				currentLevelKnownBits = collisionPos;
   b816a:	b244      	sxtb	r4, r0
				index			= 1 + (currentLevelKnownBits / 8) + (count ? 1 : 0); // First byte is index 0.
   b816c:	f013 0307 	ands.w	r3, r3, #7
   b8170:	ea4f 00d0 	mov.w	r0, r0, lsr #3
   b8174:	bf18      	it	ne
   b8176:	2301      	movne	r3, #1
   b8178:	3001      	adds	r0, #1
				buffer[index]	|= (1 << count); 
   b817a:	4418      	add	r0, r3
   b817c:	ab0a      	add	r3, sp, #40	; 0x28
   b817e:	4418      	add	r0, r3
   b8180:	2301      	movs	r3, #1
   b8182:	fa03 f202 	lsl.w	r2, r3, r2
   b8186:	f810 3c0c 	ldrb.w	r3, [r0, #-12]
   b818a:	4313      	orrs	r3, r2
   b818c:	f800 3c0c 	strb.w	r3, [r0, #-12]
		while ( ! selectDone) {
   b8190:	e794      	b.n	b80bc <_ZN7MFRC52211PICC_SelectEPNS_3UidEh+0xbe>
				buffer[0] = PICC_CMD_SEL_CL3;
   b8192:	2397      	movs	r3, #151	; 0x97
   b8194:	f88d 301c 	strb.w	r3, [sp, #28]
				uidIndex = 6;
   b8198:	2606      	movs	r6, #6
				useCascadeTag = false;						// Never used in CL3.
   b819a:	4623      	mov	r3, r4
				break;
   b819c:	e757      	b.n	b804e <_ZN7MFRC52211PICC_SelectEPNS_3UidEh+0x50>
				useCascadeTag = validBits && uid->size > 4;	// When we know that the UID has more than 4 bytes
   b819e:	4643      	mov	r3, r8
   b81a0:	e746      	b.n	b8030 <_ZN7MFRC52211PICC_SelectEPNS_3UidEh+0x32>
				useCascadeTag = validBits && uid->size > 7;	// When we know that the UID has more than 7 bytes
   b81a2:	4643      	mov	r3, r8
   b81a4:	e753      	b.n	b804e <_ZN7MFRC52211PICC_SelectEPNS_3UidEh+0x50>
		index = 2; // destination index in buffer[]
   b81a6:	2102      	movs	r1, #2
   b81a8:	e75d      	b.n	b8066 <_ZN7MFRC52211PICC_SelectEPNS_3UidEh+0x68>
				count			= currentLevelKnownBits / 8;	// Number of whole bytes in the UID part.
   b81aa:	10e3      	asrs	r3, r4, #3
				index			= 2 + count;					// Number of whole bytes: SEL + NVB + UIDs
   b81ac:	3302      	adds	r3, #2
   b81ae:	b2db      	uxtb	r3, r3
				txLastBits		= currentLevelKnownBits % 8;
   b81b0:	f004 0207 	and.w	r2, r4, #7
				bufferUsed		= index + (txLastBits ? 1 : 0);
   b81b4:	f014 0907 	ands.w	r9, r4, #7
				txLastBits		= currentLevelKnownBits % 8;
   b81b8:	f88d 201a 	strb.w	r2, [sp, #26]
				buffer[1]		= (index << 4) + txLastBits;	// NVB - Number of Valid Bits
   b81bc:	eb02 1203 	add.w	r2, r2, r3, lsl #4
   b81c0:	f88d 201d 	strb.w	r2, [sp, #29]
				bufferUsed		= index + (txLastBits ? 1 : 0);
   b81c4:	bf18      	it	ne
   b81c6:	f04f 0901 	movne.w	r9, #1
				responseBuffer	= &buffer[index];
   b81ca:	aa07      	add	r2, sp, #28
				bufferUsed		= index + (txLastBits ? 1 : 0);
   b81cc:	4499      	add	r9, r3
				responseBuffer	= &buffer[index];
   b81ce:	eb02 0b03 	add.w	fp, r2, r3
				responseLength	= sizeof(buffer) - index;
   b81d2:	f1c3 0309 	rsb	r3, r3, #9
				bufferUsed		= index + (txLastBits ? 1 : 0);
   b81d6:	fa5f f989 	uxtb.w	r9, r9
				responseLength	= sizeof(buffer) - index;
   b81da:	f88d 301b 	strb.w	r3, [sp, #27]
   b81de:	9404      	str	r4, [sp, #16]
   b81e0:	e795      	b.n	b810e <_ZN7MFRC52211PICC_SelectEPNS_3UidEh+0x110>
			else if (result != STATUS_OK) {
   b81e2:	2801      	cmp	r0, #1
   b81e4:	d150      	bne.n	b8288 <_ZN7MFRC52211PICC_SelectEPNS_3UidEh+0x28a>
				if (currentLevelKnownBits >= 32) { // This was a SELECT.
   b81e6:	9b04      	ldr	r3, [sp, #16]
   b81e8:	2b1f      	cmp	r3, #31
					currentLevelKnownBits = 32;
   b81ea:	f04f 0420 	mov.w	r4, #32
				if (currentLevelKnownBits >= 32) { // This was a SELECT.
   b81ee:	f77f af67 	ble.w	b80c0 <_ZN7MFRC52211PICC_SelectEPNS_3UidEh+0xc2>
		index			= (buffer[2] == PICC_CMD_CT) ? 3 : 2; // source index in buffer[]
   b81f2:	f89d 301e 	ldrb.w	r3, [sp, #30]
   b81f6:	2b88      	cmp	r3, #136	; 0x88
   b81f8:	d13e      	bne.n	b8278 <_ZN7MFRC52211PICC_SelectEPNS_3UidEh+0x27a>
   b81fa:	2303      	movs	r3, #3
		bytesToCopy		= (buffer[2] == PICC_CMD_CT) ? 3 : 4;
   b81fc:	461a      	mov	r2, r3
		for (count = 0; count < bytesToCopy; count++) {
   b81fe:	3601      	adds	r6, #1
   b8200:	441a      	add	r2, r3
   b8202:	fa57 f686 	uxtab	r6, r7, r6
   b8206:	b2d2      	uxtb	r2, r2
			uid->uidByte[uidIndex + count] = buffer[index++];
   b8208:	4619      	mov	r1, r3
   b820a:	a80a      	add	r0, sp, #40	; 0x28
   b820c:	3301      	adds	r3, #1
   b820e:	4401      	add	r1, r0
   b8210:	b2db      	uxtb	r3, r3
   b8212:	f811 1c0c 	ldrb.w	r1, [r1, #-12]
   b8216:	f806 1b01 	strb.w	r1, [r6], #1
		for (count = 0; count < bytesToCopy; count++) {
   b821a:	4293      	cmp	r3, r2
   b821c:	d1f4      	bne.n	b8208 <_ZN7MFRC52211PICC_SelectEPNS_3UidEh+0x20a>
		if (responseLength != 3 || txLastBits != 0) {		// SAK must be exactly 24 bits (1 byte + CRC_A).
   b821e:	f89d 601b 	ldrb.w	r6, [sp, #27]
   b8222:	2e03      	cmp	r6, #3
   b8224:	d137      	bne.n	b8296 <_ZN7MFRC52211PICC_SelectEPNS_3UidEh+0x298>
   b8226:	f89d 401a 	ldrb.w	r4, [sp, #26]
   b822a:	bba4      	cbnz	r4, b8296 <_ZN7MFRC52211PICC_SelectEPNS_3UidEh+0x298>
		result = PCD_CalculateCRC(responseBuffer, 1, &buffer[2]);
   b822c:	f10d 031e 	add.w	r3, sp, #30
   b8230:	2201      	movs	r2, #1
   b8232:	4659      	mov	r1, fp
   b8234:	4650      	mov	r0, sl
   b8236:	f7ff fcd8 	bl	b7bea <_ZN7MFRC52216PCD_CalculateCRCEPhhS0_>
		if (result != STATUS_OK) {
   b823a:	2801      	cmp	r0, #1
		result = PCD_CalculateCRC(responseBuffer, 1, &buffer[2]);
   b823c:	4681      	mov	r9, r0
		if (result != STATUS_OK) {
   b823e:	d123      	bne.n	b8288 <_ZN7MFRC52211PICC_SelectEPNS_3UidEh+0x28a>
		if ((buffer[2] != responseBuffer[1]) || (buffer[3] != responseBuffer[2])) {
   b8240:	f89d 201e 	ldrb.w	r2, [sp, #30]
   b8244:	f89b 3001 	ldrb.w	r3, [fp, #1]
   b8248:	429a      	cmp	r2, r3
   b824a:	d127      	bne.n	b829c <_ZN7MFRC52211PICC_SelectEPNS_3UidEh+0x29e>
   b824c:	f89d 201f 	ldrb.w	r2, [sp, #31]
   b8250:	f89b 3002 	ldrb.w	r3, [fp, #2]
   b8254:	429a      	cmp	r2, r3
   b8256:	d121      	bne.n	b829c <_ZN7MFRC52211PICC_SelectEPNS_3UidEh+0x29e>
		if (responseBuffer[0] & 0x04) { // Cascade bit set - UID not complete yes
   b8258:	f89b 3000 	ldrb.w	r3, [fp]
   b825c:	075a      	lsls	r2, r3, #29
   b825e:	d50e      	bpl.n	b827e <_ZN7MFRC52211PICC_SelectEPNS_3UidEh+0x280>
			cascadeLevel++;
   b8260:	3501      	adds	r5, #1
   b8262:	b2ed      	uxtb	r5, r5
		switch (cascadeLevel) {
   b8264:	2d03      	cmp	r5, #3
   b8266:	d094      	beq.n	b8192 <_ZN7MFRC52211PICC_SelectEPNS_3UidEh+0x194>
   b8268:	2d04      	cmp	r5, #4
   b826a:	d002      	beq.n	b8272 <_ZN7MFRC52211PICC_SelectEPNS_3UidEh+0x274>
   b826c:	2d02      	cmp	r5, #2
   b826e:	f43f aee2 	beq.w	b8036 <_ZN7MFRC52211PICC_SelectEPNS_3UidEh+0x38>
   b8272:	f04f 0906 	mov.w	r9, #6
   b8276:	e007      	b.n	b8288 <_ZN7MFRC52211PICC_SelectEPNS_3UidEh+0x28a>
		index			= (buffer[2] == PICC_CMD_CT) ? 3 : 2; // source index in buffer[]
   b8278:	2302      	movs	r3, #2
		bytesToCopy		= (buffer[2] == PICC_CMD_CT) ? 3 : 4;
   b827a:	2204      	movs	r2, #4
   b827c:	e7bf      	b.n	b81fe <_ZN7MFRC52211PICC_SelectEPNS_3UidEh+0x200>
	uid->size = 3 * cascadeLevel + 1;
   b827e:	eb05 0545 	add.w	r5, r5, r5, lsl #1
   b8282:	3501      	adds	r5, #1
			uid->sak = responseBuffer[0];
   b8284:	72fb      	strb	r3, [r7, #11]
	uid->size = 3 * cascadeLevel + 1;
   b8286:	703d      	strb	r5, [r7, #0]
} // End PICC_Select()
   b8288:	4648      	mov	r0, r9
   b828a:	b00b      	add	sp, #44	; 0x2c
   b828c:	e8bd 8ff0 	ldmia.w	sp!, {r4, r5, r6, r7, r8, r9, sl, fp, pc}
		return STATUS_INVALID;
   b8290:	f04f 0907 	mov.w	r9, #7
   b8294:	e7f8      	b.n	b8288 <_ZN7MFRC52211PICC_SelectEPNS_3UidEh+0x28a>
			return STATUS_ERROR;
   b8296:	f04f 0902 	mov.w	r9, #2
   b829a:	e7f5      	b.n	b8288 <_ZN7MFRC52211PICC_SelectEPNS_3UidEh+0x28a>
			return STATUS_CRC_WRONG;
   b829c:	f04f 0908 	mov.w	r9, #8
   b82a0:	e7f2      	b.n	b8288 <_ZN7MFRC52211PICC_SelectEPNS_3UidEh+0x28a>

000b82a2 <_ZN7MFRC52219PICC_ReadCardSerialEv>:
 * Remember to call PICC_IsNewCardPresent(), PICC_RequestA() or PICC_WakeupA() first.
 * The read UID is available in the class variable uid.
 * 
 * @return bool
 */
bool MFRC522::PICC_ReadCardSerial() {
   b82a2:	b508      	push	{r3, lr}
   b82a4:	4601      	mov	r1, r0
	byte result = PICC_Select(&uid);
   b82a6:	2200      	movs	r2, #0
   b82a8:	f7ff fea9 	bl	b7ffe <_ZN7MFRC52211PICC_SelectEPNS_3UidEh>
	return (result == STATUS_OK);
} // End PICC_ReadCardSerial()
   b82ac:	1e43      	subs	r3, r0, #1
   b82ae:	4258      	negs	r0, r3
   b82b0:	4158      	adcs	r0, r3
   b82b2:	bd08      	pop	{r3, pc}

000b82b4 <_ZN10UltrasonicC1Ei>:

#endif

Ultrasonic::Ultrasonic(int pin)
{
	_pin = pin;
   b82b4:	6001      	str	r1, [r0, #0]
}
   b82b6:	4770      	bx	lr

000b82b8 <_ZN10Ultrasonic20MeasureInCentimetersEv>:
/*The measured distance from the range 0 to 400 Centimeters*/
long Ultrasonic::MeasureInCentimeters(void)
{
   b82b8:	b510      	push	{r4, lr}
   b82ba:	4604      	mov	r4, r0
	pinMode(_pin, OUTPUT);
   b82bc:	2101      	movs	r1, #1
   b82be:	8800      	ldrh	r0, [r0, #0]
   b82c0:	f001 ff4c 	bl	ba15c <pinMode>
	digitalWrite(_pin, LOW);
   b82c4:	8820      	ldrh	r0, [r4, #0]
   b82c6:	2100      	movs	r1, #0
   b82c8:	f001 ff59 	bl	ba17e <digitalWrite>
inline unsigned long micros(void) { return HAL_Timer_Get_Micro_Seconds(); }
void delay(unsigned long ms);
inline void delayMicroseconds(unsigned int us) { HAL_Delay_Microseconds(us); }
   b82cc:	2002      	movs	r0, #2
   b82ce:	f000 fe7f 	bl	b8fd0 <HAL_Delay_Microseconds>
	delayMicroseconds(2);
	digitalWrite(_pin, HIGH);
   b82d2:	8820      	ldrh	r0, [r4, #0]
   b82d4:	2101      	movs	r1, #1
   b82d6:	f001 ff52 	bl	ba17e <digitalWrite>
   b82da:	2005      	movs	r0, #5
   b82dc:	f000 fe78 	bl	b8fd0 <HAL_Delay_Microseconds>
	delayMicroseconds(5);
	digitalWrite(_pin,LOW);
   b82e0:	8820      	ldrh	r0, [r4, #0]
   b82e2:	2100      	movs	r1, #0
   b82e4:	f001 ff4b 	bl	ba17e <digitalWrite>
	pinMode(_pin,INPUT);
   b82e8:	8820      	ldrh	r0, [r4, #0]
   b82ea:	2100      	movs	r1, #0
   b82ec:	f001 ff36 	bl	ba15c <pinMode>
	long duration;
	duration = pulseIn(_pin,HIGH);
   b82f0:	8820      	ldrh	r0, [r4, #0]
   b82f2:	2101      	movs	r1, #1
   b82f4:	f001 ffa2 	bl	ba23c <pulseIn>
	long RangeInCentimeters;
	RangeInCentimeters = duration/29/2;
	return RangeInCentimeters;
}
   b82f8:	233a      	movs	r3, #58	; 0x3a
   b82fa:	fb90 f0f3 	sdiv	r0, r0, r3
   b82fe:	bd10      	pop	{r4, pc}

000b8300 <_ZN3DHTC1Ehhh>:
 * modified for Spark Core by RussGrue
 * */

#include "Adafruit_DHT_Particle.h"

DHT::DHT(uint8_t pin, uint8_t type, uint8_t count) {
   b8300:	b510      	push	{r4, lr}
	_pin = pin;
	_type = type;
	_count = count;
   b8302:	7203      	strb	r3, [r0, #8]
	firstreading = true;
   b8304:	2301      	movs	r3, #1
	_pin = pin;
   b8306:	7181      	strb	r1, [r0, #6]
	_type = type;
   b8308:	71c2      	strb	r2, [r0, #7]
	firstreading = true;
   b830a:	7403      	strb	r3, [r0, #16]
}
   b830c:	bd10      	pop	{r4, pc}

000b830e <_ZN3DHT5beginEv>:

void DHT::begin(void) {
   b830e:	b510      	push	{r4, lr}
   b8310:	4604      	mov	r4, r0
// set up the pins!
	pinMode(_pin, INPUT);
   b8312:	2100      	movs	r1, #0
   b8314:	7980      	ldrb	r0, [r0, #6]
   b8316:	f001 ff21 	bl	ba15c <pinMode>
	digitalWrite(_pin, HIGH);
   b831a:	79a0      	ldrb	r0, [r4, #6]
   b831c:	2101      	movs	r1, #1
   b831e:	f001 ff2e 	bl	ba17e <digitalWrite>
	_lastreadtime = 0;
   b8322:	2300      	movs	r3, #0
   b8324:	60e3      	str	r3, [r4, #12]
}
   b8326:	bd10      	pop	{r4, pc}

000b8328 <_ZN3DHT4readEv>:
	double Td = (b * tC) / (a - tC);
	return Td;
}


boolean DHT::read(void) {
   b8328:	e92d 43f8 	stmdb	sp!, {r3, r4, r5, r6, r7, r8, r9, lr}
   b832c:	4604      	mov	r4, r0
inline system_tick_t millis(void) { return HAL_Timer_Get_Milli_Seconds(); }
   b832e:	f000 fe57 	bl	b8fe0 <HAL_Timer_Get_Milli_Seconds>
	unsigned long currenttime;

// Check if sensor was read less than two seconds ago and return early
// to use last reading.
	currenttime = millis();
	if (currenttime < _lastreadtime) {
   b8332:	68e3      	ldr	r3, [r4, #12]
   b8334:	4283      	cmp	r3, r0
// ie there was a rollover
		_lastreadtime = 0;
   b8336:	bf84      	itt	hi
   b8338:	2300      	movhi	r3, #0
   b833a:	60e3      	strhi	r3, [r4, #12]
	}
	if (!firstreading && ((currenttime - _lastreadtime) < 2000)) {
   b833c:	7c23      	ldrb	r3, [r4, #16]
   b833e:	b923      	cbnz	r3, b834a <_ZN3DHT4readEv+0x22>
   b8340:	68e3      	ldr	r3, [r4, #12]
   b8342:	1ac0      	subs	r0, r0, r3
   b8344:	f5b0 6ffa 	cmp.w	r0, #2000	; 0x7d0
   b8348:	d367      	bcc.n	b841a <_ZN3DHT4readEv+0xf2>
		return true; // return last correct measurement
//		delay(2000 - (currenttime - _lastreadtime));
	}
	firstreading = false;
   b834a:	2500      	movs	r5, #0
   b834c:	7425      	strb	r5, [r4, #16]
   b834e:	f000 fe47 	bl	b8fe0 <HAL_Timer_Get_Milli_Seconds>
	_lastreadtime = millis();

	data[0] = data[1] = data[2] = data[3] = data[4] = 0;
  
// pull the pin high and wait 250 milliseconds
	digitalWrite(_pin, HIGH);
   b8352:	2101      	movs	r1, #1
	_lastreadtime = millis();
   b8354:	60e0      	str	r0, [r4, #12]
	data[0] = data[1] = data[2] = data[3] = data[4] = 0;
   b8356:	6025      	str	r5, [r4, #0]
	digitalWrite(_pin, HIGH);
   b8358:	79a0      	ldrb	r0, [r4, #6]
	data[0] = data[1] = data[2] = data[3] = data[4] = 0;
   b835a:	7125      	strb	r5, [r4, #4]
	digitalWrite(_pin, HIGH);
   b835c:	f001 ff0f 	bl	ba17e <digitalWrite>
	delay(250);
   b8360:	20fa      	movs	r0, #250	; 0xfa
   b8362:	f001 fb3b 	bl	b99dc <delay>

// now pull it low for ~20 milliseconds
	pinMode(_pin, OUTPUT);
   b8366:	79a0      	ldrb	r0, [r4, #6]
   b8368:	2101      	movs	r1, #1
   b836a:	f001 fef7 	bl	ba15c <pinMode>
	digitalWrite(_pin, LOW);
   b836e:	4629      	mov	r1, r5
   b8370:	79a0      	ldrb	r0, [r4, #6]
   b8372:	f001 ff04 	bl	ba17e <digitalWrite>
	delay(20);
   b8376:	2014      	movs	r0, #20
   b8378:	f001 fb30 	bl	b99dc <delay>
	noInterrupts();
   b837c:	f001 fcea 	bl	b9d54 <_Z12noInterruptsv>
	digitalWrite(_pin, HIGH);
   b8380:	2101      	movs	r1, #1
   b8382:	79a0      	ldrb	r0, [r4, #6]
   b8384:	f001 fefb 	bl	ba17e <digitalWrite>
inline void delayMicroseconds(unsigned int us) { HAL_Delay_Microseconds(us); }
   b8388:	2028      	movs	r0, #40	; 0x28
   b838a:	f000 fe21 	bl	b8fd0 <HAL_Delay_Microseconds>
	delayMicroseconds(40);
	pinMode(_pin, INPUT);
   b838e:	79a0      	ldrb	r0, [r4, #6]
   b8390:	4629      	mov	r1, r5
   b8392:	f001 fee3 	bl	ba15c <pinMode>
	uint8_t j = 0, i;
   b8396:	462e      	mov	r6, r5
	uint8_t laststate = HIGH;
   b8398:	2701      	movs	r7, #1
   b839a:	f04f 0800 	mov.w	r8, #0

// read in timings
	for ( i=0; i< MAXTIMINGS; i++) {
		counter = 0;
		while (digitalRead(_pin) == laststate) {
   b839e:	79a0      	ldrb	r0, [r4, #6]
   b83a0:	f001 ff06 	bl	ba1b0 <digitalRead>
   b83a4:	42b8      	cmp	r0, r7
   b83a6:	fa5f f988 	uxtb.w	r9, r8
   b83aa:	d108      	bne.n	b83be <_ZN3DHT4readEv+0x96>
   b83ac:	2001      	movs	r0, #1
			counter++;
			delayMicroseconds(1);
			if (counter == 255) {
   b83ae:	f108 0801 	add.w	r8, r8, #1
   b83b2:	f000 fe0d 	bl	b8fd0 <HAL_Delay_Microseconds>
   b83b6:	f1b8 0fff 	cmp.w	r8, #255	; 0xff
   b83ba:	d1f0      	bne.n	b839e <_ZN3DHT4readEv+0x76>
   b83bc:	46c1      	mov	r9, r8
				break;
			}
		}
		laststate = digitalRead(_pin);
   b83be:	79a0      	ldrb	r0, [r4, #6]
   b83c0:	f001 fef6 	bl	ba1b0 <digitalRead>

		if (counter == 255) break;
   b83c4:	f1b9 0fff 	cmp.w	r9, #255	; 0xff
		laststate = digitalRead(_pin);
   b83c8:	b2c7      	uxtb	r7, r0
		if (counter == 255) break;
   b83ca:	d014      	beq.n	b83f6 <_ZN3DHT4readEv+0xce>

// ignore first 3 transitions
		if ((i >= 4) && (i%2 == 0)) {
   b83cc:	2d03      	cmp	r5, #3
   b83ce:	d90e      	bls.n	b83ee <_ZN3DHT4readEv+0xc6>
   b83d0:	07ea      	lsls	r2, r5, #31
   b83d2:	d40c      	bmi.n	b83ee <_ZN3DHT4readEv+0xc6>
// shove each bit into the storage bytes
			data[j/8] <<= 1;
   b83d4:	08f2      	lsrs	r2, r6, #3
			if (counter > _count)
				data[j/8] |= 1;
			j++;
   b83d6:	3601      	adds	r6, #1
			data[j/8] <<= 1;
   b83d8:	5ca3      	ldrb	r3, [r4, r2]
   b83da:	005b      	lsls	r3, r3, #1
   b83dc:	b2db      	uxtb	r3, r3
   b83de:	54a3      	strb	r3, [r4, r2]
			if (counter > _count)
   b83e0:	7a21      	ldrb	r1, [r4, #8]
   b83e2:	4549      	cmp	r1, r9
				data[j/8] |= 1;
   b83e4:	bf3c      	itt	cc
   b83e6:	f043 0301 	orrcc.w	r3, r3, #1
   b83ea:	54a3      	strbcc	r3, [r4, r2]
			j++;
   b83ec:	b2f6      	uxtb	r6, r6
	for ( i=0; i< MAXTIMINGS; i++) {
   b83ee:	3501      	adds	r5, #1
   b83f0:	b2ed      	uxtb	r5, r5
   b83f2:	2d55      	cmp	r5, #85	; 0x55
   b83f4:	d1d1      	bne.n	b839a <_ZN3DHT4readEv+0x72>
		}

	}

	interrupts();
   b83f6:	f001 fcaf 	bl	b9d58 <_Z10interruptsv>
	Serial.print(data[4], HEX); Serial.print(" =? ");
	Serial.println(data[0] + data[1] + data[2] + data[3], HEX);
*/

// check we read 40 bits and that the checksum matches
	if ((j >= 40) && 
   b83fa:	2e27      	cmp	r6, #39	; 0x27
   b83fc:	d90f      	bls.n	b841e <_ZN3DHT4readEv+0xf6>
	   (data[4] == ((data[0] + data[1] + data[2] + data[3]) & 0xFF)) ) {
   b83fe:	7863      	ldrb	r3, [r4, #1]
   b8400:	7820      	ldrb	r0, [r4, #0]
   b8402:	4418      	add	r0, r3
   b8404:	78a3      	ldrb	r3, [r4, #2]
   b8406:	4418      	add	r0, r3
   b8408:	78e3      	ldrb	r3, [r4, #3]
   b840a:	4418      	add	r0, r3
   b840c:	7923      	ldrb	r3, [r4, #4]
   b840e:	b2c0      	uxtb	r0, r0
	if ((j >= 40) && 
   b8410:	1ac3      	subs	r3, r0, r3
   b8412:	4258      	negs	r0, r3
   b8414:	4158      	adcs	r0, r3
		return true;
	}
 
	return false;

}
   b8416:	e8bd 83f8 	ldmia.w	sp!, {r3, r4, r5, r6, r7, r8, r9, pc}
		return true; // return last correct measurement
   b841a:	2001      	movs	r0, #1
   b841c:	e7fb      	b.n	b8416 <_ZN3DHT4readEv+0xee>
	return false;
   b841e:	2000      	movs	r0, #0
   b8420:	e7f9      	b.n	b8416 <_ZN3DHT4readEv+0xee>
	...

000b8424 <_ZN3DHT15readTemperatureEv>:
float DHT::readTemperature() {
   b8424:	b510      	push	{r4, lr}
   b8426:	4604      	mov	r4, r0
	if (read()) {
   b8428:	f7ff ff7e 	bl	b8328 <_ZN3DHT4readEv>
   b842c:	b320      	cbz	r0, b8478 <_ZN3DHT15readTemperatureEv+0x54>
		switch (_type) {
   b842e:	79e3      	ldrb	r3, [r4, #7]
   b8430:	2b0b      	cmp	r3, #11
   b8432:	d01b      	beq.n	b846c <_ZN3DHT15readTemperatureEv+0x48>
   b8434:	3b15      	subs	r3, #21
   b8436:	2b01      	cmp	r3, #1
   b8438:	d81e      	bhi.n	b8478 <_ZN3DHT15readTemperatureEv+0x54>
   b843a:	78a3      	ldrb	r3, [r4, #2]
				f += data[3];
   b843c:	eddf 6a10 	vldr	s13, [pc, #64]	; b8480 <_ZN3DHT15readTemperatureEv+0x5c>
				f = data[2] & 0x7F;
   b8440:	f003 027f 	and.w	r2, r3, #127	; 0x7f
   b8444:	ee07 2a10 	vmov	s14, r2
				f += data[3];
   b8448:	78e2      	ldrb	r2, [r4, #3]
   b844a:	ee07 2a90 	vmov	s15, r2
				f = data[2] & 0x7F;
   b844e:	eeb8 7ac7 	vcvt.f32.s32	s14, s14
				f += data[3];
   b8452:	eef8 7ae7 	vcvt.f32.s32	s15, s15
				if (data[2] & 0x80)
   b8456:	061b      	lsls	r3, r3, #24
				f += data[3];
   b8458:	eee7 7a26 	vfma.f32	s15, s14, s13
				f /= 10;
   b845c:	eeb2 7a04 	vmov.f32	s14, #36	; 0x41200000  10.0
   b8460:	ee87 0a87 	vdiv.f32	s0, s15, s14
				if (data[2] & 0x80)
   b8464:	d507      	bpl.n	b8476 <_ZN3DHT15readTemperatureEv+0x52>
					f *= -1;
   b8466:	eeb1 0a40 	vneg.f32	s0, s0
   b846a:	e004      	b.n	b8476 <_ZN3DHT15readTemperatureEv+0x52>
				f = data[2];
   b846c:	78a3      	ldrb	r3, [r4, #2]
   b846e:	ee00 3a10 	vmov	s0, r3
   b8472:	eeb8 0a40 	vcvt.f32.u32	s0, s0
}
   b8476:	bd10      	pop	{r4, pc}
		switch (_type) {
   b8478:	ed9f 0a02 	vldr	s0, [pc, #8]	; b8484 <_ZN3DHT15readTemperatureEv+0x60>
   b847c:	e7fb      	b.n	b8476 <_ZN3DHT15readTemperatureEv+0x52>
   b847e:	bf00      	nop
   b8480:	43800000 	.word	0x43800000
   b8484:	7fc00000 	.word	0x7fc00000

000b8488 <_ZN3DHT14getTempCelciusEv>:
	return readTemperature();
   b8488:	f7ff bfcc 	b.w	b8424 <_ZN3DHT15readTemperatureEv>

000b848c <_ZN16Adafruit_SSD1306D1Ev>:
}

/*!
    @brief  Destructor for Adafruit_SSD1306 object.
*/
Adafruit_SSD1306::~Adafruit_SSD1306(void) {
   b848c:	b510      	push	{r4, lr}
   b848e:	4b04      	ldr	r3, [pc, #16]	; (b84a0 <_ZN16Adafruit_SSD1306D1Ev+0x14>)
   b8490:	6003      	str	r3, [r0, #0]
   b8492:	4604      	mov	r4, r0
  if(buffer) {
   b8494:	6ac0      	ldr	r0, [r0, #44]	; 0x2c
   b8496:	b108      	cbz	r0, b849c <_ZN16Adafruit_SSD1306D1Ev+0x10>
    free(buffer);
   b8498:	f000 ff96 	bl	b93c8 <free>
    buffer = NULL;
  }
}
   b849c:	4620      	mov	r0, r4
   b849e:	bd10      	pop	{r4, pc}
   b84a0:	000bc94c 	.word	0x000bc94c

000b84a4 <_ZN16Adafruit_SSD1306D0Ev>:
Adafruit_SSD1306::~Adafruit_SSD1306(void) {
   b84a4:	b510      	push	{r4, lr}
   b84a6:	4604      	mov	r4, r0
}
   b84a8:	f7ff fff0 	bl	b848c <_ZN16Adafruit_SSD1306D1Ev>
   b84ac:	4620      	mov	r0, r4
   b84ae:	2150      	movs	r1, #80	; 0x50
   b84b0:	f7fb fdf3 	bl	b409a <_ZdlPvj>
   b84b4:	4620      	mov	r0, r4
   b84b6:	bd10      	pop	{r4, pc}

000b84b8 <_ZN16Adafruit_SSD13069drawPixelEsst>:
    @note   Changes buffer contents only, no immediate effect on display.
            Follow up with a call to display(), or with other graphics
            commands as needed by one's own application.
*/
void Adafruit_SSD1306::drawPixel(int16_t x, int16_t y, uint16_t color) {
  if((x >= 0) && (x < width()) && (y >= 0) && (y < height())) {
   b84b8:	2900      	cmp	r1, #0
void Adafruit_SSD1306::drawPixel(int16_t x, int16_t y, uint16_t color) {
   b84ba:	b510      	push	{r4, lr}
  if((x >= 0) && (x < width()) && (y >= 0) && (y < height())) {
   b84bc:	db4b      	blt.n	b8556 <_ZN16Adafruit_SSD13069drawPixelEsst+0x9e>
   b84be:	f9b0 400c 	ldrsh.w	r4, [r0, #12]
   b84c2:	428c      	cmp	r4, r1
   b84c4:	dd47      	ble.n	b8556 <_ZN16Adafruit_SSD13069drawPixelEsst+0x9e>
   b84c6:	2a00      	cmp	r2, #0
   b84c8:	db45      	blt.n	b8556 <_ZN16Adafruit_SSD13069drawPixelEsst+0x9e>
   b84ca:	f9b0 400e 	ldrsh.w	r4, [r0, #14]
   b84ce:	4294      	cmp	r4, r2
   b84d0:	dd41      	ble.n	b8556 <_ZN16Adafruit_SSD13069drawPixelEsst+0x9e>
  /*!
    @brief      Get rotation setting for display
    @returns    0 thru 3 corresponding to 4 cardinal rotations
  */
  /************************************************************************/
  uint8_t getRotation(void) const { return rotation; }
   b84d2:	7e84      	ldrb	r4, [r0, #26]
    // Pixel is in-bounds. Rotate coordinates if needed.
    switch(getRotation()) {
   b84d4:	2c02      	cmp	r4, #2
   b84d6:	d01f      	beq.n	b8518 <_ZN16Adafruit_SSD13069drawPixelEsst+0x60>
   b84d8:	2c03      	cmp	r4, #3
   b84da:	d026      	beq.n	b852a <_ZN16Adafruit_SSD13069drawPixelEsst+0x72>
   b84dc:	2c01      	cmp	r4, #1
   b84de:	d104      	bne.n	b84ea <_ZN16Adafruit_SSD13069drawPixelEsst+0x32>
     case 1:
      ssd1306_swap(x, y);
      x = WIDTH - x - 1;
   b84e0:	8904      	ldrh	r4, [r0, #8]
   b84e2:	43d2      	mvns	r2, r2
   b84e4:	4414      	add	r4, r2
      break;
   b84e6:	460a      	mov	r2, r1
      x = WIDTH - x - 1;
   b84e8:	b221      	sxth	r1, r4
     case 3:
      ssd1306_swap(x, y);
      y = HEIGHT - y - 1;
      break;
    }
    switch(color) {
   b84ea:	2b01      	cmp	r3, #1
   b84ec:	d023      	beq.n	b8536 <_ZN16Adafruit_SSD13069drawPixelEsst+0x7e>
   b84ee:	2b02      	cmp	r3, #2
   b84f0:	d032      	beq.n	b8558 <_ZN16Adafruit_SSD13069drawPixelEsst+0xa0>
   b84f2:	bb83      	cbnz	r3, b8556 <_ZN16Adafruit_SSD13069drawPixelEsst+0x9e>
     case WHITE:   buffer[x + (y/8)*WIDTH] |=  (1 << (y&7)); break;
     case BLACK:   buffer[x + (y/8)*WIDTH] &= ~(1 << (y&7)); break;
   b84f4:	2a00      	cmp	r2, #0
   b84f6:	4613      	mov	r3, r2
   b84f8:	8904      	ldrh	r4, [r0, #8]
   b84fa:	6ac0      	ldr	r0, [r0, #44]	; 0x2c
   b84fc:	bfb8      	it	lt
   b84fe:	1dd3      	addlt	r3, r2, #7
   b8500:	10db      	asrs	r3, r3, #3
   b8502:	fb13 1104 	smlabb	r1, r3, r4, r1
   b8506:	f002 0207 	and.w	r2, r2, #7
   b850a:	2301      	movs	r3, #1
   b850c:	4093      	lsls	r3, r2
   b850e:	5c42      	ldrb	r2, [r0, r1]
   b8510:	ea22 0203 	bic.w	r2, r2, r3
     case INVERSE: buffer[x + (y/8)*WIDTH] ^=  (1 << (y&7)); break;
   b8514:	5442      	strb	r2, [r0, r1]
    }
  }
}
   b8516:	e01e      	b.n	b8556 <_ZN16Adafruit_SSD13069drawPixelEsst+0x9e>
      x = WIDTH  - x - 1;
   b8518:	8904      	ldrh	r4, [r0, #8]
   b851a:	3c01      	subs	r4, #1
   b851c:	1a61      	subs	r1, r4, r1
      y = HEIGHT - y - 1;
   b851e:	8944      	ldrh	r4, [r0, #10]
   b8520:	43d2      	mvns	r2, r2
   b8522:	4422      	add	r2, r4
      x = WIDTH  - x - 1;
   b8524:	b209      	sxth	r1, r1
      y = HEIGHT - y - 1;
   b8526:	b212      	sxth	r2, r2
      break;
   b8528:	e7df      	b.n	b84ea <_ZN16Adafruit_SSD13069drawPixelEsst+0x32>
      y = HEIGHT - y - 1;
   b852a:	8944      	ldrh	r4, [r0, #10]
   b852c:	3c01      	subs	r4, #1
   b852e:	1a64      	subs	r4, r4, r1
      break;
   b8530:	4611      	mov	r1, r2
      y = HEIGHT - y - 1;
   b8532:	b222      	sxth	r2, r4
      break;
   b8534:	e7d9      	b.n	b84ea <_ZN16Adafruit_SSD13069drawPixelEsst+0x32>
     case WHITE:   buffer[x + (y/8)*WIDTH] |=  (1 << (y&7)); break;
   b8536:	2a00      	cmp	r2, #0
   b8538:	8904      	ldrh	r4, [r0, #8]
   b853a:	4613      	mov	r3, r2
   b853c:	bfb8      	it	lt
   b853e:	1dd3      	addlt	r3, r2, #7
   b8540:	10db      	asrs	r3, r3, #3
   b8542:	fb13 1104 	smlabb	r1, r3, r4, r1
   b8546:	6ac3      	ldr	r3, [r0, #44]	; 0x2c
   b8548:	f002 0007 	and.w	r0, r2, #7
   b854c:	2201      	movs	r2, #1
   b854e:	4082      	lsls	r2, r0
   b8550:	5c58      	ldrb	r0, [r3, r1]
   b8552:	4302      	orrs	r2, r0
   b8554:	545a      	strb	r2, [r3, r1]
}
   b8556:	bd10      	pop	{r4, pc}
     case INVERSE: buffer[x + (y/8)*WIDTH] ^=  (1 << (y&7)); break;
   b8558:	2a00      	cmp	r2, #0
   b855a:	4613      	mov	r3, r2
   b855c:	8904      	ldrh	r4, [r0, #8]
   b855e:	6ac0      	ldr	r0, [r0, #44]	; 0x2c
   b8560:	bfb8      	it	lt
   b8562:	1dd3      	addlt	r3, r2, #7
   b8564:	10db      	asrs	r3, r3, #3
   b8566:	fb13 1104 	smlabb	r1, r3, r4, r1
   b856a:	f002 0207 	and.w	r2, r2, #7
   b856e:	2301      	movs	r3, #1
   b8570:	fa03 f202 	lsl.w	r2, r3, r2
   b8574:	5c43      	ldrb	r3, [r0, r1]
   b8576:	405a      	eors	r2, r3
   b8578:	e7cc      	b.n	b8514 <_ZN16Adafruit_SSD13069drawPixelEsst+0x5c>
	...

000b857c <_ZN16Adafruit_SSD1306C1Ea>:
Adafruit_SSD1306::Adafruit_SSD1306(int8_t rst_pin) :
   b857c:	b570      	push	{r4, r5, r6, lr}
  rstPin(rst_pin) {
   b857e:	2240      	movs	r2, #64	; 0x40
Adafruit_SSD1306::Adafruit_SSD1306(int8_t rst_pin) :
   b8580:	4604      	mov	r4, r0
   b8582:	460e      	mov	r6, r1
  rstPin(rst_pin) {
   b8584:	2180      	movs	r1, #128	; 0x80
   b8586:	f7fe fe1d 	bl	b71c4 <_ZN12Adafruit_GFXC1Ess>
   b858a:	2500      	movs	r5, #0
   b858c:	4b0d      	ldr	r3, [pc, #52]	; (b85c4 <_ZN16Adafruit_SSD1306C1Ea+0x48>)
   b858e:	6023      	str	r3, [r4, #0]
   b8590:	6265      	str	r5, [r4, #36]	; 0x24
  Adafruit_GFX(SSD1306_LCDWIDTH, SSD1306_LCDHEIGHT), spi(NULL), wire(&Wire),
   b8592:	f001 fec3 	bl	ba31c <_Z19__fetch_global_Wirev>
  rstPin(rst_pin) {
   b8596:	23ff      	movs	r3, #255	; 0xff
   b8598:	f884 3033 	strb.w	r3, [r4, #51]	; 0x33
   b859c:	f884 3036 	strb.w	r3, [r4, #54]	; 0x36
  {
   b85a0:	4b09      	ldr	r3, [pc, #36]	; (b85c8 <_ZN16Adafruit_SSD1306C1Ea+0x4c>)
   b85a2:	63a3      	str	r3, [r4, #56]	; 0x38
   b85a4:	f64f 72ff 	movw	r2, #65535	; 0xffff
   b85a8:	2301      	movs	r3, #1
   b85aa:	e9c4 050a 	strd	r0, r5, [r4, #40]	; 0x28
   b85ae:	86a2      	strh	r2, [r4, #52]	; 0x34
   b85b0:	f884 6037 	strb.w	r6, [r4, #55]	; 0x37
   b85b4:	f884 303c 	strb.w	r3, [r4, #60]	; 0x3c
   b85b8:	6425      	str	r5, [r4, #64]	; 0x40
   b85ba:	f8a4 5044 	strh.w	r5, [r4, #68]	; 0x44
}
   b85be:	4620      	mov	r0, r4
   b85c0:	bd70      	pop	{r4, r5, r6, pc}
   b85c2:	bf00      	nop
   b85c4:	000bc94c 	.word	0x000bc94c
   b85c8:	000bc358 	.word	0x000bc358

000b85cc <_ZN16Adafruit_SSD130616ssd1306_command1Eh>:
void Adafruit_SSD1306::ssd1306_command1(uint8_t c) {
   b85cc:	b5f8      	push	{r3, r4, r5, r6, r7, lr}
   b85ce:	4604      	mov	r4, r0
  if(wire) { // I2C
   b85d0:	6a80      	ldr	r0, [r0, #40]	; 0x28
void Adafruit_SSD1306::ssd1306_command1(uint8_t c) {
   b85d2:	460d      	mov	r5, r1
  if(wire) { // I2C
   b85d4:	b190      	cbz	r0, b85fc <_ZN16Adafruit_SSD130616ssd1306_command1Eh+0x30>
    wire->beginTransmission(i2caddr);
   b85d6:	f994 1030 	ldrsb.w	r1, [r4, #48]	; 0x30
   b85da:	f001 fc87 	bl	b9eec <_ZN7TwoWire17beginTransmissionEi>
    WIRE_WRITE((uint8_t)0x00); // Co = 0, D/C = 0
   b85de:	6aa0      	ldr	r0, [r4, #40]	; 0x28
   b85e0:	6803      	ldr	r3, [r0, #0]
   b85e2:	2100      	movs	r1, #0
   b85e4:	689b      	ldr	r3, [r3, #8]
   b85e6:	4798      	blx	r3
    WIRE_WRITE(c);
   b85e8:	6aa0      	ldr	r0, [r4, #40]	; 0x28
   b85ea:	6803      	ldr	r3, [r0, #0]
   b85ec:	4629      	mov	r1, r5
   b85ee:	689b      	ldr	r3, [r3, #8]
   b85f0:	4798      	blx	r3
    wire->endTransmission();
   b85f2:	6aa0      	ldr	r0, [r4, #40]	; 0x28
}
   b85f4:	e8bd 40f8 	ldmia.w	sp!, {r3, r4, r5, r6, r7, lr}
    wire->endTransmission();
   b85f8:	f001 bc7f 	b.w	b9efa <_ZN7TwoWire15endTransmissionEv>
    SSD1306_MODE_COMMAND
   b85fc:	f994 3035 	ldrsb.w	r3, [r4, #53]	; 0x35
   b8600:	4601      	mov	r1, r0
   b8602:	b298      	uxth	r0, r3
   b8604:	f001 fdbb 	bl	ba17e <digitalWrite>
  if(spi) {
   b8608:	6a60      	ldr	r0, [r4, #36]	; 0x24
   b860a:	b120      	cbz	r0, b8616 <_ZN16Adafruit_SSD130616ssd1306_command1Eh+0x4a>
    (void)spi->transfer(d);
   b860c:	4629      	mov	r1, r5
}
   b860e:	e8bd 40f8 	ldmia.w	sp!, {r3, r4, r5, r6, r7, lr}
    (void)spi->transfer(d);
   b8612:	f000 bffb 	b.w	b960c <_ZN8SPIClass8transferEh>
   b8616:	2608      	movs	r6, #8
    for(uint8_t bit = 0x80; bit; bit >>= 1) {
   b8618:	2780      	movs	r7, #128	; 0x80
      digitalWrite(mosiPin, d & bit);
   b861a:	f994 0033 	ldrsb.w	r0, [r4, #51]	; 0x33
   b861e:	ea05 0107 	and.w	r1, r5, r7
   b8622:	b280      	uxth	r0, r0
   b8624:	f001 fdab 	bl	ba17e <digitalWrite>
      digitalWrite(clkPin , HIGH);
   b8628:	f994 0034 	ldrsb.w	r0, [r4, #52]	; 0x34
   b862c:	2101      	movs	r1, #1
   b862e:	b280      	uxth	r0, r0
   b8630:	f001 fda5 	bl	ba17e <digitalWrite>
      digitalWrite(clkPin , LOW);
   b8634:	f994 0034 	ldrsb.w	r0, [r4, #52]	; 0x34
   b8638:	2100      	movs	r1, #0
   b863a:	b280      	uxth	r0, r0
   b863c:	f001 fd9f 	bl	ba17e <digitalWrite>
    for(uint8_t bit = 0x80; bit; bit >>= 1) {
   b8640:	3e01      	subs	r6, #1
   b8642:	ea4f 0757 	mov.w	r7, r7, lsr #1
   b8646:	d1e8      	bne.n	b861a <_ZN16Adafruit_SSD130616ssd1306_command1Eh+0x4e>
}
   b8648:	bdf8      	pop	{r3, r4, r5, r6, r7, pc}

000b864a <_ZN16Adafruit_SSD130613invertDisplayEb>:
            display() function -- buffer contents are not changed, rather a
            different pixel mode of the display hardware is used. When
            enabled, drawing BLACK (value 0) pixels will actually draw white,
            WHITE (value 1) will draw black.
*/
void Adafruit_SSD1306::invertDisplay(boolean i) {
   b864a:	b538      	push	{r3, r4, r5, lr}
   b864c:	4604      	mov	r4, r0
  TRANSACTION_START
   b864e:	6a80      	ldr	r0, [r0, #40]	; 0x28
void Adafruit_SSD1306::invertDisplay(boolean i) {
   b8650:	460d      	mov	r5, r1
  TRANSACTION_START
   b8652:	b180      	cbz	r0, b8676 <_ZN16Adafruit_SSD130613invertDisplayEb+0x2c>

public:
  TwoWire(hal_i2c_interface_t i2c, const hal_i2c_config_t& config);
  virtual ~TwoWire() {};
  inline void setClock(uint32_t speed) {
	  setSpeed(speed);
   b8654:	6ca1      	ldr	r1, [r4, #72]	; 0x48
   b8656:	f001 fc3b 	bl	b9ed0 <_ZN7TwoWire8setSpeedEm>
  ssd1306_command1(i ? SSD1306_INVERTDISPLAY : SSD1306_NORMALDISPLAY);
   b865a:	2d00      	cmp	r5, #0
   b865c:	4620      	mov	r0, r4
   b865e:	bf14      	ite	ne
   b8660:	21a7      	movne	r1, #167	; 0xa7
   b8662:	21a6      	moveq	r1, #166	; 0xa6
   b8664:	f7ff ffb2 	bl	b85cc <_ZN16Adafruit_SSD130616ssd1306_command1Eh>
  TRANSACTION_END
   b8668:	6aa0      	ldr	r0, [r4, #40]	; 0x28
   b866a:	b188      	cbz	r0, b8690 <_ZN16Adafruit_SSD130613invertDisplayEb+0x46>
   b866c:	6ce1      	ldr	r1, [r4, #76]	; 0x4c
}
   b866e:	e8bd 4038 	ldmia.w	sp!, {r3, r4, r5, lr}
   b8672:	f001 bc2d 	b.w	b9ed0 <_ZN7TwoWire8setSpeedEm>
  TRANSACTION_START
   b8676:	6a60      	ldr	r0, [r4, #36]	; 0x24
   b8678:	b118      	cbz	r0, b8682 <_ZN16Adafruit_SSD130613invertDisplayEb+0x38>
   b867a:	f104 0138 	add.w	r1, r4, #56	; 0x38
   b867e:	f000 ff57 	bl	b9530 <_ZN8SPIClass16beginTransactionERKN8particle11SPISettingsE>
   b8682:	f994 0036 	ldrsb.w	r0, [r4, #54]	; 0x36
   b8686:	2100      	movs	r1, #0
   b8688:	b280      	uxth	r0, r0
   b868a:	f001 fd78 	bl	ba17e <digitalWrite>
   b868e:	e7e4      	b.n	b865a <_ZN16Adafruit_SSD130613invertDisplayEb+0x10>
  TRANSACTION_END
   b8690:	f994 0036 	ldrsb.w	r0, [r4, #54]	; 0x36
   b8694:	2101      	movs	r1, #1
   b8696:	b280      	uxth	r0, r0
   b8698:	f001 fd71 	bl	ba17e <digitalWrite>
   b869c:	6a60      	ldr	r0, [r4, #36]	; 0x24
   b869e:	b118      	cbz	r0, b86a8 <_ZN16Adafruit_SSD130613invertDisplayEb+0x5e>
}
   b86a0:	e8bd 4038 	ldmia.w	sp!, {r3, r4, r5, lr}
  TRANSACTION_END
   b86a4:	f000 bf2a 	b.w	b94fc <_ZN8SPIClass14endTransactionEv>
}
   b86a8:	bd38      	pop	{r3, r4, r5, pc}

000b86aa <_ZN16Adafruit_SSD130619ssd1306_commandListEPKhh>:
void Adafruit_SSD1306::ssd1306_commandList(const uint8_t *c, uint8_t n) {
   b86aa:	e92d 43f8 	stmdb	sp!, {r3, r4, r5, r6, r7, r8, r9, lr}
   b86ae:	4604      	mov	r4, r0
  if(wire) { // I2C
   b86b0:	6a80      	ldr	r0, [r0, #40]	; 0x28
void Adafruit_SSD1306::ssd1306_commandList(const uint8_t *c, uint8_t n) {
   b86b2:	460d      	mov	r5, r1
  if(wire) { // I2C
   b86b4:	188f      	adds	r7, r1, r2
   b86b6:	b340      	cbz	r0, b870a <_ZN16Adafruit_SSD130619ssd1306_commandListEPKhh+0x60>
    wire->beginTransmission(i2caddr);
   b86b8:	f994 1030 	ldrsb.w	r1, [r4, #48]	; 0x30
   b86bc:	f001 fc16 	bl	b9eec <_ZN7TwoWire17beginTransmissionEi>
    WIRE_WRITE((uint8_t)0x00); // Co = 0, D/C = 0
   b86c0:	6aa0      	ldr	r0, [r4, #40]	; 0x28
   b86c2:	6803      	ldr	r3, [r0, #0]
   b86c4:	2100      	movs	r1, #0
   b86c6:	689b      	ldr	r3, [r3, #8]
   b86c8:	4798      	blx	r3
    uint8_t bytesOut = 1;
   b86ca:	2601      	movs	r6, #1
    while(n--) {
   b86cc:	42af      	cmp	r7, r5
        wire->endTransmission();
   b86ce:	6aa0      	ldr	r0, [r4, #40]	; 0x28
    while(n--) {
   b86d0:	d017      	beq.n	b8702 <_ZN16Adafruit_SSD130619ssd1306_commandListEPKhh+0x58>
      if(bytesOut >= WIRE_MAX) {
   b86d2:	2e1f      	cmp	r6, #31
   b86d4:	d90c      	bls.n	b86f0 <_ZN16Adafruit_SSD130619ssd1306_commandListEPKhh+0x46>
        wire->endTransmission();
   b86d6:	f001 fc10 	bl	b9efa <_ZN7TwoWire15endTransmissionEv>
        wire->beginTransmission(i2caddr);
   b86da:	f994 1030 	ldrsb.w	r1, [r4, #48]	; 0x30
   b86de:	6aa0      	ldr	r0, [r4, #40]	; 0x28
   b86e0:	f001 fc04 	bl	b9eec <_ZN7TwoWire17beginTransmissionEi>
        WIRE_WRITE((uint8_t)0x00); // Co = 0, D/C = 0
   b86e4:	6aa0      	ldr	r0, [r4, #40]	; 0x28
   b86e6:	6803      	ldr	r3, [r0, #0]
   b86e8:	2100      	movs	r1, #0
   b86ea:	689b      	ldr	r3, [r3, #8]
   b86ec:	4798      	blx	r3
        bytesOut = 1;
   b86ee:	2601      	movs	r6, #1
      WIRE_WRITE(pgm_read_byte(c++));
   b86f0:	6aa0      	ldr	r0, [r4, #40]	; 0x28
   b86f2:	f815 1b01 	ldrb.w	r1, [r5], #1
   b86f6:	6803      	ldr	r3, [r0, #0]
      bytesOut++;
   b86f8:	3601      	adds	r6, #1
      WIRE_WRITE(pgm_read_byte(c++));
   b86fa:	689b      	ldr	r3, [r3, #8]
   b86fc:	4798      	blx	r3
      bytesOut++;
   b86fe:	b2f6      	uxtb	r6, r6
    while(n--) {
   b8700:	e7e4      	b.n	b86cc <_ZN16Adafruit_SSD130619ssd1306_commandListEPKhh+0x22>
}
   b8702:	e8bd 43f8 	ldmia.w	sp!, {r3, r4, r5, r6, r7, r8, r9, lr}
    wire->endTransmission();
   b8706:	f001 bbf8 	b.w	b9efa <_ZN7TwoWire15endTransmissionEv>
    SSD1306_MODE_COMMAND
   b870a:	f994 3035 	ldrsb.w	r3, [r4, #53]	; 0x35
   b870e:	4601      	mov	r1, r0
   b8710:	b298      	uxth	r0, r3
   b8712:	f001 fd34 	bl	ba17e <digitalWrite>
    while(n--) SPIwrite(pgm_read_byte(c++));
   b8716:	42bd      	cmp	r5, r7
   b8718:	d022      	beq.n	b8760 <_ZN16Adafruit_SSD130619ssd1306_commandListEPKhh+0xb6>
  if(spi) {
   b871a:	6a60      	ldr	r0, [r4, #36]	; 0x24
    while(n--) SPIwrite(pgm_read_byte(c++));
   b871c:	f815 9b01 	ldrb.w	r9, [r5], #1
  if(spi) {
   b8720:	b118      	cbz	r0, b872a <_ZN16Adafruit_SSD130619ssd1306_commandListEPKhh+0x80>
    (void)spi->transfer(d);
   b8722:	4649      	mov	r1, r9
   b8724:	f000 ff72 	bl	b960c <_ZN8SPIClass8transferEh>
   b8728:	e7f5      	b.n	b8716 <_ZN16Adafruit_SSD130619ssd1306_commandListEPKhh+0x6c>
   b872a:	2608      	movs	r6, #8
    for(uint8_t bit = 0x80; bit; bit >>= 1) {
   b872c:	f04f 0880 	mov.w	r8, #128	; 0x80
      digitalWrite(mosiPin, d & bit);
   b8730:	f994 0033 	ldrsb.w	r0, [r4, #51]	; 0x33
   b8734:	ea09 0108 	and.w	r1, r9, r8
   b8738:	b280      	uxth	r0, r0
   b873a:	f001 fd20 	bl	ba17e <digitalWrite>
      digitalWrite(clkPin , HIGH);
   b873e:	f994 0034 	ldrsb.w	r0, [r4, #52]	; 0x34
   b8742:	2101      	movs	r1, #1
   b8744:	b280      	uxth	r0, r0
   b8746:	f001 fd1a 	bl	ba17e <digitalWrite>
      digitalWrite(clkPin , LOW);
   b874a:	f994 0034 	ldrsb.w	r0, [r4, #52]	; 0x34
   b874e:	2100      	movs	r1, #0
   b8750:	b280      	uxth	r0, r0
   b8752:	f001 fd14 	bl	ba17e <digitalWrite>
    for(uint8_t bit = 0x80; bit; bit >>= 1) {
   b8756:	3e01      	subs	r6, #1
   b8758:	ea4f 0858 	mov.w	r8, r8, lsr #1
   b875c:	d1e8      	bne.n	b8730 <_ZN16Adafruit_SSD130619ssd1306_commandListEPKhh+0x86>
   b875e:	e7da      	b.n	b8716 <_ZN16Adafruit_SSD130619ssd1306_commandListEPKhh+0x6c>
}
   b8760:	e8bd 83f8 	ldmia.w	sp!, {r3, r4, r5, r6, r7, r8, r9, pc}

000b8764 <_ZN16Adafruit_SSD130612clearDisplayEv>:
  memset(buffer, 0, WIDTH * ((HEIGHT + 7) / 8));
   b8764:	f9b0 300a 	ldrsh.w	r3, [r0, #10]
   b8768:	1dda      	adds	r2, r3, #7
   b876a:	bf48      	it	mi
   b876c:	f103 020e 	addmi.w	r2, r3, #14
   b8770:	f9b0 3008 	ldrsh.w	r3, [r0, #8]
   b8774:	6ac0      	ldr	r0, [r0, #44]	; 0x2c
   b8776:	10d2      	asrs	r2, r2, #3
   b8778:	435a      	muls	r2, r3
   b877a:	2100      	movs	r1, #0
   b877c:	f002 ba2e 	b.w	babdc <memset>

000b8780 <_ZN16Adafruit_SSD13065beginEhhbb>:
  boolean periphBegin) {
   b8780:	e92d 41ff 	stmdb	sp!, {r0, r1, r2, r3, r4, r5, r6, r7, r8, lr}
   b8784:	461e      	mov	r6, r3
  if((!buffer) && !(buffer = (uint8_t *)malloc(WIDTH * ((HEIGHT + 7) / 8))))
   b8786:	6ac3      	ldr	r3, [r0, #44]	; 0x2c
  boolean periphBegin) {
   b8788:	f89d 8028 	ldrb.w	r8, [sp, #40]	; 0x28
   b878c:	4604      	mov	r4, r0
   b878e:	460f      	mov	r7, r1
   b8790:	4615      	mov	r5, r2
  if((!buffer) && !(buffer = (uint8_t *)malloc(WIDTH * ((HEIGHT + 7) / 8))))
   b8792:	b1d3      	cbz	r3, b87ca <_ZN16Adafruit_SSD13065beginEhhbb+0x4a>
  clearDisplay();
   b8794:	4620      	mov	r0, r4
   b8796:	f7ff ffe5 	bl	b8764 <_ZN16Adafruit_SSD130612clearDisplayEv>
  if(HEIGHT > 32) {
   b879a:	f9b4 200a 	ldrsh.w	r2, [r4, #10]
   b879e:	2a20      	cmp	r2, #32
   b87a0:	dc25      	bgt.n	b87ee <_ZN16Adafruit_SSD13065beginEhhbb+0x6e>
    drawBitmap((WIDTH - splash2_width) / 2, (HEIGHT - splash2_height) / 2,
   b87a2:	f9b4 1008 	ldrsh.w	r1, [r4, #8]
   b87a6:	2320      	movs	r3, #32
   b87a8:	3a20      	subs	r2, #32
   b87aa:	3973      	subs	r1, #115	; 0x73
   b87ac:	2001      	movs	r0, #1
   b87ae:	e9cd 3001 	strd	r3, r0, [sp, #4]
   b87b2:	eb02 72d2 	add.w	r2, r2, r2, lsr #31
   b87b6:	2373      	movs	r3, #115	; 0x73
   b87b8:	eb01 71d1 	add.w	r1, r1, r1, lsr #31
   b87bc:	9300      	str	r3, [sp, #0]
   b87be:	f342 024f 	sbfx	r2, r2, #1, #16
   b87c2:	4b85      	ldr	r3, [pc, #532]	; (b89d8 <_ZN16Adafruit_SSD13065beginEhhbb+0x258>)
   b87c4:	f341 014f 	sbfx	r1, r1, #1, #16
   b87c8:	e01b      	b.n	b8802 <_ZN16Adafruit_SSD13065beginEhhbb+0x82>
  if((!buffer) && !(buffer = (uint8_t *)malloc(WIDTH * ((HEIGHT + 7) / 8))))
   b87ca:	f9b0 300a 	ldrsh.w	r3, [r0, #10]
   b87ce:	1dd8      	adds	r0, r3, #7
   b87d0:	bf48      	it	mi
   b87d2:	f103 000e 	addmi.w	r0, r3, #14
   b87d6:	f9b4 3008 	ldrsh.w	r3, [r4, #8]
   b87da:	10c0      	asrs	r0, r0, #3
   b87dc:	4358      	muls	r0, r3
   b87de:	f000 fdeb 	bl	b93b8 <malloc>
   b87e2:	62e0      	str	r0, [r4, #44]	; 0x2c
   b87e4:	2800      	cmp	r0, #0
   b87e6:	d1d5      	bne.n	b8794 <_ZN16Adafruit_SSD13065beginEhhbb+0x14>
}
   b87e8:	b004      	add	sp, #16
   b87ea:	e8bd 81f0 	ldmia.w	sp!, {r4, r5, r6, r7, r8, pc}
    drawBitmap(0,0, sucreLogo_data, sucreLogo_width, sucreLogo_height, 1);
   b87ee:	2340      	movs	r3, #64	; 0x40
   b87f0:	f04f 0c01 	mov.w	ip, #1
   b87f4:	e9cd 3c01 	strd	r3, ip, [sp, #4]
   b87f8:	2380      	movs	r3, #128	; 0x80
   b87fa:	9300      	str	r3, [sp, #0]
   b87fc:	2200      	movs	r2, #0
   b87fe:	4b77      	ldr	r3, [pc, #476]	; (b89dc <_ZN16Adafruit_SSD13065beginEhhbb+0x25c>)
   b8800:	4611      	mov	r1, r2
    drawBitmap((WIDTH - splash2_width) / 2, (HEIGHT - splash2_height) / 2,
   b8802:	4620      	mov	r0, r4
   b8804:	f7fe fea6 	bl	b7554 <_ZN12Adafruit_GFX10drawBitmapEssPKhsst>
  if(wire) { // Using I2C
   b8808:	6aa0      	ldr	r0, [r4, #40]	; 0x28
  vccstate = vcs;
   b880a:	f884 7031 	strb.w	r7, [r4, #49]	; 0x31
  if(wire) { // Using I2C
   b880e:	2800      	cmp	r0, #0
   b8810:	d078      	beq.n	b8904 <_ZN16Adafruit_SSD13065beginEhhbb+0x184>
    i2caddr = addr ? addr : ((HEIGHT == 32) ? 0x3C : 0x3D);
   b8812:	2d00      	cmp	r5, #0
   b8814:	d174      	bne.n	b8900 <_ZN16Adafruit_SSD13065beginEhhbb+0x180>
   b8816:	f9b4 300a 	ldrsh.w	r3, [r4, #10]
   b881a:	2b20      	cmp	r3, #32
   b881c:	bf0c      	ite	eq
   b881e:	253c      	moveq	r5, #60	; 0x3c
   b8820:	253d      	movne	r5, #61	; 0x3d
   b8822:	f884 5030 	strb.w	r5, [r4, #48]	; 0x30
    if(periphBegin) wire->begin();
   b8826:	f1b8 0f00 	cmp.w	r8, #0
   b882a:	d001      	beq.n	b8830 <_ZN16Adafruit_SSD13065beginEhhbb+0xb0>
   b882c:	f001 fb54 	bl	b9ed8 <_ZN7TwoWire5beginEv>
  if(reset && (rstPin >= 0)) {
   b8830:	b1fe      	cbz	r6, b8872 <_ZN16Adafruit_SSD13065beginEhhbb+0xf2>
   b8832:	f994 0037 	ldrsb.w	r0, [r4, #55]	; 0x37
   b8836:	2800      	cmp	r0, #0
   b8838:	db1b      	blt.n	b8872 <_ZN16Adafruit_SSD13065beginEhhbb+0xf2>
    pinMode(     rstPin, OUTPUT);
   b883a:	2101      	movs	r1, #1
   b883c:	b280      	uxth	r0, r0
   b883e:	f001 fc8d 	bl	ba15c <pinMode>
    digitalWrite(rstPin, HIGH);
   b8842:	f994 0037 	ldrsb.w	r0, [r4, #55]	; 0x37
   b8846:	2101      	movs	r1, #1
   b8848:	b280      	uxth	r0, r0
   b884a:	f001 fc98 	bl	ba17e <digitalWrite>
    delay(1);                   // VDD goes high at start, pause for 1 ms
   b884e:	2001      	movs	r0, #1
   b8850:	f001 f8c4 	bl	b99dc <delay>
    digitalWrite(rstPin, LOW);  // Bring reset low
   b8854:	f994 0037 	ldrsb.w	r0, [r4, #55]	; 0x37
   b8858:	2100      	movs	r1, #0
   b885a:	b280      	uxth	r0, r0
   b885c:	f001 fc8f 	bl	ba17e <digitalWrite>
    delay(10);                  // Wait 10 ms
   b8860:	200a      	movs	r0, #10
   b8862:	f001 f8bb 	bl	b99dc <delay>
    digitalWrite(rstPin, HIGH); // Bring out of reset
   b8866:	f994 0037 	ldrsb.w	r0, [r4, #55]	; 0x37
   b886a:	2101      	movs	r1, #1
   b886c:	b280      	uxth	r0, r0
   b886e:	f001 fc86 	bl	ba17e <digitalWrite>
  TRANSACTION_START
   b8872:	6aa0      	ldr	r0, [r4, #40]	; 0x28
   b8874:	2800      	cmp	r0, #0
   b8876:	d074      	beq.n	b8962 <_ZN16Adafruit_SSD13065beginEhhbb+0x1e2>
   b8878:	6ca1      	ldr	r1, [r4, #72]	; 0x48
   b887a:	f001 fb29 	bl	b9ed0 <_ZN7TwoWire8setSpeedEm>
  ssd1306_commandList(init1, sizeof(init1));
   b887e:	2204      	movs	r2, #4
   b8880:	4957      	ldr	r1, [pc, #348]	; (b89e0 <_ZN16Adafruit_SSD13065beginEhhbb+0x260>)
   b8882:	4620      	mov	r0, r4
   b8884:	f7ff ff11 	bl	b86aa <_ZN16Adafruit_SSD130619ssd1306_commandListEPKhh>
  ssd1306_command1(HEIGHT - 1);
   b8888:	8961      	ldrh	r1, [r4, #10]
   b888a:	3901      	subs	r1, #1
   b888c:	b2c9      	uxtb	r1, r1
   b888e:	4620      	mov	r0, r4
   b8890:	f7ff fe9c 	bl	b85cc <_ZN16Adafruit_SSD130616ssd1306_command1Eh>
  ssd1306_commandList(init2, sizeof(init2));
   b8894:	4953      	ldr	r1, [pc, #332]	; (b89e4 <_ZN16Adafruit_SSD13065beginEhhbb+0x264>)
   b8896:	2204      	movs	r2, #4
   b8898:	4620      	mov	r0, r4
   b889a:	f7ff ff06 	bl	b86aa <_ZN16Adafruit_SSD130619ssd1306_commandListEPKhh>
  ssd1306_command1((vccstate == SSD1306_EXTERNALVCC) ? 0x10 : 0x14);
   b889e:	f994 3031 	ldrsb.w	r3, [r4, #49]	; 0x31
   b88a2:	2b01      	cmp	r3, #1
   b88a4:	bf0c      	ite	eq
   b88a6:	2110      	moveq	r1, #16
   b88a8:	2114      	movne	r1, #20
   b88aa:	4620      	mov	r0, r4
   b88ac:	f7ff fe8e 	bl	b85cc <_ZN16Adafruit_SSD130616ssd1306_command1Eh>
  ssd1306_commandList(init3, sizeof(init3));
   b88b0:	2204      	movs	r2, #4
   b88b2:	494d      	ldr	r1, [pc, #308]	; (b89e8 <_ZN16Adafruit_SSD13065beginEhhbb+0x268>)
   b88b4:	4620      	mov	r0, r4
   b88b6:	f7ff fef8 	bl	b86aa <_ZN16Adafruit_SSD130619ssd1306_commandListEPKhh>
  if((WIDTH == 128) && (HEIGHT == 32)) {
   b88ba:	68a3      	ldr	r3, [r4, #8]
   b88bc:	4a4b      	ldr	r2, [pc, #300]	; (b89ec <_ZN16Adafruit_SSD13065beginEhhbb+0x26c>)
   b88be:	4293      	cmp	r3, r2
   b88c0:	d15c      	bne.n	b897c <_ZN16Adafruit_SSD13065beginEhhbb+0x1fc>
    ssd1306_commandList(init4a, sizeof(init4a));
   b88c2:	494b      	ldr	r1, [pc, #300]	; (b89f0 <_ZN16Adafruit_SSD13065beginEhhbb+0x270>)
   b88c4:	2204      	movs	r2, #4
   b88c6:	4620      	mov	r0, r4
   b88c8:	f7ff feef 	bl	b86aa <_ZN16Adafruit_SSD130619ssd1306_commandListEPKhh>
  ssd1306_command1(SSD1306_SETPRECHARGE); // 0xd9
   b88cc:	21d9      	movs	r1, #217	; 0xd9
   b88ce:	4620      	mov	r0, r4
   b88d0:	f7ff fe7c 	bl	b85cc <_ZN16Adafruit_SSD130616ssd1306_command1Eh>
  ssd1306_command1((vccstate == SSD1306_EXTERNALVCC) ? 0x22 : 0xF1);
   b88d4:	f994 3031 	ldrsb.w	r3, [r4, #49]	; 0x31
   b88d8:	2b01      	cmp	r3, #1
   b88da:	bf0c      	ite	eq
   b88dc:	2122      	moveq	r1, #34	; 0x22
   b88de:	21f1      	movne	r1, #241	; 0xf1
   b88e0:	4620      	mov	r0, r4
   b88e2:	f7ff fe73 	bl	b85cc <_ZN16Adafruit_SSD130616ssd1306_command1Eh>
  ssd1306_commandList(init5, sizeof(init5));
   b88e6:	4620      	mov	r0, r4
   b88e8:	4942      	ldr	r1, [pc, #264]	; (b89f4 <_ZN16Adafruit_SSD13065beginEhhbb+0x274>)
   b88ea:	2206      	movs	r2, #6
   b88ec:	f7ff fedd 	bl	b86aa <_ZN16Adafruit_SSD130619ssd1306_commandListEPKhh>
  TRANSACTION_END
   b88f0:	6aa0      	ldr	r0, [r4, #40]	; 0x28
   b88f2:	2800      	cmp	r0, #0
   b88f4:	d063      	beq.n	b89be <_ZN16Adafruit_SSD13065beginEhhbb+0x23e>
   b88f6:	6ce1      	ldr	r1, [r4, #76]	; 0x4c
   b88f8:	f001 faea 	bl	b9ed0 <_ZN7TwoWire8setSpeedEm>
  return true; // Success
   b88fc:	2001      	movs	r0, #1
   b88fe:	e773      	b.n	b87e8 <_ZN16Adafruit_SSD13065beginEhhbb+0x68>
    i2caddr = addr ? addr : ((HEIGHT == 32) ? 0x3C : 0x3D);
   b8900:	b26d      	sxtb	r5, r5
   b8902:	e78e      	b.n	b8822 <_ZN16Adafruit_SSD13065beginEhhbb+0xa2>
    pinMode(dcPin, OUTPUT); // Set data/command pin as output
   b8904:	f994 0035 	ldrsb.w	r0, [r4, #53]	; 0x35
   b8908:	2101      	movs	r1, #1
   b890a:	b280      	uxth	r0, r0
   b890c:	f001 fc26 	bl	ba15c <pinMode>
    pinMode(csPin, OUTPUT); // Same for chip select
   b8910:	f994 0036 	ldrsb.w	r0, [r4, #54]	; 0x36
   b8914:	2101      	movs	r1, #1
   b8916:	b280      	uxth	r0, r0
   b8918:	f001 fc20 	bl	ba15c <pinMode>
    SSD1306_DESELECT
   b891c:	f994 0036 	ldrsb.w	r0, [r4, #54]	; 0x36
   b8920:	2101      	movs	r1, #1
   b8922:	b280      	uxth	r0, r0
   b8924:	f001 fc2b 	bl	ba17e <digitalWrite>
    if(spi) { // Hardware SPI
   b8928:	6a65      	ldr	r5, [r4, #36]	; 0x24
   b892a:	b13d      	cbz	r5, b893c <_ZN16Adafruit_SSD13065beginEhhbb+0x1bc>
      if(periphBegin) spi->begin();
   b892c:	f1b8 0f00 	cmp.w	r8, #0
   b8930:	f43f af7e 	beq.w	b8830 <_ZN16Adafruit_SSD13065beginEhhbb+0xb0>
   b8934:	4628      	mov	r0, r5
   b8936:	f000 fdcd 	bl	b94d4 <_ZN8SPIClass5beginEv>
   b893a:	e779      	b.n	b8830 <_ZN16Adafruit_SSD13065beginEhhbb+0xb0>
      pinMode(mosiPin, OUTPUT); // MOSI and SCLK outputs
   b893c:	f994 0033 	ldrsb.w	r0, [r4, #51]	; 0x33
   b8940:	2101      	movs	r1, #1
   b8942:	b280      	uxth	r0, r0
   b8944:	f001 fc0a 	bl	ba15c <pinMode>
      pinMode(clkPin , OUTPUT);
   b8948:	f994 0034 	ldrsb.w	r0, [r4, #52]	; 0x34
   b894c:	2101      	movs	r1, #1
   b894e:	b280      	uxth	r0, r0
   b8950:	f001 fc04 	bl	ba15c <pinMode>
      digitalWrite(clkPin, LOW); // Clock low
   b8954:	f994 0034 	ldrsb.w	r0, [r4, #52]	; 0x34
   b8958:	4629      	mov	r1, r5
   b895a:	b280      	uxth	r0, r0
   b895c:	f001 fc0f 	bl	ba17e <digitalWrite>
   b8960:	e766      	b.n	b8830 <_ZN16Adafruit_SSD13065beginEhhbb+0xb0>
  TRANSACTION_START
   b8962:	6a60      	ldr	r0, [r4, #36]	; 0x24
   b8964:	b118      	cbz	r0, b896e <_ZN16Adafruit_SSD13065beginEhhbb+0x1ee>
   b8966:	f104 0138 	add.w	r1, r4, #56	; 0x38
   b896a:	f000 fde1 	bl	b9530 <_ZN8SPIClass16beginTransactionERKN8particle11SPISettingsE>
   b896e:	f994 0036 	ldrsb.w	r0, [r4, #54]	; 0x36
   b8972:	2100      	movs	r1, #0
   b8974:	b280      	uxth	r0, r0
   b8976:	f001 fc02 	bl	ba17e <digitalWrite>
   b897a:	e780      	b.n	b887e <_ZN16Adafruit_SSD13065beginEhhbb+0xfe>
  } else if((WIDTH == 128) && (HEIGHT == 64)) {
   b897c:	4a1e      	ldr	r2, [pc, #120]	; (b89f8 <_ZN16Adafruit_SSD13065beginEhhbb+0x278>)
   b897e:	4293      	cmp	r3, r2
   b8980:	d10e      	bne.n	b89a0 <_ZN16Adafruit_SSD13065beginEhhbb+0x220>
    ssd1306_commandList(init4b, sizeof(init4b));
   b8982:	491e      	ldr	r1, [pc, #120]	; (b89fc <_ZN16Adafruit_SSD13065beginEhhbb+0x27c>)
   b8984:	2203      	movs	r2, #3
   b8986:	4620      	mov	r0, r4
   b8988:	f7ff fe8f 	bl	b86aa <_ZN16Adafruit_SSD130619ssd1306_commandListEPKhh>
    ssd1306_command1((vccstate == SSD1306_EXTERNALVCC) ? 0x9F : 0xCF);
   b898c:	f994 3031 	ldrsb.w	r3, [r4, #49]	; 0x31
   b8990:	2b01      	cmp	r3, #1
   b8992:	bf0c      	ite	eq
   b8994:	219f      	moveq	r1, #159	; 0x9f
   b8996:	21cf      	movne	r1, #207	; 0xcf
    ssd1306_command1((vccstate == SSD1306_EXTERNALVCC) ? 0x10 : 0xAF);
   b8998:	4620      	mov	r0, r4
   b899a:	f7ff fe17 	bl	b85cc <_ZN16Adafruit_SSD130616ssd1306_command1Eh>
   b899e:	e795      	b.n	b88cc <_ZN16Adafruit_SSD13065beginEhhbb+0x14c>
  } else if((WIDTH == 96) && (HEIGHT == 16)) {
   b89a0:	4a17      	ldr	r2, [pc, #92]	; (b8a00 <_ZN16Adafruit_SSD13065beginEhhbb+0x280>)
   b89a2:	4293      	cmp	r3, r2
   b89a4:	d192      	bne.n	b88cc <_ZN16Adafruit_SSD13065beginEhhbb+0x14c>
    ssd1306_commandList(init4c, sizeof(init4c));
   b89a6:	4917      	ldr	r1, [pc, #92]	; (b8a04 <_ZN16Adafruit_SSD13065beginEhhbb+0x284>)
   b89a8:	2203      	movs	r2, #3
   b89aa:	4620      	mov	r0, r4
   b89ac:	f7ff fe7d 	bl	b86aa <_ZN16Adafruit_SSD130619ssd1306_commandListEPKhh>
    ssd1306_command1((vccstate == SSD1306_EXTERNALVCC) ? 0x10 : 0xAF);
   b89b0:	f994 3031 	ldrsb.w	r3, [r4, #49]	; 0x31
   b89b4:	2b01      	cmp	r3, #1
   b89b6:	bf0c      	ite	eq
   b89b8:	2110      	moveq	r1, #16
   b89ba:	21af      	movne	r1, #175	; 0xaf
   b89bc:	e7ec      	b.n	b8998 <_ZN16Adafruit_SSD13065beginEhhbb+0x218>
  TRANSACTION_END
   b89be:	f994 0036 	ldrsb.w	r0, [r4, #54]	; 0x36
   b89c2:	2101      	movs	r1, #1
   b89c4:	b280      	uxth	r0, r0
   b89c6:	f001 fbda 	bl	ba17e <digitalWrite>
   b89ca:	6a60      	ldr	r0, [r4, #36]	; 0x24
   b89cc:	2800      	cmp	r0, #0
   b89ce:	d095      	beq.n	b88fc <_ZN16Adafruit_SSD13065beginEhhbb+0x17c>
   b89d0:	f000 fd94 	bl	b94fc <_ZN8SPIClass14endTransactionEv>
   b89d4:	e792      	b.n	b88fc <_ZN16Adafruit_SSD13065beginEhhbb+0x17c>
   b89d6:	bf00      	nop
   b89d8:	000bc364 	.word	0x000bc364
   b89dc:	000bc544 	.word	0x000bc544
   b89e0:	000bc9ac 	.word	0x000bc9ac
   b89e4:	000bc9b0 	.word	0x000bc9b0
   b89e8:	000bc9b4 	.word	0x000bc9b4
   b89ec:	00200080 	.word	0x00200080
   b89f0:	000bc9be 	.word	0x000bc9be
   b89f4:	000bc9b8 	.word	0x000bc9b8
   b89f8:	00400080 	.word	0x00400080
   b89fc:	000bc9c2 	.word	0x000bc9c2
   b8a00:	00100060 	.word	0x00100060
   b8a04:	000bc9c5 	.word	0x000bc9c5

000b8a08 <_ZN16Adafruit_SSD130621drawFastHLineInternalEssst>:
  int16_t x, int16_t y, int16_t w, uint16_t color) {
   b8a08:	b570      	push	{r4, r5, r6, lr}
  if((y >= 0) && (y < HEIGHT)) { // Y coord in bounds?
   b8a0a:	2a00      	cmp	r2, #0
  int16_t x, int16_t y, int16_t w, uint16_t color) {
   b8a0c:	f8bd 5010 	ldrh.w	r5, [sp, #16]
  if((y >= 0) && (y < HEIGHT)) { // Y coord in bounds?
   b8a10:	db3d      	blt.n	b8a8e <_ZN16Adafruit_SSD130621drawFastHLineInternalEssst+0x86>
   b8a12:	f9b0 400a 	ldrsh.w	r4, [r0, #10]
   b8a16:	4294      	cmp	r4, r2
   b8a18:	dd39      	ble.n	b8a8e <_ZN16Adafruit_SSD130621drawFastHLineInternalEssst+0x86>
    if(x < 0) { // Clip left
   b8a1a:	2900      	cmp	r1, #0
      w += x;
   b8a1c:	bfbe      	ittt	lt
   b8a1e:	185b      	addlt	r3, r3, r1
   b8a20:	b21b      	sxthlt	r3, r3
      x  = 0;
   b8a22:	2100      	movlt	r1, #0
    if((x + w) > WIDTH) { // Clip right
   b8a24:	f9b0 4008 	ldrsh.w	r4, [r0, #8]
   b8a28:	18ce      	adds	r6, r1, r3
   b8a2a:	42a6      	cmp	r6, r4
      w = (WIDTH - x);
   b8a2c:	bfc4      	itt	gt
   b8a2e:	1a63      	subgt	r3, r4, r1
   b8a30:	b21b      	sxthgt	r3, r3
    if(w > 0) { // Proceed only if width is positive
   b8a32:	2b00      	cmp	r3, #0
   b8a34:	dd2b      	ble.n	b8a8e <_ZN16Adafruit_SSD130621drawFastHLineInternalEssst+0x86>
      uint8_t *pBuf = &buffer[(y / 8) * WIDTH + x],
   b8a36:	6ac0      	ldr	r0, [r0, #44]	; 0x2c
   b8a38:	10d6      	asrs	r6, r2, #3
   b8a3a:	fb14 1106 	smlabb	r1, r4, r6, r1
   b8a3e:	4401      	add	r1, r0
               mask = 1 << (y & 7);
   b8a40:	f002 0007 	and.w	r0, r2, #7
   b8a44:	2201      	movs	r2, #1
   b8a46:	4082      	lsls	r2, r0
      switch(color) {
   b8a48:	2d01      	cmp	r5, #1
               mask = 1 << (y & 7);
   b8a4a:	b2d2      	uxtb	r2, r2
      switch(color) {
   b8a4c:	d016      	beq.n	b8a7c <_ZN16Adafruit_SSD130621drawFastHLineInternalEssst+0x74>
   b8a4e:	2d02      	cmp	r5, #2
   b8a50:	d00b      	beq.n	b8a6a <_ZN16Adafruit_SSD130621drawFastHLineInternalEssst+0x62>
   b8a52:	b9e5      	cbnz	r5, b8a8e <_ZN16Adafruit_SSD130621drawFastHLineInternalEssst+0x86>
       case BLACK: mask = ~mask; while(w--) { *pBuf++ &= mask; }; break;
   b8a54:	43d2      	mvns	r2, r2
   b8a56:	b2d2      	uxtb	r2, r2
   b8a58:	440b      	add	r3, r1
   b8a5a:	4299      	cmp	r1, r3
   b8a5c:	d017      	beq.n	b8a8e <_ZN16Adafruit_SSD130621drawFastHLineInternalEssst+0x86>
   b8a5e:	f811 0b01 	ldrb.w	r0, [r1], #1
   b8a62:	4010      	ands	r0, r2
   b8a64:	f801 0c01 	strb.w	r0, [r1, #-1]
   b8a68:	e7f7      	b.n	b8a5a <_ZN16Adafruit_SSD130621drawFastHLineInternalEssst+0x52>
   b8a6a:	440b      	add	r3, r1
       case INVERSE:             while(w--) { *pBuf++ ^= mask; }; break;
   b8a6c:	4299      	cmp	r1, r3
   b8a6e:	d00e      	beq.n	b8a8e <_ZN16Adafruit_SSD130621drawFastHLineInternalEssst+0x86>
   b8a70:	f811 0b01 	ldrb.w	r0, [r1], #1
   b8a74:	4050      	eors	r0, r2
   b8a76:	f801 0c01 	strb.w	r0, [r1, #-1]
   b8a7a:	e7f7      	b.n	b8a6c <_ZN16Adafruit_SSD130621drawFastHLineInternalEssst+0x64>
   b8a7c:	440b      	add	r3, r1
       case WHITE:               while(w--) { *pBuf++ |= mask; }; break;
   b8a7e:	4299      	cmp	r1, r3
   b8a80:	d005      	beq.n	b8a8e <_ZN16Adafruit_SSD130621drawFastHLineInternalEssst+0x86>
   b8a82:	f811 0b01 	ldrb.w	r0, [r1], #1
   b8a86:	4310      	orrs	r0, r2
   b8a88:	f801 0c01 	strb.w	r0, [r1, #-1]
   b8a8c:	e7f7      	b.n	b8a7e <_ZN16Adafruit_SSD130621drawFastHLineInternalEssst+0x76>
}
   b8a8e:	bd70      	pop	{r4, r5, r6, pc}

000b8a90 <_ZN16Adafruit_SSD130621drawFastVLineInternalEssst>:
  int16_t x, int16_t __y, int16_t __h, uint16_t color) {
   b8a90:	b5f0      	push	{r4, r5, r6, r7, lr}
  if((x >= 0) && (x < WIDTH)) { // X coord in bounds?
   b8a92:	2900      	cmp	r1, #0
  int16_t x, int16_t __y, int16_t __h, uint16_t color) {
   b8a94:	f8bd 5014 	ldrh.w	r5, [sp, #20]
  if((x >= 0) && (x < WIDTH)) { // X coord in bounds?
   b8a98:	db76      	blt.n	b8b88 <_ZN16Adafruit_SSD130621drawFastVLineInternalEssst+0xf8>
   b8a9a:	f9b0 6008 	ldrsh.w	r6, [r0, #8]
   b8a9e:	42b1      	cmp	r1, r6
   b8aa0:	da72      	bge.n	b8b88 <_ZN16Adafruit_SSD130621drawFastVLineInternalEssst+0xf8>
    if(__y < 0) { // Clip top
   b8aa2:	2a00      	cmp	r2, #0
      __h += __y;
   b8aa4:	bfbe      	ittt	lt
   b8aa6:	189b      	addlt	r3, r3, r2
   b8aa8:	b21b      	sxthlt	r3, r3
      __y = 0;
   b8aaa:	2200      	movlt	r2, #0
    if((__y + __h) > HEIGHT) { // Clip bottom
   b8aac:	f9b0 400a 	ldrsh.w	r4, [r0, #10]
   b8ab0:	18d7      	adds	r7, r2, r3
   b8ab2:	42a7      	cmp	r7, r4
      __h = (HEIGHT - __y);
   b8ab4:	bfc4      	itt	gt
   b8ab6:	1aa3      	subgt	r3, r4, r2
   b8ab8:	b21b      	sxthgt	r3, r3
    if(__h > 0) { // Proceed only if height is now positive
   b8aba:	2b00      	cmp	r3, #0
   b8abc:	dd64      	ble.n	b8b88 <_ZN16Adafruit_SSD130621drawFastVLineInternalEssst+0xf8>
      uint8_t *pBuf = &buffer[(y / 8) * WIDTH + x];
   b8abe:	f3c2 04c4 	ubfx	r4, r2, #3, #5
   b8ac2:	6ac7      	ldr	r7, [r0, #44]	; 0x2c
   b8ac4:	fb16 1604 	smlabb	r6, r6, r4, r1
      if(mod) {
   b8ac8:	f012 0207 	ands.w	r2, r2, #7
      uint8_t  y = __y, h = __h;
   b8acc:	b2db      	uxtb	r3, r3
      uint8_t *pBuf = &buffer[(y / 8) * WIDTH + x];
   b8ace:	eb07 0406 	add.w	r4, r7, r6
      if(mod) {
   b8ad2:	d023      	beq.n	b8b1c <_ZN16Adafruit_SSD130621drawFastVLineInternalEssst+0x8c>
        mod = 8 - mod;
   b8ad4:	f1c2 0208 	rsb	r2, r2, #8
   b8ad8:	b2d2      	uxtb	r2, r2
        uint8_t mask = pgm_read_byte(&premask[mod]);
   b8ada:	492d      	ldr	r1, [pc, #180]	; (b8b90 <_ZN16Adafruit_SSD130621drawFastVLineInternalEssst+0x100>)
        if(h < mod) mask &= (0XFF >> (mod - h));
   b8adc:	4293      	cmp	r3, r2
   b8ade:	bf3c      	itt	cc
   b8ae0:	f04f 0cff 	movcc.w	ip, #255	; 0xff
   b8ae4:	eba2 0e03 	subcc.w	lr, r2, r3
        uint8_t mask = pgm_read_byte(&premask[mod]);
   b8ae8:	5c89      	ldrb	r1, [r1, r2]
        if(h < mod) mask &= (0XFF >> (mod - h));
   b8aea:	bf3c      	itt	cc
   b8aec:	fa4c fc0e 	asrcc.w	ip, ip, lr
   b8af0:	ea0c 0101 	andcc.w	r1, ip, r1
        switch(color) {
   b8af4:	2d01      	cmp	r5, #1
   b8af6:	d007      	beq.n	b8b08 <_ZN16Adafruit_SSD130621drawFastVLineInternalEssst+0x78>
   b8af8:	2d02      	cmp	r5, #2
   b8afa:	d02e      	beq.n	b8b5a <_ZN16Adafruit_SSD130621drawFastVLineInternalEssst+0xca>
   b8afc:	b94d      	cbnz	r5, b8b12 <_ZN16Adafruit_SSD130621drawFastVLineInternalEssst+0x82>
         case BLACK:   *pBuf &= ~mask; break;
   b8afe:	f817 c006 	ldrb.w	ip, [r7, r6]
   b8b02:	ea2c 0101 	bic.w	r1, ip, r1
   b8b06:	e003      	b.n	b8b10 <_ZN16Adafruit_SSD130621drawFastVLineInternalEssst+0x80>
         case WHITE:   *pBuf |=  mask; break;
   b8b08:	f817 c006 	ldrb.w	ip, [r7, r6]
   b8b0c:	ea41 010c 	orr.w	r1, r1, ip
         case INVERSE: *pBuf ^=  mask; break;
   b8b10:	55b9      	strb	r1, [r7, r6]
      if(h >= mod) { // More to go?
   b8b12:	4293      	cmp	r3, r2
   b8b14:	d338      	bcc.n	b8b88 <_ZN16Adafruit_SSD130621drawFastVLineInternalEssst+0xf8>
        pBuf += WIDTH;
   b8b16:	f9b0 1008 	ldrsh.w	r1, [r0, #8]
   b8b1a:	440c      	add	r4, r1
        h -= mod;
   b8b1c:	1a9a      	subs	r2, r3, r2
   b8b1e:	b2d2      	uxtb	r2, r2
        if(h >= 8) {
   b8b20:	2a07      	cmp	r2, #7
   b8b22:	d90e      	bls.n	b8b42 <_ZN16Adafruit_SSD130621drawFastVLineInternalEssst+0xb2>
          if(color == INVERSE) {
   b8b24:	2d02      	cmp	r5, #2
   b8b26:	d11d      	bne.n	b8b64 <_ZN16Adafruit_SSD130621drawFastVLineInternalEssst+0xd4>
   b8b28:	4613      	mov	r3, r2
              *pBuf ^= 0xFF;  // Invert byte
   b8b2a:	7821      	ldrb	r1, [r4, #0]
   b8b2c:	43c9      	mvns	r1, r1
   b8b2e:	7021      	strb	r1, [r4, #0]
              h     -= 8;     // Subtract 8 rows from height
   b8b30:	3b08      	subs	r3, #8
              pBuf  += WIDTH; // Advance pointer 8 rows
   b8b32:	f9b0 1008 	ldrsh.w	r1, [r0, #8]
              h     -= 8;     // Subtract 8 rows from height
   b8b36:	b2db      	uxtb	r3, r3
            } while(h >= 8);
   b8b38:	2b07      	cmp	r3, #7
              pBuf  += WIDTH; // Advance pointer 8 rows
   b8b3a:	440c      	add	r4, r1
            } while(h >= 8);
   b8b3c:	d8f5      	bhi.n	b8b2a <_ZN16Adafruit_SSD130621drawFastVLineInternalEssst+0x9a>
              h    -= 8;      // Subtract 8 rows from height
   b8b3e:	f002 0207 	and.w	r2, r2, #7
        if(h) { // Do the final partial byte, if necessary
   b8b42:	b30a      	cbz	r2, b8b88 <_ZN16Adafruit_SSD130621drawFastVLineInternalEssst+0xf8>
          uint8_t mask = pgm_read_byte(&postmask[mod]);
   b8b44:	4b13      	ldr	r3, [pc, #76]	; (b8b94 <_ZN16Adafruit_SSD130621drawFastVLineInternalEssst+0x104>)
          switch(color) {
   b8b46:	2d01      	cmp	r5, #1
          uint8_t mask = pgm_read_byte(&postmask[mod]);
   b8b48:	5c9b      	ldrb	r3, [r3, r2]
          switch(color) {
   b8b4a:	d01a      	beq.n	b8b82 <_ZN16Adafruit_SSD130621drawFastVLineInternalEssst+0xf2>
   b8b4c:	2d02      	cmp	r5, #2
   b8b4e:	d01c      	beq.n	b8b8a <_ZN16Adafruit_SSD130621drawFastVLineInternalEssst+0xfa>
   b8b50:	b9d5      	cbnz	r5, b8b88 <_ZN16Adafruit_SSD130621drawFastVLineInternalEssst+0xf8>
           case BLACK:   *pBuf &= ~mask; break;
   b8b52:	7822      	ldrb	r2, [r4, #0]
   b8b54:	ea22 0303 	bic.w	r3, r2, r3
   b8b58:	e015      	b.n	b8b86 <_ZN16Adafruit_SSD130621drawFastVLineInternalEssst+0xf6>
         case INVERSE: *pBuf ^=  mask; break;
   b8b5a:	f817 c006 	ldrb.w	ip, [r7, r6]
   b8b5e:	ea81 010c 	eor.w	r1, r1, ip
   b8b62:	e7d5      	b.n	b8b10 <_ZN16Adafruit_SSD130621drawFastVLineInternalEssst+0x80>
            uint8_t val = (color != BLACK) ? 255 : 0;
   b8b64:	1e29      	subs	r1, r5, #0
   b8b66:	bf18      	it	ne
   b8b68:	2101      	movne	r1, #1
   b8b6a:	4249      	negs	r1, r1
   b8b6c:	b2c9      	uxtb	r1, r1
   b8b6e:	4613      	mov	r3, r2
              *pBuf = val;    // Set byte
   b8b70:	7021      	strb	r1, [r4, #0]
              h    -= 8;      // Subtract 8 rows from height
   b8b72:	3b08      	subs	r3, #8
              pBuf += WIDTH;  // Advance pointer 8 rows
   b8b74:	f9b0 6008 	ldrsh.w	r6, [r0, #8]
              h    -= 8;      // Subtract 8 rows from height
   b8b78:	b2db      	uxtb	r3, r3
            } while(h >= 8);
   b8b7a:	2b07      	cmp	r3, #7
              pBuf += WIDTH;  // Advance pointer 8 rows
   b8b7c:	4434      	add	r4, r6
            } while(h >= 8);
   b8b7e:	d8f7      	bhi.n	b8b70 <_ZN16Adafruit_SSD130621drawFastVLineInternalEssst+0xe0>
   b8b80:	e7dd      	b.n	b8b3e <_ZN16Adafruit_SSD130621drawFastVLineInternalEssst+0xae>
           case WHITE:   *pBuf |=  mask; break;
   b8b82:	7822      	ldrb	r2, [r4, #0]
   b8b84:	4313      	orrs	r3, r2
           case INVERSE: *pBuf ^=  mask; break;
   b8b86:	7023      	strb	r3, [r4, #0]
}
   b8b88:	bdf0      	pop	{r4, r5, r6, r7, pc}
           case INVERSE: *pBuf ^=  mask; break;
   b8b8a:	7822      	ldrb	r2, [r4, #0]
   b8b8c:	4053      	eors	r3, r2
   b8b8e:	e7fa      	b.n	b8b86 <_ZN16Adafruit_SSD130621drawFastVLineInternalEssst+0xf6>
   b8b90:	000bc99c 	.word	0x000bc99c
   b8b94:	000bc9a4 	.word	0x000bc9a4

000b8b98 <_ZN16Adafruit_SSD130613drawFastHLineEssst>:
  int16_t x, int16_t y, int16_t w, uint16_t color) {
   b8b98:	b470      	push	{r4, r5, r6}
   b8b9a:	4614      	mov	r4, r2
  switch(rotation) {
   b8b9c:	7e82      	ldrb	r2, [r0, #26]
  int16_t x, int16_t y, int16_t w, uint16_t color) {
   b8b9e:	f8bd 600c 	ldrh.w	r6, [sp, #12]
  switch(rotation) {
   b8ba2:	2a02      	cmp	r2, #2
   b8ba4:	d00d      	beq.n	b8bc2 <_ZN16Adafruit_SSD130613drawFastHLineEssst+0x2a>
   b8ba6:	2a03      	cmp	r2, #3
   b8ba8:	d018      	beq.n	b8bdc <_ZN16Adafruit_SSD130613drawFastHLineEssst+0x44>
   b8baa:	2a01      	cmp	r2, #1
   b8bac:	d111      	bne.n	b8bd2 <_ZN16Adafruit_SSD130613drawFastHLineEssst+0x3a>
    x = WIDTH - x - 1;
   b8bae:	8902      	ldrh	r2, [r0, #8]
   b8bb0:	43e4      	mvns	r4, r4
   b8bb2:	4414      	add	r4, r2
   b8bb4:	b224      	sxth	r4, r4
  if(bSwap) drawFastVLineInternal(x, y, w, color);
   b8bb6:	9603      	str	r6, [sp, #12]
   b8bb8:	460a      	mov	r2, r1
   b8bba:	4621      	mov	r1, r4
}
   b8bbc:	bc70      	pop	{r4, r5, r6}
  if(bSwap) drawFastVLineInternal(x, y, w, color);
   b8bbe:	f7ff bf67 	b.w	b8a90 <_ZN16Adafruit_SSD130621drawFastVLineInternalEssst>
    y  = HEIGHT - y - 1;
   b8bc2:	8942      	ldrh	r2, [r0, #10]
    x -= (w-1);
   b8bc4:	8905      	ldrh	r5, [r0, #8]
    y  = HEIGHT - y - 1;
   b8bc6:	43e4      	mvns	r4, r4
    x -= (w-1);
   b8bc8:	4419      	add	r1, r3
    y  = HEIGHT - y - 1;
   b8bca:	4414      	add	r4, r2
    x -= (w-1);
   b8bcc:	1a69      	subs	r1, r5, r1
    y  = HEIGHT - y - 1;
   b8bce:	b224      	sxth	r4, r4
    x -= (w-1);
   b8bd0:	b209      	sxth	r1, r1
  else      drawFastHLineInternal(x, y, w, color);
   b8bd2:	9603      	str	r6, [sp, #12]
   b8bd4:	4622      	mov	r2, r4
}
   b8bd6:	bc70      	pop	{r4, r5, r6}
  else      drawFastHLineInternal(x, y, w, color);
   b8bd8:	f7ff bf16 	b.w	b8a08 <_ZN16Adafruit_SSD130621drawFastHLineInternalEssst>
    y -= (w-1);
   b8bdc:	8945      	ldrh	r5, [r0, #10]
   b8bde:	4419      	add	r1, r3
   b8be0:	1a69      	subs	r1, r5, r1
   b8be2:	b209      	sxth	r1, r1
    break;
   b8be4:	e7e7      	b.n	b8bb6 <_ZN16Adafruit_SSD130613drawFastHLineEssst+0x1e>

000b8be6 <_ZN16Adafruit_SSD130613drawFastVLineEssst>:
  int16_t x, int16_t y, int16_t h, uint16_t color) {
   b8be6:	b430      	push	{r4, r5}
   b8be8:	4614      	mov	r4, r2
  switch(rotation) {
   b8bea:	7e82      	ldrb	r2, [r0, #26]
  int16_t x, int16_t y, int16_t h, uint16_t color) {
   b8bec:	f8bd 5008 	ldrh.w	r5, [sp, #8]
  switch(rotation) {
   b8bf0:	2a02      	cmp	r2, #2
   b8bf2:	d00d      	beq.n	b8c10 <_ZN16Adafruit_SSD130613drawFastVLineEssst+0x2a>
   b8bf4:	2a03      	cmp	r2, #3
   b8bf6:	d018      	beq.n	b8c2a <_ZN16Adafruit_SSD130613drawFastVLineEssst+0x44>
   b8bf8:	2a01      	cmp	r2, #1
   b8bfa:	d111      	bne.n	b8c20 <_ZN16Adafruit_SSD130613drawFastVLineEssst+0x3a>
    x -= (h-1);
   b8bfc:	18e2      	adds	r2, r4, r3
   b8bfe:	8904      	ldrh	r4, [r0, #8]
   b8c00:	1aa4      	subs	r4, r4, r2
   b8c02:	b224      	sxth	r4, r4
  if(bSwap) drawFastHLineInternal(x, y, h, color);
   b8c04:	9502      	str	r5, [sp, #8]
   b8c06:	460a      	mov	r2, r1
   b8c08:	4621      	mov	r1, r4
}
   b8c0a:	bc30      	pop	{r4, r5}
  if(bSwap) drawFastHLineInternal(x, y, h, color);
   b8c0c:	f7ff befc 	b.w	b8a08 <_ZN16Adafruit_SSD130621drawFastHLineInternalEssst>
    x = WIDTH  - x - 1;
   b8c10:	8902      	ldrh	r2, [r0, #8]
   b8c12:	43c9      	mvns	r1, r1
   b8c14:	4411      	add	r1, r2
    y -= (h-1);
   b8c16:	18e2      	adds	r2, r4, r3
   b8c18:	8944      	ldrh	r4, [r0, #10]
   b8c1a:	1aa4      	subs	r4, r4, r2
    x = WIDTH  - x - 1;
   b8c1c:	b209      	sxth	r1, r1
    y -= (h-1);
   b8c1e:	b224      	sxth	r4, r4
  else      drawFastVLineInternal(x, y, h, color);
   b8c20:	9502      	str	r5, [sp, #8]
   b8c22:	4622      	mov	r2, r4
}
   b8c24:	bc30      	pop	{r4, r5}
  else      drawFastVLineInternal(x, y, h, color);
   b8c26:	f7ff bf33 	b.w	b8a90 <_ZN16Adafruit_SSD130621drawFastVLineInternalEssst>
    y = HEIGHT - y - 1;
   b8c2a:	8942      	ldrh	r2, [r0, #10]
   b8c2c:	43c9      	mvns	r1, r1
   b8c2e:	4411      	add	r1, r2
   b8c30:	b209      	sxth	r1, r1
    break;
   b8c32:	e7e7      	b.n	b8c04 <_ZN16Adafruit_SSD130613drawFastVLineEssst+0x1e>

000b8c34 <_ZN16Adafruit_SSD13067displayEv>:
void Adafruit_SSD1306::display(void) {
   b8c34:	e92d 43f8 	stmdb	sp!, {r3, r4, r5, r6, r7, r8, r9, lr}
   b8c38:	4604      	mov	r4, r0
  TRANSACTION_START
   b8c3a:	6a80      	ldr	r0, [r0, #40]	; 0x28
   b8c3c:	2800      	cmp	r0, #0
   b8c3e:	d042      	beq.n	b8cc6 <_ZN16Adafruit_SSD13067displayEv+0x92>
   b8c40:	6ca1      	ldr	r1, [r4, #72]	; 0x48
   b8c42:	f001 f945 	bl	b9ed0 <_ZN7TwoWire8setSpeedEm>
  ssd1306_commandList(dlist1, sizeof(dlist1));
   b8c46:	4947      	ldr	r1, [pc, #284]	; (b8d64 <_ZN16Adafruit_SSD13067displayEv+0x130>)
   b8c48:	2205      	movs	r2, #5
   b8c4a:	4620      	mov	r0, r4
   b8c4c:	f7ff fd2d 	bl	b86aa <_ZN16Adafruit_SSD130619ssd1306_commandListEPKhh>
  ssd1306_command1(WIDTH - 1); // Column end address
   b8c50:	8921      	ldrh	r1, [r4, #8]
   b8c52:	3901      	subs	r1, #1
   b8c54:	4620      	mov	r0, r4
   b8c56:	b2c9      	uxtb	r1, r1
   b8c58:	f7ff fcb8 	bl	b85cc <_ZN16Adafruit_SSD130616ssd1306_command1Eh>
  uint16_t count = WIDTH * ((HEIGHT + 7) / 8);
   b8c5c:	f9b4 300a 	ldrsh.w	r3, [r4, #10]
   b8c60:	1dde      	adds	r6, r3, #7
   b8c62:	bf48      	it	mi
   b8c64:	f103 060e 	addmi.w	r6, r3, #14
  if(wire) { // I2C
   b8c68:	e9d4 050a 	ldrd	r0, r5, [r4, #40]	; 0x28
  uint16_t count = WIDTH * ((HEIGHT + 7) / 8);
   b8c6c:	8923      	ldrh	r3, [r4, #8]
   b8c6e:	10f6      	asrs	r6, r6, #3
   b8c70:	fb13 f606 	smulbb	r6, r3, r6
  uint8_t *ptr   = buffer;
   b8c74:	fa15 f686 	uxtah	r6, r5, r6
  if(wire) { // I2C
   b8c78:	2800      	cmp	r0, #0
   b8c7a:	d03a      	beq.n	b8cf2 <_ZN16Adafruit_SSD13067displayEv+0xbe>
    wire->beginTransmission(i2caddr);
   b8c7c:	f994 1030 	ldrsb.w	r1, [r4, #48]	; 0x30
   b8c80:	f001 f934 	bl	b9eec <_ZN7TwoWire17beginTransmissionEi>
    WIRE_WRITE((uint8_t)0x40);
   b8c84:	6aa0      	ldr	r0, [r4, #40]	; 0x28
   b8c86:	6803      	ldr	r3, [r0, #0]
   b8c88:	2140      	movs	r1, #64	; 0x40
   b8c8a:	689b      	ldr	r3, [r3, #8]
   b8c8c:	4798      	blx	r3
    uint8_t bytesOut = 1;
   b8c8e:	2701      	movs	r7, #1
    while(count--) {
   b8c90:	42b5      	cmp	r5, r6
        wire->endTransmission();
   b8c92:	6aa0      	ldr	r0, [r4, #40]	; 0x28
    while(count--) {
   b8c94:	d024      	beq.n	b8ce0 <_ZN16Adafruit_SSD13067displayEv+0xac>
      if(bytesOut >= WIRE_MAX) {
   b8c96:	2f1f      	cmp	r7, #31
   b8c98:	d90c      	bls.n	b8cb4 <_ZN16Adafruit_SSD13067displayEv+0x80>
        wire->endTransmission();
   b8c9a:	f001 f92e 	bl	b9efa <_ZN7TwoWire15endTransmissionEv>
        wire->beginTransmission(i2caddr);
   b8c9e:	f994 1030 	ldrsb.w	r1, [r4, #48]	; 0x30
   b8ca2:	6aa0      	ldr	r0, [r4, #40]	; 0x28
   b8ca4:	f001 f922 	bl	b9eec <_ZN7TwoWire17beginTransmissionEi>
        WIRE_WRITE((uint8_t)0x40);
   b8ca8:	6aa0      	ldr	r0, [r4, #40]	; 0x28
   b8caa:	6803      	ldr	r3, [r0, #0]
   b8cac:	2140      	movs	r1, #64	; 0x40
   b8cae:	689b      	ldr	r3, [r3, #8]
   b8cb0:	4798      	blx	r3
        bytesOut = 1;
   b8cb2:	2701      	movs	r7, #1
      WIRE_WRITE(*ptr++);
   b8cb4:	6aa0      	ldr	r0, [r4, #40]	; 0x28
   b8cb6:	f815 1b01 	ldrb.w	r1, [r5], #1
   b8cba:	6803      	ldr	r3, [r0, #0]
      bytesOut++;
   b8cbc:	3701      	adds	r7, #1
      WIRE_WRITE(*ptr++);
   b8cbe:	689b      	ldr	r3, [r3, #8]
   b8cc0:	4798      	blx	r3
      bytesOut++;
   b8cc2:	b2ff      	uxtb	r7, r7
    while(count--) {
   b8cc4:	e7e4      	b.n	b8c90 <_ZN16Adafruit_SSD13067displayEv+0x5c>
  TRANSACTION_START
   b8cc6:	6a60      	ldr	r0, [r4, #36]	; 0x24
   b8cc8:	b118      	cbz	r0, b8cd2 <_ZN16Adafruit_SSD13067displayEv+0x9e>
   b8cca:	f104 0138 	add.w	r1, r4, #56	; 0x38
   b8cce:	f000 fc2f 	bl	b9530 <_ZN8SPIClass16beginTransactionERKN8particle11SPISettingsE>
   b8cd2:	f994 0036 	ldrsb.w	r0, [r4, #54]	; 0x36
   b8cd6:	2100      	movs	r1, #0
   b8cd8:	b280      	uxth	r0, r0
   b8cda:	f001 fa50 	bl	ba17e <digitalWrite>
   b8cde:	e7b2      	b.n	b8c46 <_ZN16Adafruit_SSD13067displayEv+0x12>
    wire->endTransmission();
   b8ce0:	f001 f90b 	bl	b9efa <_ZN7TwoWire15endTransmissionEv>
  TRANSACTION_END
   b8ce4:	6aa0      	ldr	r0, [r4, #40]	; 0x28
   b8ce6:	b378      	cbz	r0, b8d48 <_ZN16Adafruit_SSD13067displayEv+0x114>
   b8ce8:	6ce1      	ldr	r1, [r4, #76]	; 0x4c
}
   b8cea:	e8bd 43f8 	ldmia.w	sp!, {r3, r4, r5, r6, r7, r8, r9, lr}
   b8cee:	f001 b8ef 	b.w	b9ed0 <_ZN7TwoWire8setSpeedEm>
    SSD1306_MODE_DATA
   b8cf2:	f994 0035 	ldrsb.w	r0, [r4, #53]	; 0x35
   b8cf6:	2101      	movs	r1, #1
   b8cf8:	b280      	uxth	r0, r0
   b8cfa:	f001 fa40 	bl	ba17e <digitalWrite>
    while(count--) SPIwrite(*ptr++);
   b8cfe:	42ae      	cmp	r6, r5
   b8d00:	d0f0      	beq.n	b8ce4 <_ZN16Adafruit_SSD13067displayEv+0xb0>
  if(spi) {
   b8d02:	6a60      	ldr	r0, [r4, #36]	; 0x24
    while(count--) SPIwrite(*ptr++);
   b8d04:	f815 9b01 	ldrb.w	r9, [r5], #1
  if(spi) {
   b8d08:	b118      	cbz	r0, b8d12 <_ZN16Adafruit_SSD13067displayEv+0xde>
    (void)spi->transfer(d);
   b8d0a:	4649      	mov	r1, r9
   b8d0c:	f000 fc7e 	bl	b960c <_ZN8SPIClass8transferEh>
   b8d10:	e7f5      	b.n	b8cfe <_ZN16Adafruit_SSD13067displayEv+0xca>
   b8d12:	2708      	movs	r7, #8
    for(uint8_t bit = 0x80; bit; bit >>= 1) {
   b8d14:	f04f 0880 	mov.w	r8, #128	; 0x80
      digitalWrite(mosiPin, d & bit);
   b8d18:	f994 0033 	ldrsb.w	r0, [r4, #51]	; 0x33
   b8d1c:	ea09 0108 	and.w	r1, r9, r8
   b8d20:	b280      	uxth	r0, r0
   b8d22:	f001 fa2c 	bl	ba17e <digitalWrite>
      digitalWrite(clkPin , HIGH);
   b8d26:	f994 0034 	ldrsb.w	r0, [r4, #52]	; 0x34
   b8d2a:	2101      	movs	r1, #1
   b8d2c:	b280      	uxth	r0, r0
   b8d2e:	f001 fa26 	bl	ba17e <digitalWrite>
      digitalWrite(clkPin , LOW);
   b8d32:	f994 0034 	ldrsb.w	r0, [r4, #52]	; 0x34
   b8d36:	2100      	movs	r1, #0
   b8d38:	b280      	uxth	r0, r0
   b8d3a:	f001 fa20 	bl	ba17e <digitalWrite>
    for(uint8_t bit = 0x80; bit; bit >>= 1) {
   b8d3e:	3f01      	subs	r7, #1
   b8d40:	ea4f 0858 	mov.w	r8, r8, lsr #1
   b8d44:	d1e8      	bne.n	b8d18 <_ZN16Adafruit_SSD13067displayEv+0xe4>
   b8d46:	e7da      	b.n	b8cfe <_ZN16Adafruit_SSD13067displayEv+0xca>
  TRANSACTION_END
   b8d48:	f994 0036 	ldrsb.w	r0, [r4, #54]	; 0x36
   b8d4c:	2101      	movs	r1, #1
   b8d4e:	b280      	uxth	r0, r0
   b8d50:	f001 fa15 	bl	ba17e <digitalWrite>
   b8d54:	6a60      	ldr	r0, [r4, #36]	; 0x24
   b8d56:	b118      	cbz	r0, b8d60 <_ZN16Adafruit_SSD13067displayEv+0x12c>
}
   b8d58:	e8bd 43f8 	ldmia.w	sp!, {r3, r4, r5, r6, r7, r8, r9, lr}
  TRANSACTION_END
   b8d5c:	f000 bbce 	b.w	b94fc <_ZN8SPIClass14endTransactionEv>
}
   b8d60:	e8bd 83f8 	ldmia.w	sp!, {r3, r4, r5, r6, r7, r8, r9, pc}
   b8d64:	000bc9c8 	.word	0x000bc9c8

000b8d68 <_ZN12ChainableLEDC1Ehhh>:
// Forward declaration
float hue2rgb(float p, float q, float t);

// --------------------------------------------------------------------------------------

ChainableLED::ChainableLED(byte clk_pin, byte data_pin, byte number_of_leds) :
   b8d68:	b510      	push	{r4, lr}
   b8d6a:	4604      	mov	r4, r0
    _clk_pin(clk_pin), _data_pin(data_pin), _num_leds(number_of_leds)
   b8d6c:	7001      	strb	r1, [r0, #0]
   b8d6e:	7042      	strb	r2, [r0, #1]
   b8d70:	7083      	strb	r3, [r0, #2]
{
    _led_state = (byte*) calloc(_num_leds*3, sizeof(byte));
   b8d72:	2101      	movs	r1, #1
   b8d74:	eb03 0043 	add.w	r0, r3, r3, lsl #1
   b8d78:	f001 ff1a 	bl	babb0 <calloc>
   b8d7c:	6060      	str	r0, [r4, #4]
}
   b8d7e:	4620      	mov	r0, r4
   b8d80:	bd10      	pop	{r4, pc}

000b8d82 <_ZN12ChainableLEDD1Ev>:

ChainableLED::~ChainableLED()
   b8d82:	b510      	push	{r4, lr}
   b8d84:	4604      	mov	r4, r0
{
    free(_led_state);
   b8d86:	6840      	ldr	r0, [r0, #4]
   b8d88:	f000 fb1e 	bl	b93c8 <free>
}
   b8d8c:	4620      	mov	r0, r4
   b8d8e:	bd10      	pop	{r4, pc}

000b8d90 <_ZN12ChainableLED3clkEv>:
    for (byte i=0; i<_num_leds; i++)
        setColorRGB(i, 0, 0, 0);
}

void ChainableLED::clk(void)
{
   b8d90:	b510      	push	{r4, lr}
    digitalWrite(_clk_pin, LOW);
   b8d92:	2100      	movs	r1, #0
{
   b8d94:	4604      	mov	r4, r0
    digitalWrite(_clk_pin, LOW);
   b8d96:	7800      	ldrb	r0, [r0, #0]
   b8d98:	f001 f9f1 	bl	ba17e <digitalWrite>
   b8d9c:	2014      	movs	r0, #20
   b8d9e:	f000 f917 	bl	b8fd0 <HAL_Delay_Microseconds>
    delayMicroseconds(_CLK_PULSE_DELAY);
    digitalWrite(_clk_pin, HIGH);
   b8da2:	7820      	ldrb	r0, [r4, #0]
   b8da4:	2101      	movs	r1, #1
   b8da6:	f001 f9ea 	bl	ba17e <digitalWrite>
    delayMicroseconds(_CLK_PULSE_DELAY);
}
   b8daa:	e8bd 4010 	ldmia.w	sp!, {r4, lr}
   b8dae:	2014      	movs	r0, #20
   b8db0:	f000 b90e 	b.w	b8fd0 <HAL_Delay_Microseconds>

000b8db4 <_ZN12ChainableLED8sendByteEh>:

void ChainableLED::sendByte(byte b)
{
   b8db4:	b570      	push	{r4, r5, r6, lr}
   b8db6:	4606      	mov	r6, r0
   b8db8:	460c      	mov	r4, r1
   b8dba:	2508      	movs	r5, #8
    // Send one bit at a time, starting with the MSB
    for (byte i=0; i<8; i++)
    {
        // If MSB is 1, write one and clock it, else write 0 and clock
        if ((b & 0x80) != 0)
   b8dbc:	0623      	lsls	r3, r4, #24
            digitalWrite(_data_pin, HIGH);
   b8dbe:	bf4c      	ite	mi
   b8dc0:	2101      	movmi	r1, #1
        else
            digitalWrite(_data_pin, LOW);
   b8dc2:	2100      	movpl	r1, #0
            digitalWrite(_data_pin, HIGH);
   b8dc4:	7870      	ldrb	r0, [r6, #1]
            digitalWrite(_data_pin, LOW);
   b8dc6:	f001 f9da 	bl	ba17e <digitalWrite>
    for (byte i=0; i<8; i++)
   b8dca:	3d01      	subs	r5, #1
        clk();
   b8dcc:	4630      	mov	r0, r6
   b8dce:	f7ff ffdf 	bl	b8d90 <_ZN12ChainableLED3clkEv>

        // Advance to the next bit to send
        b <<= 1;
   b8dd2:	0064      	lsls	r4, r4, #1
    for (byte i=0; i<8; i++)
   b8dd4:	f015 05ff 	ands.w	r5, r5, #255	; 0xff
        b <<= 1;
   b8dd8:	b2e4      	uxtb	r4, r4
    for (byte i=0; i<8; i++)
   b8dda:	d1ef      	bne.n	b8dbc <_ZN12ChainableLED8sendByteEh+0x8>
    }
}
   b8ddc:	bd70      	pop	{r4, r5, r6, pc}

000b8dde <_ZN12ChainableLED9sendColorEhhh>:

void ChainableLED::sendColor(byte red, byte green, byte blue)
{
   b8dde:	b573      	push	{r0, r1, r4, r5, r6, lr}
    // Start by sending a byte with the format "1 1 /B7 /B6 /G7 /G6 /R7 /R6"
    byte prefix = 0b11000000;
    if ((blue & 0x80) == 0)     prefix|= 0b00100000;
   b8de0:	f013 0f80 	tst.w	r3, #128	; 0x80
{
   b8de4:	461e      	mov	r6, r3
   b8de6:	460c      	mov	r4, r1
   b8de8:	4615      	mov	r5, r2
    if ((blue & 0x80) == 0)     prefix|= 0b00100000;
   b8dea:	bf14      	ite	ne
   b8dec:	21c0      	movne	r1, #192	; 0xc0
   b8dee:	21e0      	moveq	r1, #224	; 0xe0
    if ((blue & 0x40) == 0)     prefix|= 0b00010000;
   b8df0:	0673      	lsls	r3, r6, #25
   b8df2:	bf58      	it	pl
   b8df4:	f041 0110 	orrpl.w	r1, r1, #16
    if ((green & 0x80) == 0)    prefix|= 0b00001000;
   b8df8:	062a      	lsls	r2, r5, #24
   b8dfa:	bf58      	it	pl
   b8dfc:	f041 0108 	orrpl.w	r1, r1, #8
    if ((green & 0x40) == 0)    prefix|= 0b00000100;
   b8e00:	066b      	lsls	r3, r5, #25
   b8e02:	bf58      	it	pl
   b8e04:	f041 0104 	orrpl.w	r1, r1, #4
    if ((red & 0x80) == 0)      prefix|= 0b00000010;
   b8e08:	0622      	lsls	r2, r4, #24
   b8e0a:	bf58      	it	pl
   b8e0c:	f041 0102 	orrpl.w	r1, r1, #2
    if ((red & 0x40) == 0)      prefix|= 0b00000001;
   b8e10:	0663      	lsls	r3, r4, #25
   b8e12:	bf58      	it	pl
   b8e14:	f041 0101 	orrpl.w	r1, r1, #1
    sendByte(prefix);
   b8e18:	9001      	str	r0, [sp, #4]
   b8e1a:	f7ff ffcb 	bl	b8db4 <_ZN12ChainableLED8sendByteEh>

    // Now must send the 3 colors
    sendByte(blue);
   b8e1e:	9801      	ldr	r0, [sp, #4]
   b8e20:	4631      	mov	r1, r6
   b8e22:	f7ff ffc7 	bl	b8db4 <_ZN12ChainableLED8sendByteEh>
    sendByte(green);
   b8e26:	9801      	ldr	r0, [sp, #4]
   b8e28:	4629      	mov	r1, r5
   b8e2a:	f7ff ffc3 	bl	b8db4 <_ZN12ChainableLED8sendByteEh>
    sendByte(red);
   b8e2e:	9801      	ldr	r0, [sp, #4]
   b8e30:	4621      	mov	r1, r4
}
   b8e32:	b002      	add	sp, #8
   b8e34:	e8bd 4070 	ldmia.w	sp!, {r4, r5, r6, lr}
    sendByte(red);
   b8e38:	f7ff bfbc 	b.w	b8db4 <_ZN12ChainableLED8sendByteEh>

000b8e3c <_ZN12ChainableLED11setColorRGBEhhhh>:

void ChainableLED::setColorRGB(byte led, byte red, byte green, byte blue)
{
   b8e3c:	e92d 47f0 	stmdb	sp!, {r4, r5, r6, r7, r8, r9, sl, lr}
   b8e40:	4604      	mov	r4, r0
   b8e42:	460f      	mov	r7, r1
    // Send data frame prefix (32x "0")
    sendByte(0x00);
   b8e44:	2100      	movs	r1, #0
{
   b8e46:	4690      	mov	r8, r2
   b8e48:	4699      	mov	r9, r3
   b8e4a:	f89d a020 	ldrb.w	sl, [sp, #32]
    sendByte(0x00);
   b8e4e:	f7ff ffb1 	bl	b8db4 <_ZN12ChainableLED8sendByteEh>
    sendByte(0x00);
   b8e52:	2100      	movs	r1, #0
   b8e54:	4620      	mov	r0, r4
   b8e56:	f7ff ffad 	bl	b8db4 <_ZN12ChainableLED8sendByteEh>
    sendByte(0x00);
   b8e5a:	2100      	movs	r1, #0
   b8e5c:	4620      	mov	r0, r4
   b8e5e:	f7ff ffa9 	bl	b8db4 <_ZN12ChainableLED8sendByteEh>
    sendByte(0x00);
   b8e62:	2100      	movs	r1, #0
   b8e64:	4620      	mov	r0, r4
   b8e66:	f7ff ffa5 	bl	b8db4 <_ZN12ChainableLED8sendByteEh>
   b8e6a:	2600      	movs	r6, #0

    // Send color data for each one of the leds
    for (byte i=0; i<_num_leds; i++)
   b8e6c:	78a3      	ldrb	r3, [r4, #2]
   b8e6e:	b2f5      	uxtb	r5, r6
   b8e70:	42ab      	cmp	r3, r5
   b8e72:	d919      	bls.n	b8ea8 <_ZN12ChainableLED11setColorRGBEhhhh+0x6c>
    {
        if (i == led)
        {
            _led_state[i*3 + _CL_RED] = red;
   b8e74:	eb05 0045 	add.w	r0, r5, r5, lsl #1
        if (i == led)
   b8e78:	42af      	cmp	r7, r5
            _led_state[i*3 + _CL_GREEN] = green;
   b8e7a:	f100 0201 	add.w	r2, r0, #1
            _led_state[i*3 + _CL_BLUE] = blue;
   b8e7e:	f100 0302 	add.w	r3, r0, #2
        if (i == led)
   b8e82:	d108      	bne.n	b8e96 <_ZN12ChainableLED11setColorRGBEhhhh+0x5a>
            _led_state[i*3 + _CL_RED] = red;
   b8e84:	6861      	ldr	r1, [r4, #4]
   b8e86:	f801 8000 	strb.w	r8, [r1, r0]
            _led_state[i*3 + _CL_GREEN] = green;
   b8e8a:	6861      	ldr	r1, [r4, #4]
   b8e8c:	f801 9002 	strb.w	r9, [r1, r2]
            _led_state[i*3 + _CL_BLUE] = blue;
   b8e90:	6861      	ldr	r1, [r4, #4]
   b8e92:	f801 a003 	strb.w	sl, [r1, r3]
        }

        sendColor(_led_state[i*3 + _CL_RED],
   b8e96:	6861      	ldr	r1, [r4, #4]
   b8e98:	5ccb      	ldrb	r3, [r1, r3]
   b8e9a:	5c8a      	ldrb	r2, [r1, r2]
   b8e9c:	5c09      	ldrb	r1, [r1, r0]
   b8e9e:	4620      	mov	r0, r4
   b8ea0:	f7ff ff9d 	bl	b8dde <_ZN12ChainableLED9sendColorEhhh>
    for (byte i=0; i<_num_leds; i++)
   b8ea4:	3601      	adds	r6, #1
   b8ea6:	e7e1      	b.n	b8e6c <_ZN12ChainableLED11setColorRGBEhhhh+0x30>
                  _led_state[i*3 + _CL_GREEN],
                  _led_state[i*3 + _CL_BLUE]);
    }

    // Terminate data frame (32x "0")
    sendByte(0x00);
   b8ea8:	4620      	mov	r0, r4
   b8eaa:	2100      	movs	r1, #0
   b8eac:	f7ff ff82 	bl	b8db4 <_ZN12ChainableLED8sendByteEh>
    sendByte(0x00);
   b8eb0:	4620      	mov	r0, r4
   b8eb2:	2100      	movs	r1, #0
   b8eb4:	f7ff ff7e 	bl	b8db4 <_ZN12ChainableLED8sendByteEh>
    sendByte(0x00);
   b8eb8:	4620      	mov	r0, r4
   b8eba:	2100      	movs	r1, #0
   b8ebc:	f7ff ff7a 	bl	b8db4 <_ZN12ChainableLED8sendByteEh>
    sendByte(0x00);
   b8ec0:	4620      	mov	r0, r4
   b8ec2:	2100      	movs	r1, #0
}
   b8ec4:	e8bd 47f0 	ldmia.w	sp!, {r4, r5, r6, r7, r8, r9, sl, lr}
    sendByte(0x00);
   b8ec8:	f7ff bf74 	b.w	b8db4 <_ZN12ChainableLED8sendByteEh>

000b8ecc <_ZN12ChainableLED4initEv>:
{
   b8ecc:	b573      	push	{r0, r1, r4, r5, r6, lr}
   b8ece:	4604      	mov	r4, r0
    pinMode(_clk_pin, OUTPUT);
   b8ed0:	2101      	movs	r1, #1
   b8ed2:	7800      	ldrb	r0, [r0, #0]
   b8ed4:	f001 f942 	bl	ba15c <pinMode>
    pinMode(_data_pin, OUTPUT);
   b8ed8:	7860      	ldrb	r0, [r4, #1]
   b8eda:	2101      	movs	r1, #1
   b8edc:	f001 f93e 	bl	ba15c <pinMode>
   b8ee0:	2500      	movs	r5, #0
        setColorRGB(i, 0, 0, 0);
   b8ee2:	462e      	mov	r6, r5
    for (byte i=0; i<_num_leds; i++)
   b8ee4:	78a3      	ldrb	r3, [r4, #2]
   b8ee6:	b2e9      	uxtb	r1, r5
   b8ee8:	428b      	cmp	r3, r1
   b8eea:	d907      	bls.n	b8efc <_ZN12ChainableLED4initEv+0x30>
        setColorRGB(i, 0, 0, 0);
   b8eec:	2300      	movs	r3, #0
   b8eee:	9600      	str	r6, [sp, #0]
   b8ef0:	461a      	mov	r2, r3
   b8ef2:	4620      	mov	r0, r4
   b8ef4:	f7ff ffa2 	bl	b8e3c <_ZN12ChainableLED11setColorRGBEhhhh>
    for (byte i=0; i<_num_leds; i++)
   b8ef8:	3501      	adds	r5, #1
   b8efa:	e7f3      	b.n	b8ee4 <_ZN12ChainableLED4initEv+0x18>
}
   b8efc:	b002      	add	sp, #8
   b8efe:	bd70      	pop	{r4, r5, r6, pc}

000b8f00 <netdb_freeaddrinfo>:

DYNALIB_BEGIN(hal_netdb)

DYNALIB_FN(0, hal_netdb, netdb_gethostbyname, struct hostent*(const char*))
DYNALIB_FN(1, hal_netdb, netdb_gethostbyname_r, int(const char*, struct hostent*, char*, size_t, struct hostent**, int*))
DYNALIB_FN(2, hal_netdb, netdb_freeaddrinfo, void(struct addrinfo*))
   b8f00:	b508      	push	{r3, lr}
   b8f02:	4b02      	ldr	r3, [pc, #8]	; (b8f0c <netdb_freeaddrinfo+0xc>)
   b8f04:	681b      	ldr	r3, [r3, #0]
   b8f06:	689b      	ldr	r3, [r3, #8]
   b8f08:	9301      	str	r3, [sp, #4]
   b8f0a:	bd08      	pop	{r3, pc}
   b8f0c:	00030268 	.word	0x00030268

000b8f10 <netdb_getaddrinfo>:
DYNALIB_FN(3, hal_netdb, netdb_getaddrinfo, int(const char*, const char*, const struct addrinfo*, struct addrinfo**))
   b8f10:	b508      	push	{r3, lr}
   b8f12:	4b02      	ldr	r3, [pc, #8]	; (b8f1c <netdb_getaddrinfo+0xc>)
   b8f14:	681b      	ldr	r3, [r3, #0]
   b8f16:	68db      	ldr	r3, [r3, #12]
   b8f18:	9301      	str	r3, [sp, #4]
   b8f1a:	bd08      	pop	{r3, pc}
   b8f1c:	00030268 	.word	0x00030268

000b8f20 <HAL_Validate_Pin_Function>:
// GNINRAW

DYNALIB_BEGIN(hal_gpio)

DYNALIB_FN(0, hal_gpio, HAL_Pin_Map, Hal_Pin_Info*(void))
DYNALIB_FN(1, hal_gpio, HAL_Validate_Pin_Function, PinFunction(pin_t, PinFunction))
   b8f20:	b508      	push	{r3, lr}
   b8f22:	4b02      	ldr	r3, [pc, #8]	; (b8f2c <HAL_Validate_Pin_Function+0xc>)
   b8f24:	681b      	ldr	r3, [r3, #0]
   b8f26:	685b      	ldr	r3, [r3, #4]
   b8f28:	9301      	str	r3, [sp, #4]
   b8f2a:	bd08      	pop	{r3, pc}
   b8f2c:	0003022c 	.word	0x0003022c

000b8f30 <HAL_Pin_Mode>:
DYNALIB_FN(2, hal_gpio, HAL_Pin_Mode, void(pin_t, PinMode))
   b8f30:	b508      	push	{r3, lr}
   b8f32:	4b02      	ldr	r3, [pc, #8]	; (b8f3c <HAL_Pin_Mode+0xc>)
   b8f34:	681b      	ldr	r3, [r3, #0]
   b8f36:	689b      	ldr	r3, [r3, #8]
   b8f38:	9301      	str	r3, [sp, #4]
   b8f3a:	bd08      	pop	{r3, pc}
   b8f3c:	0003022c 	.word	0x0003022c

000b8f40 <HAL_Get_Pin_Mode>:
DYNALIB_FN(3, hal_gpio, HAL_Get_Pin_Mode, PinMode(pin_t))
   b8f40:	b508      	push	{r3, lr}
   b8f42:	4b02      	ldr	r3, [pc, #8]	; (b8f4c <HAL_Get_Pin_Mode+0xc>)
   b8f44:	681b      	ldr	r3, [r3, #0]
   b8f46:	68db      	ldr	r3, [r3, #12]
   b8f48:	9301      	str	r3, [sp, #4]
   b8f4a:	bd08      	pop	{r3, pc}
   b8f4c:	0003022c 	.word	0x0003022c

000b8f50 <HAL_GPIO_Write>:
DYNALIB_FN(4, hal_gpio, HAL_GPIO_Write, void(pin_t, uint8_t))
   b8f50:	b508      	push	{r3, lr}
   b8f52:	4b02      	ldr	r3, [pc, #8]	; (b8f5c <HAL_GPIO_Write+0xc>)
   b8f54:	681b      	ldr	r3, [r3, #0]
   b8f56:	691b      	ldr	r3, [r3, #16]
   b8f58:	9301      	str	r3, [sp, #4]
   b8f5a:	bd08      	pop	{r3, pc}
   b8f5c:	0003022c 	.word	0x0003022c

000b8f60 <HAL_GPIO_Read>:
DYNALIB_FN(5, hal_gpio, HAL_GPIO_Read, int32_t(pin_t))
   b8f60:	b508      	push	{r3, lr}
   b8f62:	4b02      	ldr	r3, [pc, #8]	; (b8f6c <HAL_GPIO_Read+0xc>)
   b8f64:	681b      	ldr	r3, [r3, #0]
   b8f66:	695b      	ldr	r3, [r3, #20]
   b8f68:	9301      	str	r3, [sp, #4]
   b8f6a:	bd08      	pop	{r3, pc}
   b8f6c:	0003022c 	.word	0x0003022c

000b8f70 <HAL_Interrupts_Enable_All>:
DYNALIB_FN(6, hal_gpio, HAL_Interrupts_Attach, int(uint16_t, HAL_InterruptHandler, void*, InterruptMode, HAL_InterruptExtraConfiguration*))
DYNALIB_FN(7, hal_gpio, HAL_Interrupts_Detach, int(uint16_t))
DYNALIB_FN(8, hal_gpio, HAL_Interrupts_Enable_All, void(void))
   b8f70:	b508      	push	{r3, lr}
   b8f72:	4b02      	ldr	r3, [pc, #8]	; (b8f7c <HAL_Interrupts_Enable_All+0xc>)
   b8f74:	681b      	ldr	r3, [r3, #0]
   b8f76:	6a1b      	ldr	r3, [r3, #32]
   b8f78:	9301      	str	r3, [sp, #4]
   b8f7a:	bd08      	pop	{r3, pc}
   b8f7c:	0003022c 	.word	0x0003022c

000b8f80 <HAL_Interrupts_Disable_All>:
DYNALIB_FN(9, hal_gpio, HAL_Interrupts_Disable_All, void(void))
   b8f80:	b508      	push	{r3, lr}
   b8f82:	4b02      	ldr	r3, [pc, #8]	; (b8f8c <HAL_Interrupts_Disable_All+0xc>)
   b8f84:	681b      	ldr	r3, [r3, #0]
   b8f86:	6a5b      	ldr	r3, [r3, #36]	; 0x24
   b8f88:	9301      	str	r3, [sp, #4]
   b8f8a:	bd08      	pop	{r3, pc}
   b8f8c:	0003022c 	.word	0x0003022c

000b8f90 <hal_adc_read>:

DYNALIB_FN(10, hal_gpio, HAL_DAC_Write, void(pin_t, uint16_t))
DYNALIB_FN(11, hal_gpio, hal_adc_set_sample_time, void(uint8_t))
DYNALIB_FN(12, hal_gpio, hal_adc_read, int32_t(uint16_t))
   b8f90:	b508      	push	{r3, lr}
   b8f92:	4b02      	ldr	r3, [pc, #8]	; (b8f9c <hal_adc_read+0xc>)
   b8f94:	681b      	ldr	r3, [r3, #0]
   b8f96:	6b1b      	ldr	r3, [r3, #48]	; 0x30
   b8f98:	9301      	str	r3, [sp, #4]
   b8f9a:	bd08      	pop	{r3, pc}
   b8f9c:	0003022c 	.word	0x0003022c

000b8fa0 <HAL_Pulse_In>:

DYNALIB_FN(16, hal_gpio, HAL_Set_System_Interrupt_Handler, uint8_t(hal_irq_t, const HAL_InterruptCallback*, HAL_InterruptCallback*, void*))
DYNALIB_FN(17, hal_gpio, HAL_Get_System_Interrupt_Handler, uint8_t(hal_irq_t, HAL_InterruptCallback*, void*))
DYNALIB_FN(18, hal_gpio, HAL_System_Interrupt_Trigger, void(hal_irq_t, void*))

DYNALIB_FN(19, hal_gpio, HAL_Pulse_In, uint32_t(pin_t, uint16_t))
   b8fa0:	b508      	push	{r3, lr}
   b8fa2:	4b02      	ldr	r3, [pc, #8]	; (b8fac <HAL_Pulse_In+0xc>)
   b8fa4:	681b      	ldr	r3, [r3, #0]
   b8fa6:	6cdb      	ldr	r3, [r3, #76]	; 0x4c
   b8fa8:	9301      	str	r3, [sp, #4]
   b8faa:	bd08      	pop	{r3, pc}
   b8fac:	0003022c 	.word	0x0003022c

000b8fb0 <hal_pwm_write_with_frequency_ext>:
DYNALIB_FN(26, hal_gpio, HAL_DAC_Set_Resolution, void(pin_t, uint8_t))
DYNALIB_FN(27, hal_gpio, HAL_DAC_Enable_Buffer, void(pin_t pin, uint8_t state))
DYNALIB_FN(28, hal_gpio, hal_pwm_get_resolution, uint8_t(uint16_t))
DYNALIB_FN(29, hal_gpio, hal_pwm_set_resolution, void(uint16_t, uint8_t))
DYNALIB_FN(30, hal_gpio, hal_pwm_write_ext, void(uint16_t, uint32_t))
DYNALIB_FN(31, hal_gpio, hal_pwm_write_with_frequency_ext, void(uint16_t, uint32_t, uint32_t))
   b8fb0:	b508      	push	{r3, lr}
   b8fb2:	4b02      	ldr	r3, [pc, #8]	; (b8fbc <hal_pwm_write_with_frequency_ext+0xc>)
   b8fb4:	681b      	ldr	r3, [r3, #0]
   b8fb6:	6fdb      	ldr	r3, [r3, #124]	; 0x7c
   b8fb8:	9301      	str	r3, [sp, #4]
   b8fba:	bd08      	pop	{r3, pc}
   b8fbc:	0003022c 	.word	0x0003022c

000b8fc0 <HAL_RNG_GetRandomNumber>:

DYNALIB_BEGIN(hal)

#if PLATFORM_ID > 3
DYNALIB_FN(0, hal, HAL_RNG_Configuration, void(void))
DYNALIB_FN(1, hal, HAL_RNG_GetRandomNumber, uint32_t(void))
   b8fc0:	b508      	push	{r3, lr}
   b8fc2:	4b02      	ldr	r3, [pc, #8]	; (b8fcc <HAL_RNG_GetRandomNumber+0xc>)
   b8fc4:	681b      	ldr	r3, [r3, #0]
   b8fc6:	685b      	ldr	r3, [r3, #4]
   b8fc8:	9301      	str	r3, [sp, #4]
   b8fca:	bd08      	pop	{r3, pc}
   b8fcc:	00030218 	.word	0x00030218

000b8fd0 <HAL_Delay_Microseconds>:
#else
#define BASE_IDX 0
#endif

DYNALIB_FN(BASE_IDX + 0, hal, HAL_Delay_Milliseconds, void(uint32_t))
DYNALIB_FN(BASE_IDX + 1, hal, HAL_Delay_Microseconds, void(uint32_t))
   b8fd0:	b508      	push	{r3, lr}
   b8fd2:	4b02      	ldr	r3, [pc, #8]	; (b8fdc <HAL_Delay_Microseconds+0xc>)
   b8fd4:	681b      	ldr	r3, [r3, #0]
   b8fd6:	68db      	ldr	r3, [r3, #12]
   b8fd8:	9301      	str	r3, [sp, #4]
   b8fda:	bd08      	pop	{r3, pc}
   b8fdc:	00030218 	.word	0x00030218

000b8fe0 <HAL_Timer_Get_Milli_Seconds>:
DYNALIB_FN(BASE_IDX + 2, hal, HAL_Timer_Get_Micro_Seconds, system_tick_t(void))
DYNALIB_FN(BASE_IDX + 3, hal, HAL_Timer_Get_Milli_Seconds, system_tick_t(void))
   b8fe0:	b508      	push	{r3, lr}
   b8fe2:	4b02      	ldr	r3, [pc, #8]	; (b8fec <HAL_Timer_Get_Milli_Seconds+0xc>)
   b8fe4:	681b      	ldr	r3, [r3, #0]
   b8fe6:	695b      	ldr	r3, [r3, #20]
   b8fe8:	9301      	str	r3, [sp, #4]
   b8fea:	bd08      	pop	{r3, pc}
   b8fec:	00030218 	.word	0x00030218

000b8ff0 <HAL_EEPROM_Init>:
DYNALIB_FN(BASE_IDX + 5, hal, hal_rtc_get_unixtime_deprecated, time32_t(void))
DYNALIB_FN(BASE_IDX + 6, hal, hal_rtc_set_unixtime_deprecated, void(time32_t))

DYNALIB_FN(BASE_IDX + 7, hal, hal_rtc_set_alarm, int(const struct timeval*, uint32_t, hal_rtc_alarm_handler, void*, void*))

DYNALIB_FN(BASE_IDX + 8, hal, HAL_EEPROM_Init, void(void))
   b8ff0:	b508      	push	{r3, lr}
   b8ff2:	4b02      	ldr	r3, [pc, #8]	; (b8ffc <HAL_EEPROM_Init+0xc>)
   b8ff4:	681b      	ldr	r3, [r3, #0]
   b8ff6:	6a9b      	ldr	r3, [r3, #40]	; 0x28
   b8ff8:	9301      	str	r3, [sp, #4]
   b8ffa:	bd08      	pop	{r3, pc}
   b8ffc:	00030218 	.word	0x00030218

000b9000 <HAL_EEPROM_Read>:
DYNALIB_FN(BASE_IDX + 9, hal, HAL_EEPROM_Read, uint8_t(uint32_t))
   b9000:	b508      	push	{r3, lr}
   b9002:	4b02      	ldr	r3, [pc, #8]	; (b900c <HAL_EEPROM_Read+0xc>)
   b9004:	681b      	ldr	r3, [r3, #0]
   b9006:	6adb      	ldr	r3, [r3, #44]	; 0x2c
   b9008:	9301      	str	r3, [sp, #4]
   b900a:	bd08      	pop	{r3, pc}
   b900c:	00030218 	.word	0x00030218

000b9010 <HAL_EEPROM_Put>:
DYNALIB_FN(BASE_IDX + 12, hal, HAL_disable_irq, int(void))
DYNALIB_FN(BASE_IDX + 13, hal, HAL_enable_irq, void(int))
DYNALIB_FN(BASE_IDX + 14, hal, hal_rtc_cancel_alarm, void(void))

DYNALIB_FN(BASE_IDX + 15, hal, HAL_EEPROM_Get, void(uint32_t, void *, size_t))
DYNALIB_FN(BASE_IDX + 16, hal, HAL_EEPROM_Put, void(uint32_t, const void *, size_t))
   b9010:	b508      	push	{r3, lr}
   b9012:	4b02      	ldr	r3, [pc, #8]	; (b901c <HAL_EEPROM_Put+0xc>)
   b9014:	681b      	ldr	r3, [r3, #0]
   b9016:	6c9b      	ldr	r3, [r3, #72]	; 0x48
   b9018:	9301      	str	r3, [sp, #4]
   b901a:	bd08      	pop	{r3, pc}
   b901c:	00030218 	.word	0x00030218

000b9020 <os_mutex_recursive_create>:
DYNALIB_FN(13, hal_concurrent, os_mutex_destroy, int(os_mutex_t))
DYNALIB_FN(14, hal_concurrent, os_mutex_lock, int(os_mutex_t))
DYNALIB_FN(15, hal_concurrent, os_mutex_trylock, int(os_mutex_t))
DYNALIB_FN(16, hal_concurrent, os_mutex_unlock, int(os_mutex_t))

DYNALIB_FN(17, hal_concurrent, os_mutex_recursive_create, int(os_mutex_recursive_t*))
   b9020:	b508      	push	{r3, lr}
   b9022:	4b02      	ldr	r3, [pc, #8]	; (b902c <os_mutex_recursive_create+0xc>)
   b9024:	681b      	ldr	r3, [r3, #0]
   b9026:	6c5b      	ldr	r3, [r3, #68]	; 0x44
   b9028:	9301      	str	r3, [sp, #4]
   b902a:	bd08      	pop	{r3, pc}
   b902c:	00030248 	.word	0x00030248

000b9030 <inet_inet_ntop>:
DYNALIB_FN(0, hal_inet, inet_inet_addr, in_addr_t(const char*))
DYNALIB_FN(1, hal_inet, inet_inet_aton, int(const char*, struct in_addr*))
DYNALIB_FN(2, hal_inet, inet_inet_network, in_addr_t(const char*))
DYNALIB_FN(3, hal_inet, inet_inet_ntoa, char*(struct in_addr))
DYNALIB_FN(4, hal_inet, inet_inet_ntoa_r, char*(struct in_addr, char*, socklen_t))
DYNALIB_FN(5, hal_inet, inet_inet_ntop, const char*(int, const void*, char*, socklen_t))
   b9030:	b508      	push	{r3, lr}
   b9032:	4b02      	ldr	r3, [pc, #8]	; (b903c <inet_inet_ntop+0xc>)
   b9034:	681b      	ldr	r3, [r3, #0]
   b9036:	695b      	ldr	r3, [r3, #20]
   b9038:	9301      	str	r3, [sp, #4]
   b903a:	bd08      	pop	{r3, pc}
   b903c:	00030264 	.word	0x00030264

000b9040 <hal_usart_write>:
#endif

DYNALIB_FN(BASE_IDX + 0, hal_usart, hal_usart_init, void(hal_usart_interface_t, hal_usart_ring_buffer_t*, hal_usart_ring_buffer_t*))
DYNALIB_FN(BASE_IDX + 1, hal_usart, hal_usart_begin, void(hal_usart_interface_t, uint32_t))
DYNALIB_FN(BASE_IDX + 2, hal_usart, hal_usart_end, void(hal_usart_interface_t))
DYNALIB_FN(BASE_IDX + 3, hal_usart, hal_usart_write, uint32_t(hal_usart_interface_t, uint8_t))
   b9040:	b508      	push	{r3, lr}
   b9042:	4b02      	ldr	r3, [pc, #8]	; (b904c <hal_usart_write+0xc>)
   b9044:	681b      	ldr	r3, [r3, #0]
   b9046:	68db      	ldr	r3, [r3, #12]
   b9048:	9301      	str	r3, [sp, #4]
   b904a:	bd08      	pop	{r3, pc}
   b904c:	0003023c 	.word	0x0003023c

000b9050 <hal_usart_available>:
DYNALIB_FN(BASE_IDX + 4, hal_usart, hal_usart_available, int32_t(hal_usart_interface_t))
   b9050:	b508      	push	{r3, lr}
   b9052:	4b02      	ldr	r3, [pc, #8]	; (b905c <hal_usart_available+0xc>)
   b9054:	681b      	ldr	r3, [r3, #0]
   b9056:	691b      	ldr	r3, [r3, #16]
   b9058:	9301      	str	r3, [sp, #4]
   b905a:	bd08      	pop	{r3, pc}
   b905c:	0003023c 	.word	0x0003023c

000b9060 <hal_usart_read>:
DYNALIB_FN(BASE_IDX + 5, hal_usart, hal_usart_read, int32_t(hal_usart_interface_t))
   b9060:	b508      	push	{r3, lr}
   b9062:	4b02      	ldr	r3, [pc, #8]	; (b906c <hal_usart_read+0xc>)
   b9064:	681b      	ldr	r3, [r3, #0]
   b9066:	695b      	ldr	r3, [r3, #20]
   b9068:	9301      	str	r3, [sp, #4]
   b906a:	bd08      	pop	{r3, pc}
   b906c:	0003023c 	.word	0x0003023c

000b9070 <hal_usart_peek>:
DYNALIB_FN(BASE_IDX + 6, hal_usart, hal_usart_peek, int32_t(hal_usart_interface_t))
   b9070:	b508      	push	{r3, lr}
   b9072:	4b02      	ldr	r3, [pc, #8]	; (b907c <hal_usart_peek+0xc>)
   b9074:	681b      	ldr	r3, [r3, #0]
   b9076:	699b      	ldr	r3, [r3, #24]
   b9078:	9301      	str	r3, [sp, #4]
   b907a:	bd08      	pop	{r3, pc}
   b907c:	0003023c 	.word	0x0003023c

000b9080 <hal_usart_flush>:
DYNALIB_FN(BASE_IDX + 7, hal_usart, hal_usart_flush, void(hal_usart_interface_t))
   b9080:	b508      	push	{r3, lr}
   b9082:	4b02      	ldr	r3, [pc, #8]	; (b908c <hal_usart_flush+0xc>)
   b9084:	681b      	ldr	r3, [r3, #0]
   b9086:	69db      	ldr	r3, [r3, #28]
   b9088:	9301      	str	r3, [sp, #4]
   b908a:	bd08      	pop	{r3, pc}
   b908c:	0003023c 	.word	0x0003023c

000b9090 <hal_usart_is_enabled>:
DYNALIB_FN(BASE_IDX + 8, hal_usart, hal_usart_is_enabled, bool(hal_usart_interface_t))
   b9090:	b508      	push	{r3, lr}
   b9092:	4b02      	ldr	r3, [pc, #8]	; (b909c <hal_usart_is_enabled+0xc>)
   b9094:	681b      	ldr	r3, [r3, #0]
   b9096:	6a1b      	ldr	r3, [r3, #32]
   b9098:	9301      	str	r3, [sp, #4]
   b909a:	bd08      	pop	{r3, pc}
   b909c:	0003023c 	.word	0x0003023c

000b90a0 <hal_usart_available_data_for_write>:
DYNALIB_FN(BASE_IDX + 9, hal_usart, hal_usart_half_duplex, void(hal_usart_interface_t, bool))
DYNALIB_FN(BASE_IDX + 10, hal_usart, hal_usart_available_data_for_write, int32_t(hal_usart_interface_t))
   b90a0:	b508      	push	{r3, lr}
   b90a2:	4b02      	ldr	r3, [pc, #8]	; (b90ac <hal_usart_available_data_for_write+0xc>)
   b90a4:	681b      	ldr	r3, [r3, #0]
   b90a6:	6a9b      	ldr	r3, [r3, #40]	; 0x28
   b90a8:	9301      	str	r3, [sp, #4]
   b90aa:	bd08      	pop	{r3, pc}
   b90ac:	0003023c 	.word	0x0003023c

000b90b0 <hal_usart_init_ex>:
DYNALIB_FN(BASE_IDX2 + 0, hal_usart, hal_usart_begin_config, void(hal_usart_interface_t serial, uint32_t baud, uint32_t config, void *ptr))
DYNALIB_FN(BASE_IDX2 + 1, hal_usart, hal_usart_write_nine_bits, uint32_t(hal_usart_interface_t serial, uint16_t data))
DYNALIB_FN(BASE_IDX2 + 2, hal_usart, hal_usart_send_break, void(hal_usart_interface_t, void*))
DYNALIB_FN(BASE_IDX2 + 3, hal_usart, hal_usart_break_detected, uint8_t(hal_usart_interface_t))
DYNALIB_FN(BASE_IDX2 + 4, hal_usart, hal_usart_sleep, int(hal_usart_interface_t serial, bool, void*))
DYNALIB_FN(BASE_IDX2 + 5, hal_usart, hal_usart_init_ex, int(hal_usart_interface_t, const hal_usart_buffer_config_t*, void*))
   b90b0:	b508      	push	{r3, lr}
   b90b2:	4b02      	ldr	r3, [pc, #8]	; (b90bc <hal_usart_init_ex+0xc>)
   b90b4:	681b      	ldr	r3, [r3, #0]
   b90b6:	6c1b      	ldr	r3, [r3, #64]	; 0x40
   b90b8:	9301      	str	r3, [sp, #4]
   b90ba:	bd08      	pop	{r3, pc}
   b90bc:	0003023c 	.word	0x0003023c

000b90c0 <hal_i2c_set_speed>:
#define BASE_IDX 16 // Base index for all subsequent functions
#else
#define BASE_IDX 0
#endif

DYNALIB_FN(BASE_IDX + 0, hal_i2c, hal_i2c_set_speed, void(hal_i2c_interface_t, uint32_t, void*))
   b90c0:	b508      	push	{r3, lr}
   b90c2:	4b02      	ldr	r3, [pc, #8]	; (b90cc <hal_i2c_set_speed+0xc>)
   b90c4:	681b      	ldr	r3, [r3, #0]
   b90c6:	681b      	ldr	r3, [r3, #0]
   b90c8:	9301      	str	r3, [sp, #4]
   b90ca:	bd08      	pop	{r3, pc}
   b90cc:	00030228 	.word	0x00030228

000b90d0 <hal_i2c_begin>:
DYNALIB_FN(BASE_IDX + 1, hal_i2c, hal_i2c_enable_dma_mode, void(hal_i2c_interface_t, bool, void*))
DYNALIB_FN(BASE_IDX + 2, hal_i2c, hal_i2c_stretch_clock, void(hal_i2c_interface_t, bool, void*))
DYNALIB_FN(BASE_IDX + 3, hal_i2c, hal_i2c_begin, void(hal_i2c_interface_t, hal_i2c_mode_t, uint8_t, void*))
   b90d0:	b508      	push	{r3, lr}
   b90d2:	4b02      	ldr	r3, [pc, #8]	; (b90dc <hal_i2c_begin+0xc>)
   b90d4:	681b      	ldr	r3, [r3, #0]
   b90d6:	68db      	ldr	r3, [r3, #12]
   b90d8:	9301      	str	r3, [sp, #4]
   b90da:	bd08      	pop	{r3, pc}
   b90dc:	00030228 	.word	0x00030228

000b90e0 <hal_i2c_begin_transmission>:
DYNALIB_FN(BASE_IDX + 4, hal_i2c, hal_i2c_end, void(hal_i2c_interface_t, void*))
DYNALIB_FN(BASE_IDX + 5, hal_i2c, hal_i2c_request, uint32_t(hal_i2c_interface_t, uint8_t, uint8_t, uint8_t, void*))
DYNALIB_FN(BASE_IDX + 6, hal_i2c, hal_i2c_begin_transmission, void(hal_i2c_interface_t, uint8_t, const hal_i2c_transmission_config_t*))
   b90e0:	b508      	push	{r3, lr}
   b90e2:	4b02      	ldr	r3, [pc, #8]	; (b90ec <hal_i2c_begin_transmission+0xc>)
   b90e4:	681b      	ldr	r3, [r3, #0]
   b90e6:	699b      	ldr	r3, [r3, #24]
   b90e8:	9301      	str	r3, [sp, #4]
   b90ea:	bd08      	pop	{r3, pc}
   b90ec:	00030228 	.word	0x00030228

000b90f0 <hal_i2c_end_transmission>:
DYNALIB_FN(BASE_IDX + 7, hal_i2c, hal_i2c_end_transmission, uint8_t(hal_i2c_interface_t, uint8_t, void*))
   b90f0:	b508      	push	{r3, lr}
   b90f2:	4b02      	ldr	r3, [pc, #8]	; (b90fc <hal_i2c_end_transmission+0xc>)
   b90f4:	681b      	ldr	r3, [r3, #0]
   b90f6:	69db      	ldr	r3, [r3, #28]
   b90f8:	9301      	str	r3, [sp, #4]
   b90fa:	bd08      	pop	{r3, pc}
   b90fc:	00030228 	.word	0x00030228

000b9100 <hal_i2c_write>:
DYNALIB_FN(BASE_IDX + 8, hal_i2c, hal_i2c_write, uint32_t(hal_i2c_interface_t, uint8_t, void*))
   b9100:	b508      	push	{r3, lr}
   b9102:	4b02      	ldr	r3, [pc, #8]	; (b910c <hal_i2c_write+0xc>)
   b9104:	681b      	ldr	r3, [r3, #0]
   b9106:	6a1b      	ldr	r3, [r3, #32]
   b9108:	9301      	str	r3, [sp, #4]
   b910a:	bd08      	pop	{r3, pc}
   b910c:	00030228 	.word	0x00030228

000b9110 <hal_i2c_available>:
DYNALIB_FN(BASE_IDX + 9, hal_i2c, hal_i2c_available, int32_t(hal_i2c_interface_t, void*))
   b9110:	b508      	push	{r3, lr}
   b9112:	4b02      	ldr	r3, [pc, #8]	; (b911c <hal_i2c_available+0xc>)
   b9114:	681b      	ldr	r3, [r3, #0]
   b9116:	6a5b      	ldr	r3, [r3, #36]	; 0x24
   b9118:	9301      	str	r3, [sp, #4]
   b911a:	bd08      	pop	{r3, pc}
   b911c:	00030228 	.word	0x00030228

000b9120 <hal_i2c_read>:
DYNALIB_FN(BASE_IDX + 10, hal_i2c, hal_i2c_read, int32_t(hal_i2c_interface_t, void*))
   b9120:	b508      	push	{r3, lr}
   b9122:	4b02      	ldr	r3, [pc, #8]	; (b912c <hal_i2c_read+0xc>)
   b9124:	681b      	ldr	r3, [r3, #0]
   b9126:	6a9b      	ldr	r3, [r3, #40]	; 0x28
   b9128:	9301      	str	r3, [sp, #4]
   b912a:	bd08      	pop	{r3, pc}
   b912c:	00030228 	.word	0x00030228

000b9130 <hal_i2c_peek>:
DYNALIB_FN(BASE_IDX + 11, hal_i2c, hal_i2c_peek, int32_t(hal_i2c_interface_t, void*))
   b9130:	b508      	push	{r3, lr}
   b9132:	4b02      	ldr	r3, [pc, #8]	; (b913c <hal_i2c_peek+0xc>)
   b9134:	681b      	ldr	r3, [r3, #0]
   b9136:	6adb      	ldr	r3, [r3, #44]	; 0x2c
   b9138:	9301      	str	r3, [sp, #4]
   b913a:	bd08      	pop	{r3, pc}
   b913c:	00030228 	.word	0x00030228

000b9140 <hal_i2c_flush>:
DYNALIB_FN(BASE_IDX + 12, hal_i2c, hal_i2c_flush, void(hal_i2c_interface_t, void*))
   b9140:	b508      	push	{r3, lr}
   b9142:	4b02      	ldr	r3, [pc, #8]	; (b914c <hal_i2c_flush+0xc>)
   b9144:	681b      	ldr	r3, [r3, #0]
   b9146:	6b1b      	ldr	r3, [r3, #48]	; 0x30
   b9148:	9301      	str	r3, [sp, #4]
   b914a:	bd08      	pop	{r3, pc}
   b914c:	00030228 	.word	0x00030228

000b9150 <hal_i2c_is_enabled>:
DYNALIB_FN(BASE_IDX + 13, hal_i2c, hal_i2c_is_enabled, bool(hal_i2c_interface_t, void*))
   b9150:	b508      	push	{r3, lr}
   b9152:	4b02      	ldr	r3, [pc, #8]	; (b915c <hal_i2c_is_enabled+0xc>)
   b9154:	681b      	ldr	r3, [r3, #0]
   b9156:	6b5b      	ldr	r3, [r3, #52]	; 0x34
   b9158:	9301      	str	r3, [sp, #4]
   b915a:	bd08      	pop	{r3, pc}
   b915c:	00030228 	.word	0x00030228

000b9160 <hal_i2c_init>:
DYNALIB_FN(BASE_IDX + 14, hal_i2c, hal_i2c_set_callback_on_received, void(hal_i2c_interface_t, void(*)(int), void*))
DYNALIB_FN(BASE_IDX + 15, hal_i2c, hal_i2c_set_callback_on_requested, void(hal_i2c_interface_t, void(*)(void), void*))
DYNALIB_FN(BASE_IDX + 16, hal_i2c, hal_i2c_init, int(hal_i2c_interface_t, const hal_i2c_config_t*))
   b9160:	b508      	push	{r3, lr}
   b9162:	4b02      	ldr	r3, [pc, #8]	; (b916c <hal_i2c_init+0xc>)
   b9164:	681b      	ldr	r3, [r3, #0]
   b9166:	6c1b      	ldr	r3, [r3, #64]	; 0x40
   b9168:	9301      	str	r3, [sp, #4]
   b916a:	bd08      	pop	{r3, pc}
   b916c:	00030228 	.word	0x00030228

000b9170 <hal_spi_begin>:
// New HAL functions must be added to the end of this list.
// GNINRAW

DYNALIB_BEGIN(hal_spi)

DYNALIB_FN(0, hal_spi, hal_spi_begin, void(hal_spi_interface_t, uint16_t))
   b9170:	b508      	push	{r3, lr}
   b9172:	4b02      	ldr	r3, [pc, #8]	; (b917c <hal_spi_begin+0xc>)
   b9174:	681b      	ldr	r3, [r3, #0]
   b9176:	681b      	ldr	r3, [r3, #0]
   b9178:	9301      	str	r3, [sp, #4]
   b917a:	bd08      	pop	{r3, pc}
   b917c:	00030230 	.word	0x00030230

000b9180 <hal_spi_transfer>:
DYNALIB_FN(1, hal_spi, hal_spi_end, void(hal_spi_interface_t))
DYNALIB_FN(2, hal_spi, hal_spi_set_bit_order, void(hal_spi_interface_t, uint8_t))
DYNALIB_FN(3, hal_spi, hal_spi_set_data_mode, void(hal_spi_interface_t, uint8_t))
DYNALIB_FN(4, hal_spi, hal_spi_set_clock_divider, void(hal_spi_interface_t, uint8_t))
DYNALIB_FN(5, hal_spi, hal_spi_transfer, uint16_t(hal_spi_interface_t, uint16_t))
   b9180:	b508      	push	{r3, lr}
   b9182:	4b02      	ldr	r3, [pc, #8]	; (b918c <hal_spi_transfer+0xc>)
   b9184:	681b      	ldr	r3, [r3, #0]
   b9186:	695b      	ldr	r3, [r3, #20]
   b9188:	9301      	str	r3, [sp, #4]
   b918a:	bd08      	pop	{r3, pc}
   b918c:	00030230 	.word	0x00030230

000b9190 <hal_spi_init>:
DYNALIB_FN(6, hal_spi, hal_spi_is_enabled_deprecated, bool(void))
DYNALIB_FN(7, hal_spi, hal_spi_init, void(hal_spi_interface_t))
   b9190:	b508      	push	{r3, lr}
   b9192:	4b02      	ldr	r3, [pc, #8]	; (b919c <hal_spi_init+0xc>)
   b9194:	681b      	ldr	r3, [r3, #0]
   b9196:	69db      	ldr	r3, [r3, #28]
   b9198:	9301      	str	r3, [sp, #4]
   b919a:	bd08      	pop	{r3, pc}
   b919c:	00030230 	.word	0x00030230

000b91a0 <hal_spi_is_enabled>:
DYNALIB_FN(8, hal_spi, hal_spi_is_enabled, bool(hal_spi_interface_t))
   b91a0:	b508      	push	{r3, lr}
   b91a2:	4b02      	ldr	r3, [pc, #8]	; (b91ac <hal_spi_is_enabled+0xc>)
   b91a4:	681b      	ldr	r3, [r3, #0]
   b91a6:	6a1b      	ldr	r3, [r3, #32]
   b91a8:	9301      	str	r3, [sp, #4]
   b91aa:	bd08      	pop	{r3, pc}
   b91ac:	00030230 	.word	0x00030230

000b91b0 <hal_spi_info>:
DYNALIB_FN(9, hal_spi, hal_spi_info, void(hal_spi_interface_t, hal_spi_info_t*, void*))
   b91b0:	b508      	push	{r3, lr}
   b91b2:	4b02      	ldr	r3, [pc, #8]	; (b91bc <hal_spi_info+0xc>)
   b91b4:	681b      	ldr	r3, [r3, #0]
   b91b6:	6a5b      	ldr	r3, [r3, #36]	; 0x24
   b91b8:	9301      	str	r3, [sp, #4]
   b91ba:	bd08      	pop	{r3, pc}
   b91bc:	00030230 	.word	0x00030230

000b91c0 <hal_spi_set_settings>:
DYNALIB_FN(10, hal_spi, hal_spi_transfer_dma, void(hal_spi_interface_t, const void*, void*, uint32_t, hal_spi_dma_user_callback))
DYNALIB_FN(11, hal_spi, hal_spi_begin_ext, void(hal_spi_interface_t, hal_spi_mode_t, uint16_t, void*))
DYNALIB_FN(12, hal_spi, hal_spi_set_callback_on_selected, void(hal_spi_interface_t, hal_spi_select_user_callback, void*))
DYNALIB_FN(13, hal_spi, hal_spi_transfer_dma_cancel, void(hal_spi_interface_t))
DYNALIB_FN(14, hal_spi, hal_spi_transfer_dma_status, int32_t(hal_spi_interface_t, hal_spi_transfer_status_t*))
DYNALIB_FN(15, hal_spi, hal_spi_set_settings, int32_t(hal_spi_interface_t, uint8_t, uint8_t, uint8_t, uint8_t, void*))
   b91c0:	b508      	push	{r3, lr}
   b91c2:	4b02      	ldr	r3, [pc, #8]	; (b91cc <hal_spi_set_settings+0xc>)
   b91c4:	681b      	ldr	r3, [r3, #0]
   b91c6:	6bdb      	ldr	r3, [r3, #60]	; 0x3c
   b91c8:	9301      	str	r3, [sp, #4]
   b91ca:	bd08      	pop	{r3, pc}
   b91cc:	00030230 	.word	0x00030230

000b91d0 <hal_spi_acquire>:
#if HAL_PLATFORM_SPI_HAL_THREAD_SAFETY
DYNALIB_FN(16, hal_spi, hal_spi_acquire, int32_t(hal_spi_interface_t, const hal_spi_acquire_config_t*))
   b91d0:	b508      	push	{r3, lr}
   b91d2:	4b02      	ldr	r3, [pc, #8]	; (b91dc <hal_spi_acquire+0xc>)
   b91d4:	681b      	ldr	r3, [r3, #0]
   b91d6:	6c1b      	ldr	r3, [r3, #64]	; 0x40
   b91d8:	9301      	str	r3, [sp, #4]
   b91da:	bd08      	pop	{r3, pc}
   b91dc:	00030230 	.word	0x00030230

000b91e0 <hal_spi_release>:
DYNALIB_FN(17, hal_spi, hal_spi_release, int32_t(hal_spi_interface_t, void*))
   b91e0:	b508      	push	{r3, lr}
   b91e2:	4b02      	ldr	r3, [pc, #8]	; (b91ec <hal_spi_release+0xc>)
   b91e4:	681b      	ldr	r3, [r3, #0]
   b91e6:	6c5b      	ldr	r3, [r3, #68]	; 0x44
   b91e8:	9301      	str	r3, [sp, #4]
   b91ea:	bd08      	pop	{r3, pc}
   b91ec:	00030230 	.word	0x00030230

000b91f0 <HAL_Tone_Start>:
// New HAL functions must be added to the end of this list.
// GNINRAW

DYNALIB_BEGIN(hal_peripherals)

DYNALIB_FN(0, hal_peripherals, HAL_Tone_Start, void(uint8_t, uint32_t, uint32_t))
   b91f0:	b508      	push	{r3, lr}
   b91f2:	4b02      	ldr	r3, [pc, #8]	; (b91fc <HAL_Tone_Start+0xc>)
   b91f4:	681b      	ldr	r3, [r3, #0]
   b91f6:	681b      	ldr	r3, [r3, #0]
   b91f8:	9301      	str	r3, [sp, #4]
   b91fa:	bd08      	pop	{r3, pc}
   b91fc:	00030224 	.word	0x00030224

000b9200 <HAL_Tone_Stop>:
DYNALIB_FN(1, hal_peripherals, HAL_Tone_Stop, void(uint8_t))
   b9200:	b508      	push	{r3, lr}
   b9202:	4b02      	ldr	r3, [pc, #8]	; (b920c <HAL_Tone_Stop+0xc>)
   b9204:	681b      	ldr	r3, [r3, #0]
   b9206:	685b      	ldr	r3, [r3, #4]
   b9208:	9301      	str	r3, [sp, #4]
   b920a:	bd08      	pop	{r3, pc}
   b920c:	00030224 	.word	0x00030224

000b9210 <HAL_USB_USART_Init>:
#endif

DYNALIB_BEGIN(hal_usb)

#ifdef USB_CDC_ENABLE
DYNALIB_FN(0, hal_usb, HAL_USB_USART_Init, void(HAL_USB_USART_Serial, const HAL_USB_USART_Config*))
   b9210:	b508      	push	{r3, lr}
   b9212:	4b02      	ldr	r3, [pc, #8]	; (b921c <HAL_USB_USART_Init+0xc>)
   b9214:	681b      	ldr	r3, [r3, #0]
   b9216:	681b      	ldr	r3, [r3, #0]
   b9218:	9301      	str	r3, [sp, #4]
   b921a:	bd08      	pop	{r3, pc}
   b921c:	0003024c 	.word	0x0003024c

000b9220 <HAL_USB_USART_Begin>:
DYNALIB_FN(1, hal_usb, HAL_USB_USART_Begin, void(HAL_USB_USART_Serial, uint32_t, void *))
   b9220:	b508      	push	{r3, lr}
   b9222:	4b02      	ldr	r3, [pc, #8]	; (b922c <HAL_USB_USART_Begin+0xc>)
   b9224:	681b      	ldr	r3, [r3, #0]
   b9226:	685b      	ldr	r3, [r3, #4]
   b9228:	9301      	str	r3, [sp, #4]
   b922a:	bd08      	pop	{r3, pc}
   b922c:	0003024c 	.word	0x0003024c

000b9230 <HAL_USB_USART_Available_Data>:
DYNALIB_FN(2, hal_usb, HAL_USB_USART_End, void(HAL_USB_USART_Serial))
DYNALIB_FN(3, hal_usb, HAL_USB_USART_Baud_Rate, unsigned int(HAL_USB_USART_Serial))
DYNALIB_FN(4, hal_usb, HAL_USB_USART_Available_Data, int32_t(HAL_USB_USART_Serial))
   b9230:	b508      	push	{r3, lr}
   b9232:	4b02      	ldr	r3, [pc, #8]	; (b923c <HAL_USB_USART_Available_Data+0xc>)
   b9234:	681b      	ldr	r3, [r3, #0]
   b9236:	691b      	ldr	r3, [r3, #16]
   b9238:	9301      	str	r3, [sp, #4]
   b923a:	bd08      	pop	{r3, pc}
   b923c:	0003024c 	.word	0x0003024c

000b9240 <HAL_USB_USART_Available_Data_For_Write>:
DYNALIB_FN(5, hal_usb, HAL_USB_USART_Available_Data_For_Write, int32_t(HAL_USB_USART_Serial))
   b9240:	b508      	push	{r3, lr}
   b9242:	4b02      	ldr	r3, [pc, #8]	; (b924c <HAL_USB_USART_Available_Data_For_Write+0xc>)
   b9244:	681b      	ldr	r3, [r3, #0]
   b9246:	695b      	ldr	r3, [r3, #20]
   b9248:	9301      	str	r3, [sp, #4]
   b924a:	bd08      	pop	{r3, pc}
   b924c:	0003024c 	.word	0x0003024c

000b9250 <HAL_USB_USART_Receive_Data>:
DYNALIB_FN(6, hal_usb, HAL_USB_USART_Receive_Data, int32_t(HAL_USB_USART_Serial, uint8_t))
   b9250:	b508      	push	{r3, lr}
   b9252:	4b02      	ldr	r3, [pc, #8]	; (b925c <HAL_USB_USART_Receive_Data+0xc>)
   b9254:	681b      	ldr	r3, [r3, #0]
   b9256:	699b      	ldr	r3, [r3, #24]
   b9258:	9301      	str	r3, [sp, #4]
   b925a:	bd08      	pop	{r3, pc}
   b925c:	0003024c 	.word	0x0003024c

000b9260 <HAL_USB_USART_Send_Data>:
DYNALIB_FN(7, hal_usb, HAL_USB_USART_Send_Data, int32_t(HAL_USB_USART_Serial, uint8_t))
   b9260:	b508      	push	{r3, lr}
   b9262:	4b02      	ldr	r3, [pc, #8]	; (b926c <HAL_USB_USART_Send_Data+0xc>)
   b9264:	681b      	ldr	r3, [r3, #0]
   b9266:	69db      	ldr	r3, [r3, #28]
   b9268:	9301      	str	r3, [sp, #4]
   b926a:	bd08      	pop	{r3, pc}
   b926c:	0003024c 	.word	0x0003024c

000b9270 <HAL_USB_USART_Flush_Data>:
DYNALIB_FN(8, hal_usb, HAL_USB_USART_Flush_Data, void(HAL_USB_USART_Serial))
   b9270:	b508      	push	{r3, lr}
   b9272:	4b02      	ldr	r3, [pc, #8]	; (b927c <HAL_USB_USART_Flush_Data+0xc>)
   b9274:	681b      	ldr	r3, [r3, #0]
   b9276:	6a1b      	ldr	r3, [r3, #32]
   b9278:	9301      	str	r3, [sp, #4]
   b927a:	bd08      	pop	{r3, pc}
   b927c:	0003024c 	.word	0x0003024c

000b9280 <panic_>:
DYNALIB_FN(9, services, LED_Toggle, void(Led_TypeDef))
DYNALIB_FN(10, services, LED_Fade, void(Led_TypeDef))
DYNALIB_FN(11, services, Get_LED_Brightness, uint8_t(void))

DYNALIB_FN(12, services, set_logger_output, void(debug_output_fn, LoggerOutputLevel)) // Deprecated
DYNALIB_FN(13, services, panic_, void(ePanicCode, void*, void(*)(uint32_t)))
   b9280:	b508      	push	{r3, lr}
   b9282:	4b02      	ldr	r3, [pc, #8]	; (b928c <panic_+0xc>)
   b9284:	681b      	ldr	r3, [r3, #0]
   b9286:	6b5b      	ldr	r3, [r3, #52]	; 0x34
   b9288:	9301      	str	r3, [sp, #4]
   b928a:	bd08      	pop	{r3, pc}
   b928c:	00030260 	.word	0x00030260

000b9290 <set_system_mode>:
#endif

DYNALIB_BEGIN(system)

DYNALIB_FN(0, system, system_mode, System_Mode_TypeDef(void))
DYNALIB_FN(1, system, set_system_mode, void(System_Mode_TypeDef))
   b9290:	b508      	push	{r3, lr}
   b9292:	4b02      	ldr	r3, [pc, #8]	; (b929c <set_system_mode+0xc>)
   b9294:	681b      	ldr	r3, [r3, #0]
   b9296:	685b      	ldr	r3, [r3, #4]
   b9298:	9301      	str	r3, [sp, #4]
   b929a:	bd08      	pop	{r3, pc}
   b929c:	00030220 	.word	0x00030220

000b92a0 <system_delay_ms>:

DYNALIB_FN(2, system, set_ymodem_serial_flash_update_handler, void(ymodem_serial_flash_update_handler))
DYNALIB_FN(3, system, system_firmwareUpdate, bool(Stream*, void*))
DYNALIB_FN(4, system, system_fileTransfer, bool(system_file_transfer_t*, void*))

DYNALIB_FN(5, system, system_delay_ms, void(unsigned long, bool))
   b92a0:	b508      	push	{r3, lr}
   b92a2:	4b02      	ldr	r3, [pc, #8]	; (b92ac <system_delay_ms+0xc>)
   b92a4:	681b      	ldr	r3, [r3, #0]
   b92a6:	695b      	ldr	r3, [r3, #20]
   b92a8:	9301      	str	r3, [sp, #4]
   b92aa:	bd08      	pop	{r3, pc}
   b92ac:	00030220 	.word	0x00030220

000b92b0 <system_ctrl_set_app_request_handler>:
DYNALIB_FN(BASE_IDX + 6, system, led_pattern_period, uint16_t(int, int, void*))
DYNALIB_FN(BASE_IDX + 7, system, system_set_tester_handlers, int(system_tester_handlers_t*, void*))
DYNALIB_FN(BASE_IDX + 8, system, system_format_diag_data, int(const uint16_t*, size_t, unsigned, appender_fn, void*, void*))

// Control requests
DYNALIB_FN(BASE_IDX + 9, system, system_ctrl_set_app_request_handler, int(ctrl_request_handler_fn, void*))
   b92b0:	b508      	push	{r3, lr}
   b92b2:	4b03      	ldr	r3, [pc, #12]	; (b92c0 <system_ctrl_set_app_request_handler+0x10>)
   b92b4:	681b      	ldr	r3, [r3, #0]
   b92b6:	f8d3 3088 	ldr.w	r3, [r3, #136]	; 0x88
   b92ba:	9301      	str	r3, [sp, #4]
   b92bc:	bd08      	pop	{r3, pc}
   b92be:	0000      	.short	0x0000
   b92c0:	00030220 	.word	0x00030220

000b92c4 <system_ctrl_set_result>:
DYNALIB_FN(BASE_IDX + 10, system, system_ctrl_alloc_reply_data, int(ctrl_request*, size_t, void*))
DYNALIB_FN(BASE_IDX + 11, system, system_ctrl_free_request_data, void(ctrl_request*, void*))
DYNALIB_FN(BASE_IDX + 12, system, system_ctrl_set_result, void(ctrl_request*, int, ctrl_completion_handler_fn, void*, void*))
   b92c4:	b508      	push	{r3, lr}
   b92c6:	4b03      	ldr	r3, [pc, #12]	; (b92d4 <system_ctrl_set_result+0x10>)
   b92c8:	681b      	ldr	r3, [r3, #0]
   b92ca:	f8d3 3094 	ldr.w	r3, [r3, #148]	; 0x94
   b92ce:	9301      	str	r3, [sp, #4]
   b92d0:	bd08      	pop	{r3, pc}
   b92d2:	0000      	.short	0x0000
   b92d4:	00030220 	.word	0x00030220

000b92d8 <network_connect>:
#endif

DYNALIB_BEGIN(system_net)

DYNALIB_FN(0, system_net, network_config, const void*(network_handle_t, uint32_t, void*))
DYNALIB_FN(1, system_net, network_connect, void(network_handle_t, uint32_t, uint32_t, void*))
   b92d8:	b508      	push	{r3, lr}
   b92da:	4b02      	ldr	r3, [pc, #8]	; (b92e4 <network_connect+0xc>)
   b92dc:	681b      	ldr	r3, [r3, #0]
   b92de:	685b      	ldr	r3, [r3, #4]
   b92e0:	9301      	str	r3, [sp, #4]
   b92e2:	bd08      	pop	{r3, pc}
   b92e4:	00030240 	.word	0x00030240

000b92e8 <network_connecting>:
DYNALIB_FN(2, system_net, network_connecting, bool(network_handle_t, uint32_t, void*))
   b92e8:	b508      	push	{r3, lr}
   b92ea:	4b02      	ldr	r3, [pc, #8]	; (b92f4 <network_connecting+0xc>)
   b92ec:	681b      	ldr	r3, [r3, #0]
   b92ee:	689b      	ldr	r3, [r3, #8]
   b92f0:	9301      	str	r3, [sp, #4]
   b92f2:	bd08      	pop	{r3, pc}
   b92f4:	00030240 	.word	0x00030240

000b92f8 <network_disconnect>:
DYNALIB_FN(3, system_net, network_disconnect, void(network_handle_t, uint32_t, void*))
   b92f8:	b508      	push	{r3, lr}
   b92fa:	4b02      	ldr	r3, [pc, #8]	; (b9304 <network_disconnect+0xc>)
   b92fc:	681b      	ldr	r3, [r3, #0]
   b92fe:	68db      	ldr	r3, [r3, #12]
   b9300:	9301      	str	r3, [sp, #4]
   b9302:	bd08      	pop	{r3, pc}
   b9304:	00030240 	.word	0x00030240

000b9308 <network_ready>:
DYNALIB_FN(4, system_net, network_ready, bool(network_handle_t, uint32_t, void*))
   b9308:	b508      	push	{r3, lr}
   b930a:	4b02      	ldr	r3, [pc, #8]	; (b9314 <network_ready+0xc>)
   b930c:	681b      	ldr	r3, [r3, #0]
   b930e:	691b      	ldr	r3, [r3, #16]
   b9310:	9301      	str	r3, [sp, #4]
   b9312:	bd08      	pop	{r3, pc}
   b9314:	00030240 	.word	0x00030240

000b9318 <network_on>:
DYNALIB_FN(5, system_net, network_on, void(network_handle_t, uint32_t, uint32_t, void*))
   b9318:	b508      	push	{r3, lr}
   b931a:	4b02      	ldr	r3, [pc, #8]	; (b9324 <network_on+0xc>)
   b931c:	681b      	ldr	r3, [r3, #0]
   b931e:	695b      	ldr	r3, [r3, #20]
   b9320:	9301      	str	r3, [sp, #4]
   b9322:	bd08      	pop	{r3, pc}
   b9324:	00030240 	.word	0x00030240

000b9328 <network_off>:
DYNALIB_FN(6, system_net, network_off, void(network_handle_t, uint32_t, uint32_t, void*))
   b9328:	b508      	push	{r3, lr}
   b932a:	4b02      	ldr	r3, [pc, #8]	; (b9334 <network_off+0xc>)
   b932c:	681b      	ldr	r3, [r3, #0]
   b932e:	699b      	ldr	r3, [r3, #24]
   b9330:	9301      	str	r3, [sp, #4]
   b9332:	bd08      	pop	{r3, pc}
   b9334:	00030240 	.word	0x00030240

000b9338 <network_listen>:
DYNALIB_FN(7, system_net, network_listen, void(network_handle_t, uint32_t, void*))
   b9338:	b508      	push	{r3, lr}
   b933a:	4b02      	ldr	r3, [pc, #8]	; (b9344 <network_listen+0xc>)
   b933c:	681b      	ldr	r3, [r3, #0]
   b933e:	69db      	ldr	r3, [r3, #28]
   b9340:	9301      	str	r3, [sp, #4]
   b9342:	bd08      	pop	{r3, pc}
   b9344:	00030240 	.word	0x00030240

000b9348 <network_listening>:
DYNALIB_FN(8, system_net, network_listening, bool(network_handle_t, uint32_t, void*))
   b9348:	b508      	push	{r3, lr}
   b934a:	4b02      	ldr	r3, [pc, #8]	; (b9354 <network_listening+0xc>)
   b934c:	681b      	ldr	r3, [r3, #0]
   b934e:	6a1b      	ldr	r3, [r3, #32]
   b9350:	9301      	str	r3, [sp, #4]
   b9352:	bd08      	pop	{r3, pc}
   b9354:	00030240 	.word	0x00030240

000b9358 <network_set_listen_timeout>:
DYNALIB_FN(9, system_net, network_has_credentials, bool(network_handle_t, uint32_t, void*))
DYNALIB_FN(10, system_net, network_set_credentials, int(network_handle_t, uint32_t, NetworkCredentials*, void*))
DYNALIB_FN(11, system_net, network_clear_credentials, bool(network_handle_t, uint32_t, NetworkCredentials*, void*))
DYNALIB_FN(12, system_net, network_set_listen_timeout, void(network_handle_t, uint16_t, void*))
   b9358:	b508      	push	{r3, lr}
   b935a:	4b02      	ldr	r3, [pc, #8]	; (b9364 <network_set_listen_timeout+0xc>)
   b935c:	681b      	ldr	r3, [r3, #0]
   b935e:	6b1b      	ldr	r3, [r3, #48]	; 0x30
   b9360:	9301      	str	r3, [sp, #4]
   b9362:	bd08      	pop	{r3, pc}
   b9364:	00030240 	.word	0x00030240

000b9368 <network_get_listen_timeout>:
DYNALIB_FN(13, system_net, network_get_listen_timeout, uint16_t(network_handle_t, uint32_t, void*))
   b9368:	b508      	push	{r3, lr}
   b936a:	4b02      	ldr	r3, [pc, #8]	; (b9374 <network_get_listen_timeout+0xc>)
   b936c:	681b      	ldr	r3, [r3, #0]
   b936e:	6b5b      	ldr	r3, [r3, #52]	; 0x34
   b9370:	9301      	str	r3, [sp, #4]
   b9372:	bd08      	pop	{r3, pc}
   b9374:	00030240 	.word	0x00030240

000b9378 <network_is_on>:
DYNALIB_FN(14, system_net, network_set_hostname, int(network_handle_t, uint32_t, const char*, void*))
DYNALIB_FN(15, system_net, network_get_hostname, int(network_handle_t, uint32_t, char*, size_t, void*))
DYNALIB_FN(16, system_net, network_is_on, bool(network_handle_t, void*))
   b9378:	b508      	push	{r3, lr}
   b937a:	4b02      	ldr	r3, [pc, #8]	; (b9384 <network_is_on+0xc>)
   b937c:	681b      	ldr	r3, [r3, #0]
   b937e:	6c1b      	ldr	r3, [r3, #64]	; 0x40
   b9380:	9301      	str	r3, [sp, #4]
   b9382:	bd08      	pop	{r3, pc}
   b9384:	00030240 	.word	0x00030240

000b9388 <network_is_off>:
DYNALIB_FN(17, system_net, network_is_off, bool(network_handle_t, void*))
   b9388:	b508      	push	{r3, lr}
   b938a:	4b02      	ldr	r3, [pc, #8]	; (b9394 <network_is_off+0xc>)
   b938c:	681b      	ldr	r3, [r3, #0]
   b938e:	6c5b      	ldr	r3, [r3, #68]	; 0x44
   b9390:	9301      	str	r3, [sp, #4]
   b9392:	bd08      	pop	{r3, pc}
   b9394:	00030240 	.word	0x00030240

000b9398 <spark_set_random_seed_from_cloud_handler>:
DYNALIB_FN(10, system_cloud, spark_unsubscribe, void(void*))
DYNALIB_FN(11, system_cloud, spark_sync_time, bool(void*))
DYNALIB_FN(12, system_cloud, spark_sync_time_pending, bool(void*))
DYNALIB_FN(13, system_cloud, spark_sync_time_last, system_tick_t(time32_t*, time_t*))
DYNALIB_FN(14, system_cloud, spark_set_connection_property, int(unsigned, unsigned, const void*, void*))
DYNALIB_FN(15, system_cloud, spark_set_random_seed_from_cloud_handler, int(void (*handler)(unsigned int), void*))
   b9398:	b508      	push	{r3, lr}
   b939a:	4b02      	ldr	r3, [pc, #8]	; (b93a4 <spark_set_random_seed_from_cloud_handler+0xc>)
   b939c:	681b      	ldr	r3, [r3, #0]
   b939e:	6bdb      	ldr	r3, [r3, #60]	; 0x3c
   b93a0:	9301      	str	r3, [sp, #4]
   b93a2:	bd08      	pop	{r3, pc}
   b93a4:	00030244 	.word	0x00030244

000b93a8 <spark_cloud_disconnect>:
DYNALIB_FN(16, system_cloud, spark_publish_vitals, int(system_tick_t, void*))
DYNALIB_FN(17, system_cloud, spark_cloud_disconnect, int(const spark_cloud_disconnect_options*, void*))
   b93a8:	b508      	push	{r3, lr}
   b93aa:	4b02      	ldr	r3, [pc, #8]	; (b93b4 <spark_cloud_disconnect+0xc>)
   b93ac:	681b      	ldr	r3, [r3, #0]
   b93ae:	6c5b      	ldr	r3, [r3, #68]	; 0x44
   b93b0:	9301      	str	r3, [sp, #4]
   b93b2:	bd08      	pop	{r3, pc}
   b93b4:	00030244 	.word	0x00030244

000b93b8 <malloc>:
#include "hal_platform.h"
#endif // defined(DYNALIB_EXPORT) || (defined(DYNALIB_IMPORT) && !defined(RT_DYNALIB_NO_DEPENDENCY_BREAKING_IMPORTS))

DYNALIB_BEGIN(rt)

DYNALIB_FN(0, rt, malloc, void*(size_t))
   b93b8:	b508      	push	{r3, lr}
   b93ba:	4b02      	ldr	r3, [pc, #8]	; (b93c4 <malloc+0xc>)
   b93bc:	681b      	ldr	r3, [r3, #0]
   b93be:	681b      	ldr	r3, [r3, #0]
   b93c0:	9301      	str	r3, [sp, #4]
   b93c2:	bd08      	pop	{r3, pc}
   b93c4:	0003021c 	.word	0x0003021c

000b93c8 <free>:
DYNALIB_FN(1, rt, free, void(void*))
   b93c8:	b508      	push	{r3, lr}
   b93ca:	4b02      	ldr	r3, [pc, #8]	; (b93d4 <free+0xc>)
   b93cc:	681b      	ldr	r3, [r3, #0]
   b93ce:	685b      	ldr	r3, [r3, #4]
   b93d0:	9301      	str	r3, [sp, #4]
   b93d2:	bd08      	pop	{r3, pc}
   b93d4:	0003021c 	.word	0x0003021c

000b93d8 <realloc>:
DYNALIB_FN(2, rt, realloc, void*(void*, size_t))
   b93d8:	b508      	push	{r3, lr}
   b93da:	4b02      	ldr	r3, [pc, #8]	; (b93e4 <realloc+0xc>)
   b93dc:	681b      	ldr	r3, [r3, #0]
   b93de:	689b      	ldr	r3, [r3, #8]
   b93e0:	9301      	str	r3, [sp, #4]
   b93e2:	bd08      	pop	{r3, pc}
   b93e4:	0003021c 	.word	0x0003021c

000b93e8 <snprintf>:
DYNALIB_FN(3, rt, sprintf, int(char*, const char*, ...))
DYNALIB_FN(4, rt, siprintf, int(char*, const char*, ...))
DYNALIB_FN(5, rt, sscanf, int(const char*, const char*, ...))
DYNALIB_FN(6, rt, siscanf, int(const char*, const char*, ...))
DYNALIB_FN(7, rt, snprintf, int(char*, size_t, const char*, ...))
   b93e8:	b508      	push	{r3, lr}
   b93ea:	4b02      	ldr	r3, [pc, #8]	; (b93f4 <snprintf+0xc>)
   b93ec:	681b      	ldr	r3, [r3, #0]
   b93ee:	69db      	ldr	r3, [r3, #28]
   b93f0:	9301      	str	r3, [sp, #4]
   b93f2:	bd08      	pop	{r3, pc}
   b93f4:	0003021c 	.word	0x0003021c

000b93f8 <vsnprintf>:
DYNALIB_FN(8, rt, sniprintf, int(char*, size_t, const char*, ...))
DYNALIB_FN(9, rt, vsnprintf, int(char*, size_t, const char*, va_list))
   b93f8:	b508      	push	{r3, lr}
   b93fa:	4b02      	ldr	r3, [pc, #8]	; (b9404 <vsnprintf+0xc>)
   b93fc:	681b      	ldr	r3, [r3, #0]
   b93fe:	6a5b      	ldr	r3, [r3, #36]	; 0x24
   b9400:	9301      	str	r3, [sp, #4]
   b9402:	bd08      	pop	{r3, pc}
   b9404:	0003021c 	.word	0x0003021c

000b9408 <_malloc_r>:
DYNALIB_FN(10, rt, vsniprintf, int(char*, size_t, const char*, va_list))
DYNALIB_FN(11, rt, abort, void(void))
DYNALIB_FN(12, rt, _malloc_r, void*(struct _reent*, size_t))
   b9408:	b508      	push	{r3, lr}
   b940a:	4b02      	ldr	r3, [pc, #8]	; (b9414 <_malloc_r+0xc>)
   b940c:	681b      	ldr	r3, [r3, #0]
   b940e:	6b1b      	ldr	r3, [r3, #48]	; 0x30
   b9410:	9301      	str	r3, [sp, #4]
   b9412:	bd08      	pop	{r3, pc}
   b9414:	0003021c 	.word	0x0003021c

000b9418 <__assert_func>:
// on Gen 2 platforms without breaking inter-module dependencies.
// RT is currently being imported into system-part1 from system-part2,
// which is the reverse direction.

#if defined(DYNALIB_EXPORT) || (defined(DYNALIB_IMPORT) && !defined(RT_DYNALIB_NO_DEPENDENCY_BREAKING_IMPORTS))
DYNALIB_FN(16, rt, __assert_func, void(const char*, int, const char*, const char*))
   b9418:	b508      	push	{r3, lr}
   b941a:	4b02      	ldr	r3, [pc, #8]	; (b9424 <__assert_func+0xc>)
   b941c:	681b      	ldr	r3, [r3, #0]
   b941e:	6c1b      	ldr	r3, [r3, #64]	; 0x40
   b9420:	9301      	str	r3, [sp, #4]
   b9422:	bd08      	pop	{r3, pc}
   b9424:	0003021c 	.word	0x0003021c

000b9428 <newlib_impure_ptr_callback>:
DYNALIB_FN(17, rt, newlib_impure_ptr_callback, void(void (*)(struct _reent*, size_t, uint32_t, void*), void*))
   b9428:	b508      	push	{r3, lr}
   b942a:	4b02      	ldr	r3, [pc, #8]	; (b9434 <newlib_impure_ptr_callback+0xc>)
   b942c:	681b      	ldr	r3, [r3, #0]
   b942e:	6c5b      	ldr	r3, [r3, #68]	; 0x44
   b9430:	9301      	str	r3, [sp, #4]
   b9432:	bd08      	pop	{r3, pc}
   b9434:	0003021c 	.word	0x0003021c

000b9438 <_ZN5spark13EthernetClass9listeningEv>:
    uint16_t getListenTimeout(void) {
        return network_get_listen_timeout(*this, 0, NULL);
    }

    bool listening(void) {
        return network_listening(*this, 0, NULL);
   b9438:	2200      	movs	r2, #0
   b943a:	6840      	ldr	r0, [r0, #4]
   b943c:	4611      	mov	r1, r2
   b943e:	f7ff bf83 	b.w	b9348 <network_listening>

000b9442 <_ZN5spark13EthernetClass16getListenTimeoutEv>:
        return network_get_listen_timeout(*this, 0, NULL);
   b9442:	2200      	movs	r2, #0
   b9444:	6840      	ldr	r0, [r0, #4]
   b9446:	4611      	mov	r1, r2
   b9448:	f7ff bf8e 	b.w	b9368 <network_get_listen_timeout>

000b944c <_ZN5spark13EthernetClass16setListenTimeoutEt>:
        network_set_listen_timeout(*this, timeout, NULL);
   b944c:	6840      	ldr	r0, [r0, #4]
   b944e:	2200      	movs	r2, #0
   b9450:	f7ff bf82 	b.w	b9358 <network_set_listen_timeout>

000b9454 <_ZN5spark13EthernetClass6listenEb>:
        network_listen(*this, begin ? 0 : 1, NULL);
   b9454:	6840      	ldr	r0, [r0, #4]
   b9456:	2200      	movs	r2, #0
   b9458:	f081 0101 	eor.w	r1, r1, #1
   b945c:	f7ff bf6c 	b.w	b9338 <network_listen>

000b9460 <_ZN5spark13EthernetClass3offEv>:
        network_off(*this, 0, 0, NULL);
   b9460:	2300      	movs	r3, #0
   b9462:	6840      	ldr	r0, [r0, #4]
   b9464:	461a      	mov	r2, r3
   b9466:	4619      	mov	r1, r3
   b9468:	f7ff bf5e 	b.w	b9328 <network_off>

000b946c <_ZN5spark13EthernetClass2onEv>:
        network_on(*this, 0, 0, NULL);
   b946c:	2300      	movs	r3, #0
   b946e:	6840      	ldr	r0, [r0, #4]
   b9470:	461a      	mov	r2, r3
   b9472:	4619      	mov	r1, r3
   b9474:	f7ff bf50 	b.w	b9318 <network_on>

000b9478 <_ZN5spark13EthernetClass5readyEv>:
    }

    bool ready() {
        return network_ready(*this, 0,  NULL);
   b9478:	2200      	movs	r2, #0
   b947a:	6840      	ldr	r0, [r0, #4]
   b947c:	4611      	mov	r1, r2
   b947e:	f7ff bf43 	b.w	b9308 <network_ready>

000b9482 <_ZN5spark13EthernetClass10connectingEv>:
        return network_connecting(*this, 0, NULL);
   b9482:	2200      	movs	r2, #0
   b9484:	6840      	ldr	r0, [r0, #4]
   b9486:	4611      	mov	r1, r2
   b9488:	f7ff bf2e 	b.w	b92e8 <network_connecting>

000b948c <_ZN5spark13EthernetClass10disconnectEv>:
        network_disconnect(*this, NETWORK_DISCONNECT_REASON_USER, NULL);
   b948c:	6840      	ldr	r0, [r0, #4]
   b948e:	2200      	movs	r2, #0
   b9490:	2102      	movs	r1, #2
   b9492:	f7ff bf31 	b.w	b92f8 <network_disconnect>

000b9496 <_ZN5spark13EthernetClass7connectEj>:
        network_connect(*this, flags, 0, NULL);
   b9496:	2300      	movs	r3, #0
   b9498:	6840      	ldr	r0, [r0, #4]
   b949a:	461a      	mov	r2, r3
   b949c:	f7ff bf1c 	b.w	b92d8 <network_connect>

000b94a0 <_GLOBAL__sub_I__ZN5spark8EthernetE>:
    static NetworkClass& from(network_interface_t nif);

    virtual IPAddress resolve(const char* name);

    explicit NetworkClass(network_interface_t iface)
            : iface_(iface) {
   b94a0:	4b02      	ldr	r3, [pc, #8]	; (b94ac <_GLOBAL__sub_I__ZN5spark8EthernetE+0xc>)
   b94a2:	2203      	movs	r2, #3
   b94a4:	605a      	str	r2, [r3, #4]
            NetworkClass(NETWORK_INTERFACE_ETHERNET) {
   b94a6:	4a02      	ldr	r2, [pc, #8]	; (b94b0 <_GLOBAL__sub_I__ZN5spark8EthernetE+0x10>)
   b94a8:	601a      	str	r2, [r3, #0]

namespace spark {

EthernetClass Ethernet;

} // spark
   b94aa:	4770      	bx	lr
   b94ac:	2003e6bc 	.word	0x2003e6bc
   b94b0:	000bc9d8 	.word	0x000bc9d8

000b94b4 <_ZN8SPIClass6unlockEv.isra.0>:
  }

  void unlock()
  {
#if HAL_PLATFORM_SPI_HAL_THREAD_SAFETY
    hal_spi_release(_spi, nullptr);
   b94b4:	2100      	movs	r1, #0
   b94b6:	f7ff be93 	b.w	b91e0 <hal_spi_release>

000b94ba <_ZN8SPIClass4lockEv.isra.0>:
    return hal_spi_acquire(_spi, nullptr);
   b94ba:	2100      	movs	r1, #0
   b94bc:	f7ff be88 	b.w	b91d0 <hal_spi_acquire>

000b94c0 <_ZN8SPIClassC1E19hal_spi_interface_t>:
    }
    return particle::SPISettings(info->clock, info->bit_order, info->data_mode);
}
} // namespace

SPIClass::SPIClass(hal_spi_interface_t spi)
   b94c0:	b510      	push	{r4, lr}
   b94c2:	4604      	mov	r4, r0
   b94c4:	4608      	mov	r0, r1
{
    _spi = spi;
   b94c6:	7021      	strb	r1, [r4, #0]
    hal_spi_init(_spi);
   b94c8:	f7ff fe62 	bl	b9190 <hal_spi_init>
    _dividerReference = SPI_CLK_SYSTEM; // 0 indicates the system clock
   b94cc:	2300      	movs	r3, #0
   b94ce:	6063      	str	r3, [r4, #4]
}
   b94d0:	4620      	mov	r0, r4
   b94d2:	bd10      	pop	{r4, pc}

000b94d4 <_ZN8SPIClass5beginEv>:

void SPIClass::begin()
{
   b94d4:	b513      	push	{r0, r1, r4, lr}
   b94d6:	4604      	mov	r4, r0
    // TODO: Fetch default pin from HAL
    if (!lock())
   b94d8:	7800      	ldrb	r0, [r0, #0]
   b94da:	f7ff ffee 	bl	b94ba <_ZN8SPIClass4lockEv.isra.0>
   b94de:	b958      	cbnz	r0, b94f8 <_ZN8SPIClass5beginEv+0x24>
   b94e0:	7820      	ldrb	r0, [r4, #0]
    {
        hal_spi_begin(_spi, SPI_DEFAULT_SS);
   b94e2:	9001      	str	r0, [sp, #4]
   b94e4:	f64f 71ff 	movw	r1, #65535	; 0xffff
   b94e8:	f7ff fe42 	bl	b9170 <hal_spi_begin>
        unlock();
   b94ec:	9801      	ldr	r0, [sp, #4]
    }
}
   b94ee:	b002      	add	sp, #8
   b94f0:	e8bd 4010 	ldmia.w	sp!, {r4, lr}
   b94f4:	f7ff bfde 	b.w	b94b4 <_ZN8SPIClass6unlockEv.isra.0>
   b94f8:	b002      	add	sp, #8
   b94fa:	bd10      	pop	{r4, pc}

000b94fc <_ZN8SPIClass14endTransactionEv>:
}

void SPIClass::endTransaction()
{
    // Release peripheral
    unlock();
   b94fc:	7800      	ldrb	r0, [r0, #0]
   b94fe:	f7ff bfd9 	b.w	b94b4 <_ZN8SPIClass6unlockEv.isra.0>
	...

000b9504 <_ZN8SPIClass19computeClockDividerEjjRhRj>:
void SPIClass::computeClockDivider(unsigned reference, unsigned targetSpeed, uint8_t& divider,
                                   unsigned& clock)
{
    clock = reference;
    uint8_t scale = 0;
    clock >>= 1; // div2 is the first
   b9504:	0840      	lsrs	r0, r0, #1
{
   b9506:	b530      	push	{r4, r5, lr}
    clock >>= 1; // div2 is the first
   b9508:	6018      	str	r0, [r3, #0]
   b950a:	2400      	movs	r4, #0
    while (clock > targetSpeed && scale < 7)
   b950c:	6818      	ldr	r0, [r3, #0]
   b950e:	4288      	cmp	r0, r1
   b9510:	b2e5      	uxtb	r5, r4
   b9512:	d906      	bls.n	b9522 <_ZN8SPIClass19computeClockDividerEjjRhRj+0x1e>
   b9514:	3401      	adds	r4, #1
   b9516:	2c08      	cmp	r4, #8
   b9518:	d002      	beq.n	b9520 <_ZN8SPIClass19computeClockDividerEjjRhRj+0x1c>
    {
        clock >>= 1;
   b951a:	0840      	lsrs	r0, r0, #1
   b951c:	6018      	str	r0, [r3, #0]
    while (clock > targetSpeed && scale < 7)
   b951e:	e7f5      	b.n	b950c <_ZN8SPIClass19computeClockDividerEjjRhRj+0x8>
   b9520:	2507      	movs	r5, #7
        scale++;
    }
    divider = clock_divisors[scale];
   b9522:	4b02      	ldr	r3, [pc, #8]	; (b952c <_ZN8SPIClass19computeClockDividerEjjRhRj+0x28>)
   b9524:	5d5b      	ldrb	r3, [r3, r5]
   b9526:	7013      	strb	r3, [r2, #0]
}
   b9528:	bd30      	pop	{r4, r5, pc}
   b952a:	bf00      	nop
   b952c:	000bca0c 	.word	0x000bca0c

000b9530 <_ZN8SPIClass16beginTransactionERKN8particle11SPISettingsE>:
{
   b9530:	e92d 43f0 	stmdb	sp!, {r4, r5, r6, r7, r8, r9, lr}
   b9534:	4606      	mov	r6, r0
   b9536:	b08f      	sub	sp, #60	; 0x3c
    CHECK(lock());
   b9538:	7800      	ldrb	r0, [r0, #0]
{
   b953a:	460c      	mov	r4, r1
    CHECK(lock());
   b953c:	f7ff ffbd 	bl	b94ba <_ZN8SPIClass4lockEv.isra.0>
   b9540:	2800      	cmp	r0, #0
   b9542:	db1b      	blt.n	b957c <_ZN8SPIClass16beginTransactionERKN8particle11SPISettingsE+0x4c>
    querySpiInfo(_spi, &spi_info);
   b9544:	7835      	ldrb	r5, [r6, #0]
    memset(info, 0, sizeof(hal_spi_info_t));
   b9546:	2214      	movs	r2, #20
   b9548:	2100      	movs	r1, #0
   b954a:	a809      	add	r0, sp, #36	; 0x24
   b954c:	f001 fb46 	bl	babdc <memset>
    info->version = HAL_SPI_INFO_VERSION_1;
   b9550:	230b      	movs	r3, #11
    hal_spi_info(spi, info, nullptr);
   b9552:	2200      	movs	r2, #0
   b9554:	a909      	add	r1, sp, #36	; 0x24
   b9556:	4628      	mov	r0, r5
    info->version = HAL_SPI_INFO_VERSION_1;
   b9558:	f8ad 3024 	strh.w	r3, [sp, #36]	; 0x24
    hal_spi_info(spi, info, nullptr);
   b955c:	f7ff fe28 	bl	b91b0 <hal_spi_info>
    if (!info || !info->enabled || info->default_settings)
   b9560:	f89d 302d 	ldrb.w	r3, [sp, #45]	; 0x2d
   b9564:	b113      	cbz	r3, b956c <_ZN8SPIClass16beginTransactionERKN8particle11SPISettingsE+0x3c>
   b9566:	f89d 502c 	ldrb.w	r5, [sp, #44]	; 0x2c
   b956a:	b155      	cbz	r5, b9582 <_ZN8SPIClass16beginTransactionERKN8particle11SPISettingsE+0x52>
  {
   b956c:	2700      	movs	r7, #0
   b956e:	46b9      	mov	r9, r7
   b9570:	46b8      	mov	r8, r7
   b9572:	2501      	movs	r5, #1
    if (default_ && other.default_)
   b9574:	7923      	ldrb	r3, [r4, #4]
   b9576:	b15d      	cbz	r5, b9590 <_ZN8SPIClass16beginTransactionERKN8particle11SPISettingsE+0x60>
   b9578:	b1c3      	cbz	r3, b95ac <_ZN8SPIClass16beginTransactionERKN8particle11SPISettingsE+0x7c>
    return 0;
   b957a:	2000      	movs	r0, #0
}
   b957c:	b00f      	add	sp, #60	; 0x3c
   b957e:	e8bd 83f0 	ldmia.w	sp!, {r4, r5, r6, r7, r8, r9, pc}
    return particle::SPISettings(info->clock, info->bit_order, info->data_mode);
   b9582:	f8dd 8030 	ldr.w	r8, [sp, #48]	; 0x30
   b9586:	f89d 9034 	ldrb.w	r9, [sp, #52]	; 0x34
   b958a:	f89d 7035 	ldrb.w	r7, [sp, #53]	; 0x35
  }
   b958e:	e7f1      	b.n	b9574 <_ZN8SPIClass16beginTransactionERKN8particle11SPISettingsE+0x44>
    if (default_ == other.default_ &&
   b9590:	2b00      	cmp	r3, #0
   b9592:	d135      	bne.n	b9600 <_ZN8SPIClass16beginTransactionERKN8particle11SPISettingsE+0xd0>
   b9594:	68a3      	ldr	r3, [r4, #8]
   b9596:	4543      	cmp	r3, r8
   b9598:	d108      	bne.n	b95ac <_ZN8SPIClass16beginTransactionERKN8particle11SPISettingsE+0x7c>
        bitOrder_ == other.bitOrder_ &&
   b959a:	f88d 9020 	strb.w	r9, [sp, #32]
   b959e:	f88d 7021 	strb.w	r7, [sp, #33]	; 0x21
   b95a2:	f8bd 2020 	ldrh.w	r2, [sp, #32]
   b95a6:	89a3      	ldrh	r3, [r4, #12]
   b95a8:	429a      	cmp	r2, r3
   b95aa:	d0e6      	beq.n	b957a <_ZN8SPIClass16beginTransactionERKN8particle11SPISettingsE+0x4a>
            uint8_t divisor = 0;
   b95ac:	2300      	movs	r3, #0
            computeClockDivider((unsigned int)spi_info.system_clock, settings.clock_, divisor,
   b95ae:	68a1      	ldr	r1, [r4, #8]
            uint8_t divisor = 0;
   b95b0:	f88d 300f 	strb.w	r3, [sp, #15]
            computeClockDivider((unsigned int)spi_info.system_clock, settings.clock_, divisor,
   b95b4:	980a      	ldr	r0, [sp, #40]	; 0x28
   b95b6:	ab04      	add	r3, sp, #16
   b95b8:	f10d 020f 	add.w	r2, sp, #15
   b95bc:	f7ff ffa2 	bl	b9504 <_ZN8SPIClass19computeClockDividerEjjRhRj>
    if (default_ && other.default_)
   b95c0:	7921      	ldrb	r1, [r4, #4]
   b95c2:	b985      	cbnz	r5, b95e6 <_ZN8SPIClass16beginTransactionERKN8particle11SPISettingsE+0xb6>
    if (default_ == other.default_ &&
   b95c4:	b989      	cbnz	r1, b95ea <_ZN8SPIClass16beginTransactionERKN8particle11SPISettingsE+0xba>
   b95c6:	68a3      	ldr	r3, [r4, #8]
   b95c8:	4543      	cmp	r3, r8
   b95ca:	d30e      	bcc.n	b95ea <_ZN8SPIClass16beginTransactionERKN8particle11SPISettingsE+0xba>
        bitOrder_ == other.bitOrder_ &&
   b95cc:	f88d 9020 	strb.w	r9, [sp, #32]
   b95d0:	f88d 7021 	strb.w	r7, [sp, #33]	; 0x21
   b95d4:	f8bd 2020 	ldrh.w	r2, [sp, #32]
   b95d8:	89a3      	ldrh	r3, [r4, #12]
   b95da:	429a      	cmp	r2, r3
   b95dc:	d105      	bne.n	b95ea <_ZN8SPIClass16beginTransactionERKN8particle11SPISettingsE+0xba>
            if (!(spi_settings <= settings && clock == spi_settings.clock_))
   b95de:	9b04      	ldr	r3, [sp, #16]
   b95e0:	4543      	cmp	r3, r8
   b95e2:	d102      	bne.n	b95ea <_ZN8SPIClass16beginTransactionERKN8particle11SPISettingsE+0xba>
   b95e4:	e7c9      	b.n	b957a <_ZN8SPIClass16beginTransactionERKN8particle11SPISettingsE+0x4a>
    if (default_ && other.default_)
   b95e6:	2900      	cmp	r1, #0
   b95e8:	d1f9      	bne.n	b95de <_ZN8SPIClass16beginTransactionERKN8particle11SPISettingsE+0xae>
                hal_spi_set_settings(_spi, settings.default_, divisor, settings.bitOrder_,
   b95ea:	2300      	movs	r3, #0
   b95ec:	9301      	str	r3, [sp, #4]
   b95ee:	7b63      	ldrb	r3, [r4, #13]
   b95f0:	9300      	str	r3, [sp, #0]
   b95f2:	f89d 200f 	ldrb.w	r2, [sp, #15]
   b95f6:	7b23      	ldrb	r3, [r4, #12]
            hal_spi_set_settings(_spi, settings.default_, 0, 0, 0, nullptr);
   b95f8:	7830      	ldrb	r0, [r6, #0]
   b95fa:	f7ff fde1 	bl	b91c0 <hal_spi_set_settings>
   b95fe:	e7bc      	b.n	b957a <_ZN8SPIClass16beginTransactionERKN8particle11SPISettingsE+0x4a>
   b9600:	e9cd 5500 	strd	r5, r5, [sp]
   b9604:	462b      	mov	r3, r5
   b9606:	462a      	mov	r2, r5
   b9608:	2101      	movs	r1, #1
   b960a:	e7f5      	b.n	b95f8 <_ZN8SPIClass16beginTransactionERKN8particle11SPISettingsE+0xc8>

000b960c <_ZN8SPIClass8transferEh>:

    return clock;
}

byte SPIClass::transfer(byte _data)
{
   b960c:	b508      	push	{r3, lr}
    return static_cast<byte>(hal_spi_transfer(_spi, _data));
   b960e:	7800      	ldrb	r0, [r0, #0]
   b9610:	f7ff fdb6 	bl	b9180 <hal_spi_transfer>
}
   b9614:	b2c0      	uxtb	r0, r0
   b9616:	bd08      	pop	{r3, pc}

000b9618 <_GLOBAL__sub_I_System>:
} // namespace particle

// particle::Flag<TagT, ValueT>
template<typename TagT, typename ValueT>
inline particle::Flag<TagT, ValueT>::Flag(ValueT val) :
        val_(val) {
   b9618:	4b05      	ldr	r3, [pc, #20]	; (b9630 <_GLOBAL__sub_I_System+0x18>)
   b961a:	2202      	movs	r2, #2
   b961c:	601a      	str	r2, [r3, #0]

class SystemSleepResult {
public:
    SystemSleepResult()
            : wakeupSource_(nullptr),
              error_(SYSTEM_ERROR_NONE) {
   b961e:	4b05      	ldr	r3, [pc, #20]	; (b9634 <_GLOBAL__sub_I_System+0x1c>)
    SleepResult() {}
   b9620:	4a05      	ldr	r2, [pc, #20]	; (b9638 <_GLOBAL__sub_I_System+0x20>)
   b9622:	609a      	str	r2, [r3, #8]
              error_(SYSTEM_ERROR_NONE) {
   b9624:	2000      	movs	r0, #0
   b9626:	e9c3 0000 	strd	r0, r0, [r3]

class SystemClass {
public:

    SystemClass(System_Mode_TypeDef mode = DEFAULT) {
        set_system_mode(mode);
   b962a:	f7ff be31 	b.w	b9290 <set_system_mode>
   b962e:	bf00      	nop
   b9630:	2003e6d0 	.word	0x2003e6d0
   b9634:	2003e6c4 	.word	0x2003e6c4
   b9638:	ffff0000 	.word	0xffff0000

000b963c <_Z11str_reversePc>:

//------------------------------------------------------------------------------------------
#define BUFSIZE (sizeof(long) * 8 + 1)

//utility function used by ultoa()
__attribute__((weak)) void str_reverse(char* buffer){
   b963c:	b510      	push	{r4, lr}
   b963e:	4604      	mov	r4, r0
	char *i, *j;
	char c;
	i=buffer;
	j=buffer + strlen(buffer)-1;
   b9640:	f001 fb1a 	bl	bac78 <strlen>
   b9644:	3801      	subs	r0, #1
   b9646:	1823      	adds	r3, r4, r0
   b9648:	4620      	mov	r0, r4
	while(i<j){
   b964a:	4283      	cmp	r3, r0
   b964c:	d906      	bls.n	b965c <_Z11str_reversePc+0x20>
		c = *i;
   b964e:	7802      	ldrb	r2, [r0, #0]
		*i = *j;
   b9650:	7819      	ldrb	r1, [r3, #0]
   b9652:	f800 1b01 	strb.w	r1, [r0], #1
		*j = c;
   b9656:	f803 2901 	strb.w	r2, [r3], #-1
	while(i<j){
   b965a:	e7f6      	b.n	b964a <_Z11str_reversePc+0xe>
		++i;
		--j;
	}
}
   b965c:	bd10      	pop	{r4, pc}

000b965e <ultoa>:
      memcpy(head, ++tail, i);
      return str;
}

//convert unsigned long to string
__attribute__((weak)) char* ultoa(unsigned long a, char* buffer, int radix, char pad){
   b965e:	b570      	push	{r4, r5, r6, lr}
   b9660:	460c      	mov	r4, r1
	if(radix<2 || radix>36){
   b9662:	1e91      	subs	r1, r2, #2
   b9664:	2922      	cmp	r1, #34	; 0x22
   b9666:	d81d      	bhi.n	b96a4 <ultoa+0x46>
		return NULL;
	}
	char* ptr=buffer;
   b9668:	4625      	mov	r5, r4

	div_t result;
	while(a){
   b966a:	b930      	cbnz	r0, b967a <ultoa+0x1c>
                *ptr += 'a'-10;
            }
            ++ptr;
            a = result.quot;
	}
        while (ptr < buffer+pad)
   b966c:	4423      	add	r3, r4
            *ptr++ = '0';
   b966e:	2230      	movs	r2, #48	; 0x30
        while (ptr < buffer+pad)
   b9670:	429d      	cmp	r5, r3
   b9672:	d210      	bcs.n	b9696 <ultoa+0x38>
            *ptr++ = '0';
   b9674:	f805 2b01 	strb.w	r2, [r5], #1
        while (ptr < buffer+pad)
   b9678:	e7fa      	b.n	b9670 <ultoa+0x12>
            result.quot = a/radix;
   b967a:	fbb0 f6f2 	udiv	r6, r0, r2
            result.rem = a%radix;
   b967e:	fb02 0016 	mls	r0, r2, r6, r0
            *ptr = result.rem;
   b9682:	b2c1      	uxtb	r1, r0
            if(result.rem<10){
   b9684:	2809      	cmp	r0, #9
                *ptr += '0';
   b9686:	bf94      	ite	ls
   b9688:	3130      	addls	r1, #48	; 0x30
                *ptr += 'a'-10;
   b968a:	3157      	addhi	r1, #87	; 0x57
   b968c:	b2c9      	uxtb	r1, r1
   b968e:	f805 1b01 	strb.w	r1, [r5], #1
            a = result.quot;
   b9692:	4630      	mov	r0, r6
	while(a){
   b9694:	e7e9      	b.n	b966a <ultoa+0xc>

	*ptr = '\0';
   b9696:	2300      	movs	r3, #0
	str_reverse(buffer);
   b9698:	4620      	mov	r0, r4
	*ptr = '\0';
   b969a:	702b      	strb	r3, [r5, #0]
	str_reverse(buffer);
   b969c:	f7ff ffce 	bl	b963c <_Z11str_reversePc>
	return buffer;
   b96a0:	4620      	mov	r0, r4
}
   b96a2:	bd70      	pop	{r4, r5, r6, pc}
		return NULL;
   b96a4:	2000      	movs	r0, #0
   b96a6:	e7fc      	b.n	b96a2 <ultoa+0x44>

000b96a8 <itoa>:

__attribute__((weak)) char* itoa(int a, char* buffer, int radix){
   b96a8:	b538      	push	{r3, r4, r5, lr}
	if(a<0){
   b96aa:	1e03      	subs	r3, r0, #0
__attribute__((weak)) char* itoa(int a, char* buffer, int radix){
   b96ac:	460c      	mov	r4, r1
   b96ae:	4615      	mov	r5, r2
	if(a<0){
   b96b0:	da0e      	bge.n	b96d0 <itoa+0x28>
		*buffer = '-';
		unsigned v = a==INT_MIN ? ((unsigned)INT_MAX+1) : -a;
   b96b2:	f1b3 4f00 	cmp.w	r3, #2147483648	; 0x80000000
		*buffer = '-';
   b96b6:	f04f 022d 	mov.w	r2, #45	; 0x2d
		unsigned v = a==INT_MIN ? ((unsigned)INT_MAX+1) : -a;
   b96ba:	bf14      	ite	ne
   b96bc:	4258      	negne	r0, r3
   b96be:	4618      	moveq	r0, r3
		ultoa((unsigned)v, buffer + 1, radix);
   b96c0:	2301      	movs	r3, #1
		*buffer = '-';
   b96c2:	700a      	strb	r2, [r1, #0]
		ultoa((unsigned)v, buffer + 1, radix);
   b96c4:	462a      	mov	r2, r5
   b96c6:	4419      	add	r1, r3
	}else{
		ultoa(a, buffer, radix);
   b96c8:	f7ff ffc9 	bl	b965e <ultoa>
	}
	return buffer;
}
   b96cc:	4620      	mov	r0, r4
   b96ce:	bd38      	pop	{r3, r4, r5, pc}
		ultoa(a, buffer, radix);
   b96d0:	2301      	movs	r3, #1
   b96d2:	e7f9      	b.n	b96c8 <itoa+0x20>

000b96d4 <_ZN6StringD1Ev>:
	init();
	char buf[33];
	dtoa(value, decimalPlaces, buf);
        *this = buf;
}
String::~String()
   b96d4:	b510      	push	{r4, lr}
   b96d6:	4604      	mov	r4, r0
{
	free(buffer);
   b96d8:	6800      	ldr	r0, [r0, #0]
   b96da:	f7ff fe75 	bl	b93c8 <free>
}
   b96de:	4620      	mov	r0, r4
   b96e0:	bd10      	pop	{r4, pc}

000b96e2 <_ZN6String10invalidateEv>:
	len = 0;
	flags = 0;
}

void String::invalidate(void)
{
   b96e2:	b510      	push	{r4, lr}
   b96e4:	4604      	mov	r4, r0
	if (buffer) free(buffer);
   b96e6:	6800      	ldr	r0, [r0, #0]
   b96e8:	b108      	cbz	r0, b96ee <_ZN6String10invalidateEv+0xc>
   b96ea:	f7ff fe6d 	bl	b93c8 <free>
	buffer = NULL;
   b96ee:	2300      	movs	r3, #0
	capacity = len = 0;
   b96f0:	e9c4 3301 	strd	r3, r3, [r4, #4]
	buffer = NULL;
   b96f4:	6023      	str	r3, [r4, #0]
}
   b96f6:	bd10      	pop	{r4, pc}

000b96f8 <_ZN6String12changeBufferEj>:
	}
	return 0;
}

unsigned char String::changeBuffer(unsigned int maxStrLen)
{
   b96f8:	b538      	push	{r3, r4, r5, lr}
   b96fa:	4604      	mov	r4, r0
   b96fc:	460d      	mov	r5, r1
	char *newbuffer = (char *)realloc(buffer, maxStrLen + 1);
   b96fe:	6800      	ldr	r0, [r0, #0]
   b9700:	3101      	adds	r1, #1
   b9702:	f7ff fe69 	bl	b93d8 <realloc>
	if (newbuffer) {
   b9706:	b110      	cbz	r0, b970e <_ZN6String12changeBufferEj+0x16>
		buffer = newbuffer;
		capacity = maxStrLen;
   b9708:	e9c4 0500 	strd	r0, r5, [r4]
		return 1;
   b970c:	2001      	movs	r0, #1
	}
	return 0;
}
   b970e:	bd38      	pop	{r3, r4, r5, pc}

000b9710 <_ZN6String7reserveEj>:
{
   b9710:	b510      	push	{r4, lr}
	if (buffer && capacity >= size) return 1;
   b9712:	6803      	ldr	r3, [r0, #0]
{
   b9714:	4604      	mov	r4, r0
	if (buffer && capacity >= size) return 1;
   b9716:	b123      	cbz	r3, b9722 <_ZN6String7reserveEj+0x12>
   b9718:	6843      	ldr	r3, [r0, #4]
   b971a:	428b      	cmp	r3, r1
   b971c:	d301      	bcc.n	b9722 <_ZN6String7reserveEj+0x12>
   b971e:	2001      	movs	r0, #1
}
   b9720:	bd10      	pop	{r4, pc}
	if (changeBuffer(size)) {
   b9722:	4620      	mov	r0, r4
   b9724:	f7ff ffe8 	bl	b96f8 <_ZN6String12changeBufferEj>
   b9728:	2800      	cmp	r0, #0
   b972a:	d0f9      	beq.n	b9720 <_ZN6String7reserveEj+0x10>
		if (len == 0) buffer[0] = 0;
   b972c:	68a3      	ldr	r3, [r4, #8]
   b972e:	2b00      	cmp	r3, #0
   b9730:	d1f5      	bne.n	b971e <_ZN6String7reserveEj+0xe>
   b9732:	6822      	ldr	r2, [r4, #0]
   b9734:	7013      	strb	r3, [r2, #0]
   b9736:	e7f2      	b.n	b971e <_ZN6String7reserveEj+0xe>

000b9738 <_ZN6String4copyEPKcj>:
/*********************************************/
/*  Copy and Move                            */
/*********************************************/

String & String::copy(const char *cstr, unsigned int length)
{
   b9738:	b537      	push	{r0, r1, r2, r4, r5, lr}
   b973a:	460d      	mov	r5, r1
	if (!reserve(length)) {
   b973c:	4611      	mov	r1, r2
   b973e:	9201      	str	r2, [sp, #4]
{
   b9740:	4604      	mov	r4, r0
	if (!reserve(length)) {
   b9742:	f7ff ffe5 	bl	b9710 <_ZN6String7reserveEj>
   b9746:	9a01      	ldr	r2, [sp, #4]
   b9748:	b928      	cbnz	r0, b9756 <_ZN6String4copyEPKcj+0x1e>
		invalidate();
   b974a:	4620      	mov	r0, r4
   b974c:	f7ff ffc9 	bl	b96e2 <_ZN6String10invalidateEv>
	}
	len = length;
	memcpy(buffer, cstr, length);
	buffer[len] = 0;
	return *this;
}
   b9750:	4620      	mov	r0, r4
   b9752:	b003      	add	sp, #12
   b9754:	bd30      	pop	{r4, r5, pc}
	len = length;
   b9756:	60a2      	str	r2, [r4, #8]
	memcpy(buffer, cstr, length);
   b9758:	4629      	mov	r1, r5
   b975a:	6820      	ldr	r0, [r4, #0]
   b975c:	f001 fa30 	bl	babc0 <memcpy>
	buffer[len] = 0;
   b9760:	6822      	ldr	r2, [r4, #0]
   b9762:	68a3      	ldr	r3, [r4, #8]
   b9764:	2100      	movs	r1, #0
   b9766:	54d1      	strb	r1, [r2, r3]
	return *this;
   b9768:	e7f2      	b.n	b9750 <_ZN6String4copyEPKcj+0x18>

000b976a <_ZN6StringC1EPK19__FlashStringHelper>:
	buffer = NULL;
   b976a:	2300      	movs	r3, #0
String::String(const __FlashStringHelper *pstr)
   b976c:	b513      	push	{r0, r1, r4, lr}
	capacity = 0;
   b976e:	e9c0 3300 	strd	r3, r3, [r0]
String::String(const __FlashStringHelper *pstr)
   b9772:	4604      	mov	r4, r0
	len = 0;
   b9774:	6083      	str	r3, [r0, #8]
	flags = 0;
   b9776:	7303      	strb	r3, [r0, #12]
	if (cstr) copy(cstr, strlen(cstr));
   b9778:	b141      	cbz	r1, b978c <_ZN6StringC1EPK19__FlashStringHelper+0x22>
	if (cstr) copy(cstr, strlen(cstr));
   b977a:	4608      	mov	r0, r1
   b977c:	9101      	str	r1, [sp, #4]
   b977e:	f001 fa7b 	bl	bac78 <strlen>
   b9782:	9901      	ldr	r1, [sp, #4]
   b9784:	4602      	mov	r2, r0
   b9786:	4620      	mov	r0, r4
   b9788:	f7ff ffd6 	bl	b9738 <_ZN6String4copyEPKcj>
}
   b978c:	4620      	mov	r0, r4
   b978e:	b002      	add	sp, #8
   b9790:	bd10      	pop	{r4, pc}

000b9792 <_ZN6StringaSERKS_>:
}
#endif

String & String::operator = (const String &rhs)
{
	if (this == &rhs) return *this;
   b9792:	4288      	cmp	r0, r1
{
   b9794:	b510      	push	{r4, lr}
   b9796:	4604      	mov	r4, r0
	if (this == &rhs) return *this;
   b9798:	d005      	beq.n	b97a6 <_ZN6StringaSERKS_+0x14>

	if (rhs.buffer) copy(rhs.buffer, rhs.len);
   b979a:	680b      	ldr	r3, [r1, #0]
   b979c:	b12b      	cbz	r3, b97aa <_ZN6StringaSERKS_+0x18>
   b979e:	688a      	ldr	r2, [r1, #8]
   b97a0:	4619      	mov	r1, r3
   b97a2:	f7ff ffc9 	bl	b9738 <_ZN6String4copyEPKcj>
	else invalidate();

	return *this;
}
   b97a6:	4620      	mov	r0, r4
   b97a8:	bd10      	pop	{r4, pc}
	else invalidate();
   b97aa:	f7ff ff9a 	bl	b96e2 <_ZN6String10invalidateEv>
   b97ae:	e7fa      	b.n	b97a6 <_ZN6StringaSERKS_+0x14>

000b97b0 <_ZN6StringC1ERKS_>:
String::String(const String &value)
   b97b0:	b510      	push	{r4, lr}
	buffer = NULL;
   b97b2:	2300      	movs	r3, #0
String::String(const String &value)
   b97b4:	4604      	mov	r4, r0
	capacity = 0;
   b97b6:	e9c0 3300 	strd	r3, r3, [r0]
	len = 0;
   b97ba:	6083      	str	r3, [r0, #8]
	flags = 0;
   b97bc:	7303      	strb	r3, [r0, #12]
	*this = value;
   b97be:	f7ff ffe8 	bl	b9792 <_ZN6StringaSERKS_>
}
   b97c2:	4620      	mov	r0, r4
   b97c4:	bd10      	pop	{r4, pc}

000b97c6 <_ZN6StringaSEPKc>:
	return *this;
}
#endif

String & String::operator = (const char *cstr)
{
   b97c6:	b513      	push	{r0, r1, r4, lr}
   b97c8:	4604      	mov	r4, r0
	if (cstr) copy(cstr, strlen(cstr));
   b97ca:	b159      	cbz	r1, b97e4 <_ZN6StringaSEPKc+0x1e>
   b97cc:	4608      	mov	r0, r1
   b97ce:	9101      	str	r1, [sp, #4]
   b97d0:	f001 fa52 	bl	bac78 <strlen>
   b97d4:	9901      	ldr	r1, [sp, #4]
   b97d6:	4602      	mov	r2, r0
   b97d8:	4620      	mov	r0, r4
   b97da:	f7ff ffad 	bl	b9738 <_ZN6String4copyEPKcj>
	else invalidate();

	return *this;
}
   b97de:	4620      	mov	r0, r4
   b97e0:	b002      	add	sp, #8
   b97e2:	bd10      	pop	{r4, pc}
	else invalidate();
   b97e4:	f7ff ff7d 	bl	b96e2 <_ZN6String10invalidateEv>
   b97e8:	e7f9      	b.n	b97de <_ZN6StringaSEPKc+0x18>

000b97ea <_ZN6StringC1Eih>:
String::String(int value, unsigned char base)
   b97ea:	b510      	push	{r4, lr}
   b97ec:	4604      	mov	r4, r0
   b97ee:	b08a      	sub	sp, #40	; 0x28
	buffer = NULL;
   b97f0:	2300      	movs	r3, #0
	capacity = 0;
   b97f2:	e9c4 3300 	strd	r3, r3, [r4]
	len = 0;
   b97f6:	60a3      	str	r3, [r4, #8]
	flags = 0;
   b97f8:	7323      	strb	r3, [r4, #12]
String::String(int value, unsigned char base)
   b97fa:	4608      	mov	r0, r1
	itoa(value, buf, base);
   b97fc:	a901      	add	r1, sp, #4
   b97fe:	f7ff ff53 	bl	b96a8 <itoa>
	*this = buf;
   b9802:	a901      	add	r1, sp, #4
   b9804:	4620      	mov	r0, r4
   b9806:	f7ff ffde 	bl	b97c6 <_ZN6StringaSEPKc>
}
   b980a:	4620      	mov	r0, r4
   b980c:	b00a      	add	sp, #40	; 0x28
   b980e:	bd10      	pop	{r4, pc}

000b9810 <_ZN6String6concatEPKcj>:
{
	return concat(s.buffer, s.len);
}

unsigned char String::concat(const char *cstr, unsigned int length)
{
   b9810:	b570      	push	{r4, r5, r6, lr}
   b9812:	4605      	mov	r5, r0
	unsigned int newlen = len + length;
	if (!cstr) return 0;
   b9814:	460e      	mov	r6, r1
   b9816:	b909      	cbnz	r1, b981c <_ZN6String6concatEPKcj+0xc>
   b9818:	2000      	movs	r0, #0
	if (length == 0) return 1;
	if (!reserve(newlen)) return 0;
	strcpy(buffer + len, cstr);
	len = newlen;
	return 1;
}
   b981a:	bd70      	pop	{r4, r5, r6, pc}
	if (length == 0) return 1;
   b981c:	b16a      	cbz	r2, b983a <_ZN6String6concatEPKcj+0x2a>
	unsigned int newlen = len + length;
   b981e:	6884      	ldr	r4, [r0, #8]
   b9820:	4414      	add	r4, r2
	if (!reserve(newlen)) return 0;
   b9822:	4621      	mov	r1, r4
   b9824:	f7ff ff74 	bl	b9710 <_ZN6String7reserveEj>
   b9828:	2800      	cmp	r0, #0
   b982a:	d0f5      	beq.n	b9818 <_ZN6String6concatEPKcj+0x8>
	strcpy(buffer + len, cstr);
   b982c:	6828      	ldr	r0, [r5, #0]
   b982e:	68ab      	ldr	r3, [r5, #8]
   b9830:	4631      	mov	r1, r6
   b9832:	4418      	add	r0, r3
   b9834:	f001 fa18 	bl	bac68 <strcpy>
	len = newlen;
   b9838:	60ac      	str	r4, [r5, #8]
	if (length == 0) return 1;
   b983a:	2001      	movs	r0, #1
   b983c:	e7ed      	b.n	b981a <_ZN6String6concatEPKcj+0xa>

000b983e <_ZplRK15StringSumHelperRK6String>:
/*********************************************/
/*  Concatenate                              */
/*********************************************/

StringSumHelper & operator + (const StringSumHelper &lhs, const String &rhs)
{
   b983e:	b510      	push	{r4, lr}
	StringSumHelper &a = const_cast<StringSumHelper&>(lhs);
	if (!a.concat(rhs.buffer, rhs.len)) a.invalidate();
   b9840:	688a      	ldr	r2, [r1, #8]
   b9842:	6809      	ldr	r1, [r1, #0]
{
   b9844:	4604      	mov	r4, r0
	if (!a.concat(rhs.buffer, rhs.len)) a.invalidate();
   b9846:	f7ff ffe3 	bl	b9810 <_ZN6String6concatEPKcj>
   b984a:	b910      	cbnz	r0, b9852 <_ZplRK15StringSumHelperRK6String+0x14>
   b984c:	4620      	mov	r0, r4
   b984e:	f7ff ff48 	bl	b96e2 <_ZN6String10invalidateEv>
	return a;
}
   b9852:	4620      	mov	r0, r4
   b9854:	bd10      	pop	{r4, pc}

000b9856 <_ZplRK15StringSumHelperPKc>:

StringSumHelper & operator + (const StringSumHelper &lhs, const char *cstr)
{
   b9856:	b513      	push	{r0, r1, r4, lr}
   b9858:	4604      	mov	r4, r0
	StringSumHelper &a = const_cast<StringSumHelper&>(lhs);
	if (!cstr || !a.concat(cstr, strlen(cstr))) a.invalidate();
   b985a:	b929      	cbnz	r1, b9868 <_ZplRK15StringSumHelperPKc+0x12>
   b985c:	4620      	mov	r0, r4
   b985e:	f7ff ff40 	bl	b96e2 <_ZN6String10invalidateEv>
	return a;
}
   b9862:	4620      	mov	r0, r4
   b9864:	b002      	add	sp, #8
   b9866:	bd10      	pop	{r4, pc}
	if (!cstr || !a.concat(cstr, strlen(cstr))) a.invalidate();
   b9868:	4608      	mov	r0, r1
   b986a:	9101      	str	r1, [sp, #4]
   b986c:	f001 fa04 	bl	bac78 <strlen>
   b9870:	9901      	ldr	r1, [sp, #4]
   b9872:	4602      	mov	r2, r0
   b9874:	4620      	mov	r0, r4
   b9876:	f7ff ffcb 	bl	b9810 <_ZN6String6concatEPKcj>
   b987a:	2800      	cmp	r0, #0
   b987c:	d0ee      	beq.n	b985c <_ZplRK15StringSumHelperPKc+0x6>
   b987e:	e7f0      	b.n	b9862 <_ZplRK15StringSumHelperPKc+0xc>

000b9880 <_GLOBAL__sub_I__ZN8particle3ble13WiringBleLock6mutex_E>:
    /**
     * Creates a shared mutex.
     */
    RecursiveMutex(os_mutex_recursive_t handle) : handle_(handle) {}

    RecursiveMutex() : handle_(nullptr)
   b9880:	4802      	ldr	r0, [pc, #8]	; (b988c <_GLOBAL__sub_I__ZN8particle3ble13WiringBleLock6mutex_E+0xc>)
   b9882:	2300      	movs	r3, #0
   b9884:	6003      	str	r3, [r0, #0]
    {
        os_mutex_recursive_create(&handle_);
   b9886:	f7ff bbcb 	b.w	b9020 <os_mutex_recursive_create>
   b988a:	bf00      	nop
   b988c:	2003e6d4 	.word	0x2003e6d4

000b9890 <_ZN5Print5writeEPKhj>:

// Public Methods //////////////////////////////////////////////////////////////

/* default implementation: may be overridden */
size_t Print::write(const uint8_t *buffer, size_t size)
{
   b9890:	b5f8      	push	{r3, r4, r5, r6, r7, lr}
   b9892:	4606      	mov	r6, r0
   b9894:	460d      	mov	r5, r1
  size_t n = 0;
   b9896:	188f      	adds	r7, r1, r2
   b9898:	2400      	movs	r4, #0
  while (size--) {
   b989a:	42bd      	cmp	r5, r7
   b989c:	d00c      	beq.n	b98b8 <_ZN5Print5writeEPKhj+0x28>
     int chunk = write(*buffer++);
   b989e:	6833      	ldr	r3, [r6, #0]
   b98a0:	f815 1b01 	ldrb.w	r1, [r5], #1
   b98a4:	689b      	ldr	r3, [r3, #8]
   b98a6:	4630      	mov	r0, r6
   b98a8:	4798      	blx	r3
     if (chunk>=0)
   b98aa:	1e03      	subs	r3, r0, #0
   b98ac:	db01      	blt.n	b98b2 <_ZN5Print5writeEPKhj+0x22>
         n += chunk;
   b98ae:	441c      	add	r4, r3
  while (size--) {
   b98b0:	e7f3      	b.n	b989a <_ZN5Print5writeEPKhj+0xa>
     int chunk = write(*buffer++);
   b98b2:	2c00      	cmp	r4, #0
   b98b4:	bf08      	it	eq
   b98b6:	461c      	moveq	r4, r3
             n = chunk;
         break;
     }
  }
  return n;
}
   b98b8:	4620      	mov	r0, r4
   b98ba:	bdf8      	pop	{r3, r4, r5, r6, r7, pc}

000b98bc <_ZN5Print5writeEPKc>:

    int getWriteError() { return write_error; }
    void clearWriteError() { setWriteError(0); }

    virtual size_t write(uint8_t) = 0;
    size_t write(const char *str) {
   b98bc:	b513      	push	{r0, r1, r4, lr}
   b98be:	4604      	mov	r4, r0
      if (str == NULL) return 0;
      return write((const uint8_t *)str, strlen(str));
    }
   b98c0:	4608      	mov	r0, r1
      if (str == NULL) return 0;
   b98c2:	b159      	cbz	r1, b98dc <_ZN5Print5writeEPKc+0x20>
      return write((const uint8_t *)str, strlen(str));
   b98c4:	9101      	str	r1, [sp, #4]
   b98c6:	f001 f9d7 	bl	bac78 <strlen>
   b98ca:	6823      	ldr	r3, [r4, #0]
   b98cc:	9901      	ldr	r1, [sp, #4]
   b98ce:	68db      	ldr	r3, [r3, #12]
   b98d0:	4602      	mov	r2, r0
   b98d2:	4620      	mov	r0, r4
    }
   b98d4:	b002      	add	sp, #8
   b98d6:	e8bd 4010 	ldmia.w	sp!, {r4, lr}
      return write((const uint8_t *)str, strlen(str));
   b98da:	4718      	bx	r3
    }
   b98dc:	b002      	add	sp, #8
   b98de:	bd10      	pop	{r4, pc}

000b98e0 <_ZN5Print5printEPKc>:

size_t Print::print(const char str[])
{
   b98e0:	b508      	push	{r3, lr}
  return write(str);
   b98e2:	f7ff ffeb 	bl	b98bc <_ZN5Print5writeEPKc>
}
   b98e6:	bd08      	pop	{r3, pc}

000b98e8 <_ZN5Print5printEc>:

size_t Print::print(char c)
{
  return write(c);
   b98e8:	6803      	ldr	r3, [r0, #0]
   b98ea:	689b      	ldr	r3, [r3, #8]
   b98ec:	4718      	bx	r3

000b98ee <_ZN5Print7printlnEv>:
{
  return print(reinterpret_cast<const char*>(str));
}

size_t Print::println(void)
{
   b98ee:	b538      	push	{r3, r4, r5, lr}
  size_t n = print('\r');
   b98f0:	210d      	movs	r1, #13
{
   b98f2:	4605      	mov	r5, r0
  size_t n = print('\r');
   b98f4:	f7ff fff8 	bl	b98e8 <_ZN5Print5printEc>
  n += print('\n');
   b98f8:	210a      	movs	r1, #10
  size_t n = print('\r');
   b98fa:	4604      	mov	r4, r0
  n += print('\n');
   b98fc:	4628      	mov	r0, r5
   b98fe:	f7ff fff3 	bl	b98e8 <_ZN5Print5printEc>
  return n;
}
   b9902:	4420      	add	r0, r4
   b9904:	bd38      	pop	{r3, r4, r5, pc}

000b9906 <_ZN5Print7printlnEPKc>:

size_t Print::println(const char c[])
{
   b9906:	b538      	push	{r3, r4, r5, lr}
   b9908:	4605      	mov	r5, r0
  return write(str);
   b990a:	f7ff ffd7 	bl	b98bc <_ZN5Print5writeEPKc>
   b990e:	4604      	mov	r4, r0
  size_t n = print(c);
  n += println();
   b9910:	4628      	mov	r0, r5
   b9912:	f7ff ffec 	bl	b98ee <_ZN5Print7printlnEv>
  return n;
}
   b9916:	4420      	add	r0, r4
   b9918:	bd38      	pop	{r3, r4, r5, pc}

000b991a <_ZN5Print11printNumberEmh>:
  return println(reinterpret_cast<const char*>(str));
}

// Private Methods /////////////////////////////////////////////////////////////

size_t Print::printNumber(unsigned long n, uint8_t base) {
   b991a:	b530      	push	{r4, r5, lr}
   b991c:	b08b      	sub	sp, #44	; 0x2c
  char buf[8 * sizeof(n) + 1]; // Assumes 8-bit chars plus zero byte.
  char *str = &buf[sizeof(buf) - 1];

  *str = '\0';
   b991e:	2300      	movs	r3, #0

  // prevent crash if called with base == 1
  if (base < 2) base = 10;
   b9920:	2a01      	cmp	r2, #1
  *str = '\0';
   b9922:	f88d 3024 	strb.w	r3, [sp, #36]	; 0x24
  if (base < 2) base = 10;
   b9926:	bf98      	it	ls
   b9928:	220a      	movls	r2, #10
   b992a:	ac09      	add	r4, sp, #36	; 0x24

  do {
   decltype(n) m = n;
   n /= base;
   b992c:	460d      	mov	r5, r1
   b992e:	fbb1 f1f2 	udiv	r1, r1, r2
   char c = m - base * n;
   b9932:	fb01 5312 	mls	r3, r1, r2, r5
   b9936:	f003 03ff 	and.w	r3, r3, #255	; 0xff
   *--str = c < 10 ? c + '0' : c + 'A' - 10;
   b993a:	2b09      	cmp	r3, #9
   b993c:	bf94      	ite	ls
   b993e:	3330      	addls	r3, #48	; 0x30
   b9940:	3337      	addhi	r3, #55	; 0x37
   b9942:	b2db      	uxtb	r3, r3
  } while(n);
   b9944:	42aa      	cmp	r2, r5
   *--str = c < 10 ? c + '0' : c + 'A' - 10;
   b9946:	f804 3d01 	strb.w	r3, [r4, #-1]!
  } while(n);
   b994a:	d9ef      	bls.n	b992c <_ZN5Print11printNumberEmh+0x12>

  return write(str);
   b994c:	4621      	mov	r1, r4
   b994e:	f7ff ffb5 	bl	b98bc <_ZN5Print5writeEPKc>
}
   b9952:	b00b      	add	sp, #44	; 0x2c
   b9954:	bd30      	pop	{r4, r5, pc}

000b9956 <_ZN5Print7vprintfEbPKcSt9__va_list>:

  return n;
}

size_t Print::vprintf(bool newline, const char* format, va_list args)
{
   b9956:	e92d 41f0 	stmdb	sp!, {r4, r5, r6, r7, r8, lr}
   b995a:	b086      	sub	sp, #24
   b995c:	af00      	add	r7, sp, #0
   b995e:	4605      	mov	r5, r0
   b9960:	460e      	mov	r6, r1
    const int bufsize = 20;
    char test[bufsize];
    va_list args2;
    va_copy(args2, args);
    size_t n = vsnprintf(test, bufsize, format, args);
   b9962:	1d38      	adds	r0, r7, #4
   b9964:	2114      	movs	r1, #20
{
   b9966:	4614      	mov	r4, r2
    va_copy(args2, args);
   b9968:	603b      	str	r3, [r7, #0]
    size_t n = vsnprintf(test, bufsize, format, args);
   b996a:	f7ff fd45 	bl	b93f8 <vsnprintf>

    if (n<bufsize)
   b996e:	2813      	cmp	r0, #19
   b9970:	d80e      	bhi.n	b9990 <_ZN5Print7vprintfEbPKcSt9__va_list+0x3a>
  return write(str);
   b9972:	1d39      	adds	r1, r7, #4
   b9974:	4628      	mov	r0, r5
   b9976:	f7ff ffa1 	bl	b98bc <_ZN5Print5writeEPKc>
   b997a:	4604      	mov	r4, r0
    {
        char bigger[n+1];
        n = vsnprintf(bigger, n+1, format, args2);
        n = print(bigger);
    }
    if (newline)
   b997c:	b11e      	cbz	r6, b9986 <_ZN5Print7vprintfEbPKcSt9__va_list+0x30>
        n += println();
   b997e:	4628      	mov	r0, r5
   b9980:	f7ff ffb5 	bl	b98ee <_ZN5Print7printlnEv>
   b9984:	4404      	add	r4, r0

    va_end(args2);
    return n;
}
   b9986:	4620      	mov	r0, r4
   b9988:	3718      	adds	r7, #24
   b998a:	46bd      	mov	sp, r7
   b998c:	e8bd 81f0 	ldmia.w	sp!, {r4, r5, r6, r7, r8, pc}
        char bigger[n+1];
   b9990:	f100 0308 	add.w	r3, r0, #8
   b9994:	f023 0307 	bic.w	r3, r3, #7
        n = print(bigger);
   b9998:	46e8      	mov	r8, sp
        char bigger[n+1];
   b999a:	ebad 0d03 	sub.w	sp, sp, r3
        n = vsnprintf(bigger, n+1, format, args2);
   b999e:	4622      	mov	r2, r4
   b99a0:	1c41      	adds	r1, r0, #1
   b99a2:	683b      	ldr	r3, [r7, #0]
   b99a4:	4668      	mov	r0, sp
   b99a6:	f7ff fd27 	bl	b93f8 <vsnprintf>
  return write(str);
   b99aa:	4669      	mov	r1, sp
   b99ac:	4628      	mov	r0, r5
   b99ae:	f7ff ff85 	bl	b98bc <_ZN5Print5writeEPKc>
   b99b2:	4604      	mov	r4, r0
   b99b4:	46c5      	mov	sp, r8
   b99b6:	e7e1      	b.n	b997c <_ZN5Print7vprintfEbPKcSt9__va_list+0x26>

000b99b8 <_GLOBAL__sub_I__ZN5spark3LogE>:
    // This handler doesn't support direct logging
}

// spark::Logger
inline spark::Logger::Logger(const char *name) :
        name_(name) {
   b99b8:	4b01      	ldr	r3, [pc, #4]	; (b99c0 <_GLOBAL__sub_I__ZN5spark3LogE+0x8>)
   b99ba:	4a02      	ldr	r2, [pc, #8]	; (b99c4 <_GLOBAL__sub_I__ZN5spark3LogE+0xc>)
   b99bc:	601a      	str	r2, [r3, #0]
#if Wiring_LogConfig

// spark::
void spark::logProcessControlRequest(ctrl_request* req) {
    JSONRequestHandler::process(req);
}
   b99be:	4770      	bx	lr
   b99c0:	2003e6d8 	.word	0x2003e6d8
   b99c4:	000bca14 	.word	0x000bca14

000b99c8 <_GLOBAL__sub_I_TIME_FORMAT_DEFAULT>:
            calendar_time_cache = Convert_UnixTime_To_CalendarTime(unix_time);
            unix_time_cache = unix_time;
    }
}

const char* TimeClass::format_spec = TIME_FORMAT_DEFAULT;
   b99c8:	4b02      	ldr	r3, [pc, #8]	; (b99d4 <_GLOBAL__sub_I_TIME_FORMAT_DEFAULT+0xc>)
   b99ca:	681a      	ldr	r2, [r3, #0]
   b99cc:	4b02      	ldr	r3, [pc, #8]	; (b99d8 <_GLOBAL__sub_I_TIME_FORMAT_DEFAULT+0x10>)
   b99ce:	601a      	str	r2, [r3, #0]
{
  return isValid();
}


TimeClass Time;
   b99d0:	4770      	bx	lr
   b99d2:	bf00      	nop
   b99d4:	2003cca8 	.word	0x2003cca8
   b99d8:	2003e6dc 	.word	0x2003e6dc

000b99dc <delay>:
    return (value - fromStart) * (toEnd - toStart) / (fromEnd - fromStart) + toStart;
}

void delay(unsigned long ms)
{
    system_delay_ms(ms, false);
   b99dc:	2100      	movs	r1, #0
   b99de:	f7ff bc5f 	b.w	b92a0 <system_delay_ms>
	...

000b99e4 <_GLOBAL__sub_I_RGB>:
	static void
	_M_init_functor(_Any_data& __functor, _Functor&& __f, false_type)
	{ __functor._M_access<_Functor*>() = new _Functor(std::move(__f)); }
      };

    _Function_base() : _M_manager(nullptr) { }
   b99e4:	4b01      	ldr	r3, [pc, #4]	; (b99ec <_GLOBAL__sub_I_RGB+0x8>)
   b99e6:	2200      	movs	r2, #0
   b99e8:	609a      	str	r2, [r3, #8]
{
    RGBClass* const d = static_cast<RGBClass*>(data);
    if (d->changeHandler_) {
        d->changeHandler_(r, g, b);
    }
}
   b99ea:	4770      	bx	lr
   b99ec:	2003e6e0 	.word	0x2003e6e0

000b99f0 <_ZZ21module_user_init_hookENUlP6_reentjmPvE_4_FUNES0_jmS1_>:

void module_user_init_hook()
{
#if HAL_PLATFORM_NEWLIB
    newlib_impure_ptr_callback([](struct _reent* r, size_t size, uint32_t version, void* ctx) -> void {
        _impure_ptr = r;
   b99f0:	4b01      	ldr	r3, [pc, #4]	; (b99f8 <_ZZ21module_user_init_hookENUlP6_reentjmPvE_4_FUNES0_jmS1_+0x8>)
   b99f2:	6018      	str	r0, [r3, #0]
    }, nullptr);
   b99f4:	4770      	bx	lr
   b99f6:	bf00      	nop
   b99f8:	2003ccac 	.word	0x2003ccac

000b99fc <serialEventRun>:
{
   b99fc:	b508      	push	{r3, lr}
    if (serialEvent && Serial.available()>0)
   b99fe:	4b0b      	ldr	r3, [pc, #44]	; (b9a2c <serialEventRun+0x30>)
   b9a00:	b143      	cbz	r3, b9a14 <serialEventRun+0x18>
   b9a02:	f000 f981 	bl	b9d08 <_Z16_fetch_usbserialv>
   b9a06:	6803      	ldr	r3, [r0, #0]
   b9a08:	691b      	ldr	r3, [r3, #16]
   b9a0a:	4798      	blx	r3
   b9a0c:	2800      	cmp	r0, #0
   b9a0e:	dd01      	ble.n	b9a14 <serialEventRun+0x18>
        serialEvent();
   b9a10:	f3af 8000 	nop.w
    if (serialEvent1 && Serial1.available()>0)
   b9a14:	4b06      	ldr	r3, [pc, #24]	; (b9a30 <serialEventRun+0x34>)
   b9a16:	b143      	cbz	r3, b9a2a <serialEventRun+0x2e>
   b9a18:	f000 fc2e 	bl	ba278 <_Z22__fetch_global_Serial1v>
   b9a1c:	6803      	ldr	r3, [r0, #0]
   b9a1e:	691b      	ldr	r3, [r3, #16]
   b9a20:	4798      	blx	r3
   b9a22:	2800      	cmp	r0, #0
   b9a24:	dd01      	ble.n	b9a2a <serialEventRun+0x2e>
        serialEvent1();
   b9a26:	f3af 8000 	nop.w
}
   b9a2a:	bd08      	pop	{r3, pc}
	...

000b9a34 <_post_loop>:
{
   b9a34:	b508      	push	{r3, lr}
	serialEventRun();
   b9a36:	f7ff ffe1 	bl	b99fc <serialEventRun>
		return !timeout_fn;
	}

	static inline system_tick_t current_time()
	{
		return HAL_Timer_Get_Milli_Seconds();
   b9a3a:	f7ff fad1 	bl	b8fe0 <HAL_Timer_Get_Milli_Seconds>
	/**
	 * Lifesign that the application is still working normally.
	 */
	static void checkin()
	{
		last_checkin = current_time();
   b9a3e:	4b01      	ldr	r3, [pc, #4]	; (b9a44 <_post_loop+0x10>)
   b9a40:	6018      	str	r0, [r3, #0]
}
   b9a42:	bd08      	pop	{r3, pc}
   b9a44:	2003e738 	.word	0x2003e738

000b9a48 <_Z33system_initialize_user_backup_ramv>:
    memcpy(&link_global_retained_start, &link_global_retained_initial_values, len);
   b9a48:	4805      	ldr	r0, [pc, #20]	; (b9a60 <_Z33system_initialize_user_backup_ramv+0x18>)
   b9a4a:	4a06      	ldr	r2, [pc, #24]	; (b9a64 <_Z33system_initialize_user_backup_ramv+0x1c>)
   b9a4c:	4906      	ldr	r1, [pc, #24]	; (b9a68 <_Z33system_initialize_user_backup_ramv+0x20>)
{
   b9a4e:	b508      	push	{r3, lr}
    memcpy(&link_global_retained_start, &link_global_retained_initial_values, len);
   b9a50:	1a12      	subs	r2, r2, r0
   b9a52:	f001 f8b5 	bl	babc0 <memcpy>
    __backup_sram_signature = signature;
   b9a56:	4b05      	ldr	r3, [pc, #20]	; (b9a6c <_Z33system_initialize_user_backup_ramv+0x24>)
   b9a58:	4a05      	ldr	r2, [pc, #20]	; (b9a70 <_Z33system_initialize_user_backup_ramv+0x28>)
   b9a5a:	601a      	str	r2, [r3, #0]
}
   b9a5c:	bd08      	pop	{r3, pc}
   b9a5e:	bf00      	nop
   b9a60:	2003f400 	.word	0x2003f400
   b9a64:	2003f404 	.word	0x2003f404
   b9a68:	000bcca4 	.word	0x000bcca4
   b9a6c:	2003f400 	.word	0x2003f400
   b9a70:	9a271c1e 	.word	0x9a271c1e

000b9a74 <_Z27ctrl_request_custom_handlerP12ctrl_request>:
void __attribute((weak)) ctrl_request_custom_handler(ctrl_request* req) {
   b9a74:	b507      	push	{r0, r1, r2, lr}
    system_ctrl_set_result(req, SYSTEM_ERROR_NOT_SUPPORTED, nullptr, nullptr, nullptr);
   b9a76:	2300      	movs	r3, #0
   b9a78:	9300      	str	r3, [sp, #0]
   b9a7a:	461a      	mov	r2, r3
   b9a7c:	f06f 0177 	mvn.w	r1, #119	; 0x77
   b9a80:	f7ff fc20 	bl	b92c4 <system_ctrl_set_result>
}
   b9a84:	b003      	add	sp, #12
   b9a86:	f85d fb04 	ldr.w	pc, [sp], #4
	...

000b9a8c <_ZL20ctrl_request_handlerP12ctrl_request>:
static void ctrl_request_handler(ctrl_request* req) {
   b9a8c:	b507      	push	{r0, r1, r2, lr}
    switch (req->type) {
   b9a8e:	8843      	ldrh	r3, [r0, #2]
   b9a90:	2b0a      	cmp	r3, #10
   b9a92:	d008      	beq.n	b9aa6 <_ZL20ctrl_request_handlerP12ctrl_request+0x1a>
   b9a94:	2b50      	cmp	r3, #80	; 0x50
   b9a96:	d10b      	bne.n	b9ab0 <_ZL20ctrl_request_handlerP12ctrl_request+0x24>
        if (log_process_ctrl_request_callback) {
   b9a98:	4b09      	ldr	r3, [pc, #36]	; (b9ac0 <_ZL20ctrl_request_handlerP12ctrl_request+0x34>)
   b9a9a:	681b      	ldr	r3, [r3, #0]
   b9a9c:	b14b      	cbz	r3, b9ab2 <_ZL20ctrl_request_handlerP12ctrl_request+0x26>
}
   b9a9e:	b003      	add	sp, #12
   b9aa0:	f85d eb04 	ldr.w	lr, [sp], #4
            log_process_ctrl_request_callback(req);
   b9aa4:	4718      	bx	r3
        ctrl_request_custom_handler(req);
   b9aa6:	f7ff ffe5 	bl	b9a74 <_Z27ctrl_request_custom_handlerP12ctrl_request>
}
   b9aaa:	b003      	add	sp, #12
   b9aac:	f85d fb04 	ldr.w	pc, [sp], #4
        system_ctrl_set_result(req, SYSTEM_ERROR_NOT_SUPPORTED, nullptr, nullptr, nullptr);
   b9ab0:	2300      	movs	r3, #0
   b9ab2:	9300      	str	r3, [sp, #0]
   b9ab4:	461a      	mov	r2, r3
   b9ab6:	f06f 0177 	mvn.w	r1, #119	; 0x77
   b9aba:	f7ff fc03 	bl	b92c4 <system_ctrl_set_result>
}
   b9abe:	e7f4      	b.n	b9aaa <_ZL20ctrl_request_handlerP12ctrl_request+0x1e>
   b9ac0:	2003e6f4 	.word	0x2003e6f4

000b9ac4 <module_user_init_hook>:
{
   b9ac4:	b510      	push	{r4, lr}
    newlib_impure_ptr_callback([](struct _reent* r, size_t size, uint32_t version, void* ctx) -> void {
   b9ac6:	4812      	ldr	r0, [pc, #72]	; (b9b10 <module_user_init_hook+0x4c>)
   b9ac8:	2100      	movs	r1, #0
   b9aca:	f7ff fcad 	bl	b9428 <newlib_impure_ptr_callback>
#endif // HAL_PLATFORM_NEWLIB

#if HAL_PLATFORM_BACKUP_RAM
    backup_ram_was_valid_ = __backup_sram_signature == signature;
   b9ace:	4b11      	ldr	r3, [pc, #68]	; (b9b14 <module_user_init_hook+0x50>)
   b9ad0:	681a      	ldr	r2, [r3, #0]
   b9ad2:	4b11      	ldr	r3, [pc, #68]	; (b9b18 <module_user_init_hook+0x54>)
   b9ad4:	429a      	cmp	r2, r3
   b9ad6:	4b11      	ldr	r3, [pc, #68]	; (b9b1c <module_user_init_hook+0x58>)
   b9ad8:	bf0c      	ite	eq
   b9ada:	2201      	moveq	r2, #1
   b9adc:	2200      	movne	r2, #0
   b9ade:	701a      	strb	r2, [r3, #0]
    if (!backup_ram_was_valid_) {
   b9ae0:	d001      	beq.n	b9ae6 <module_user_init_hook+0x22>
        system_initialize_user_backup_ram();
   b9ae2:	f7ff ffb1 	bl	b9a48 <_Z33system_initialize_user_backup_ramv>
    }
#endif

#if HAL_PLATFORM_RNG
    // Initialize the default stdlib PRNG using hardware RNG as a seed
    const uint32_t seed = HAL_RNG_GetRandomNumber();
   b9ae6:	f7ff fa6b 	bl	b8fc0 <HAL_RNG_GetRandomNumber>
   b9aea:	4604      	mov	r4, r0
    srand(seed);
   b9aec:	f001 f88e 	bl	bac0c <srand>

    // If the user defines random_seed_from_cloud, call it with a seed value
    // generated by a hardware RNG as well.
    if (random_seed_from_cloud) {
   b9af0:	4b0b      	ldr	r3, [pc, #44]	; (b9b20 <module_user_init_hook+0x5c>)
   b9af2:	b113      	cbz	r3, b9afa <module_user_init_hook+0x36>
        random_seed_from_cloud(seed);
   b9af4:	4620      	mov	r0, r4
   b9af6:	f3af 8000 	nop.w
    }
#endif
    // Register the random_seed_from_cloud handler
    spark_set_random_seed_from_cloud_handler(&random_seed_from_cloud, nullptr);
   b9afa:	2100      	movs	r1, #0
   b9afc:	4808      	ldr	r0, [pc, #32]	; (b9b20 <module_user_init_hook+0x5c>)
   b9afe:	f7ff fc4b 	bl	b9398 <spark_set_random_seed_from_cloud_handler>

    // Register application handler for the control requests
    system_ctrl_set_app_request_handler(ctrl_request_handler, nullptr);
}
   b9b02:	e8bd 4010 	ldmia.w	sp!, {r4, lr}
    system_ctrl_set_app_request_handler(ctrl_request_handler, nullptr);
   b9b06:	4807      	ldr	r0, [pc, #28]	; (b9b24 <module_user_init_hook+0x60>)
   b9b08:	2100      	movs	r1, #0
   b9b0a:	f7ff bbd1 	b.w	b92b0 <system_ctrl_set_app_request_handler>
   b9b0e:	bf00      	nop
   b9b10:	000b99f1 	.word	0x000b99f1
   b9b14:	2003f400 	.word	0x2003f400
   b9b18:	9a271c1e 	.word	0x9a271c1e
   b9b1c:	2003e6f0 	.word	0x2003e6f0
   b9b20:	00000000 	.word	0x00000000
   b9b24:	000b9a8d 	.word	0x000b9a8d

000b9b28 <_ZN10CloudClass10disconnectERK22CloudDisconnectOptions>:

int CloudClass::publishVitals(system_tick_t period_s_) {
    return spark_publish_vitals(period_s_, nullptr);
}

void CloudClass::disconnect(const CloudDisconnectOptions& options) {
   b9b28:	b51f      	push	{r0, r1, r2, r3, r4, lr}
    opts.size = sizeof(opts);
   b9b2a:	230c      	movs	r3, #12
   b9b2c:	f8ad 3004 	strh.w	r3, [sp, #4]
    opts.flags = flags_;
   b9b30:	6803      	ldr	r3, [r0, #0]
   b9b32:	f88d 3006 	strb.w	r3, [sp, #6]
    opts.graceful = graceful_;
   b9b36:	7a03      	ldrb	r3, [r0, #8]
   b9b38:	f88d 3007 	strb.w	r3, [sp, #7]
    opts.timeout = timeout_;
   b9b3c:	6843      	ldr	r3, [r0, #4]
   b9b3e:	9302      	str	r3, [sp, #8]
    spark_cloud_disconnect_options opts = {};
   b9b40:	2100      	movs	r1, #0
    opts.clear_session = clearSession_;
   b9b42:	7a43      	ldrb	r3, [r0, #9]
    spark_cloud_disconnect_options opts = {};
   b9b44:	f8ad 100d 	strh.w	r1, [sp, #13]
    const auto opts = options.toSystemOptions();
    spark_cloud_disconnect(&opts, nullptr /* reserved */);
   b9b48:	a801      	add	r0, sp, #4
    spark_cloud_disconnect_options opts = {};
   b9b4a:	f88d 100f 	strb.w	r1, [sp, #15]
    opts.clear_session = clearSession_;
   b9b4e:	f88d 300c 	strb.w	r3, [sp, #12]
    spark_cloud_disconnect(&opts, nullptr /* reserved */);
   b9b52:	f7ff fc29 	bl	b93a8 <spark_cloud_disconnect>
}
   b9b56:	b005      	add	sp, #20
   b9b58:	f85d fb04 	ldr.w	pc, [sp], #4

000b9b5c <_ZN9IPAddressD1Ev>:
    IPAddress(uint32_t address);
    // 4 bytes defining the IP address in network order
    IPAddress(const uint8_t* address);
    IPAddress(const HAL_IPAddress& address);

    virtual ~IPAddress() {}
   b9b5c:	4770      	bx	lr

000b9b5e <_ZN9IPAddressD0Ev>:
   b9b5e:	b510      	push	{r4, lr}
   b9b60:	2118      	movs	r1, #24
   b9b62:	4604      	mov	r4, r0
   b9b64:	f7fa fa99 	bl	b409a <_ZdlPvj>
   b9b68:	4620      	mov	r0, r4
   b9b6a:	bd10      	pop	{r4, pc}

000b9b6c <_ZNK9IPAddress7printToER5Print>:
#endif // Wiring_IPv6
	return address.ipv4==that.address.ipv4;
}

size_t IPAddress::printTo(Print& p) const
{
   b9b6c:	b5f0      	push	{r4, r5, r6, r7, lr}
#if Wiring_IPv6
#if HAL_USE_INET_HAL_POSIX
	if (address.v==6) {
   b9b6e:	7d03      	ldrb	r3, [r0, #20]
   b9b70:	2b06      	cmp	r3, #6
{
   b9b72:	b08d      	sub	sp, #52	; 0x34
   b9b74:	460e      	mov	r6, r1
		char buf[INET6_ADDRSTRLEN+1];
		buf[0] = 0;
		inet_inet_ntop(AF_INET6, address.ipv6, buf, sizeof(buf));
   b9b76:	f100 0704 	add.w	r7, r0, #4
   b9b7a:	f04f 0400 	mov.w	r4, #0
	if (address.v==6) {
   b9b7e:	d012      	beq.n	b9ba6 <_ZNK9IPAddress7printToER5Print+0x3a>
   b9b80:	f100 0508 	add.w	r5, r0, #8
            val = n;
        }
#if __GNUC__ >= 9
#pragma GCC diagnostic pop
#endif // __GNUC__ >= 9
        return printNumber(val, base) + t;
   b9b84:	f815 1d01 	ldrb.w	r1, [r5, #-1]!
   b9b88:	220a      	movs	r2, #10
   b9b8a:	4630      	mov	r0, r6
   b9b8c:	f7ff fec5 	bl	b991a <_ZN5Print11printNumberEmh>
#else
#pragma message "HAL_USE_INET_HAL_POSIX is required for IPv6 support in IPAddress::printTo()"
#endif // HAL_USE_INET_HAL_POSIX
#endif // Wiring_IPv6
    size_t n = 0;
    for (int i = 0; i < 4; i++)
   b9b90:	42af      	cmp	r7, r5
    {
        if (n)
            n += p.print('.');
        n += p.print((*this)[i], DEC);
   b9b92:	4404      	add	r4, r0
    for (int i = 0; i < 4; i++)
   b9b94:	d019      	beq.n	b9bca <_ZNK9IPAddress7printToER5Print+0x5e>
        if (n)
   b9b96:	2c00      	cmp	r4, #0
   b9b98:	d0f4      	beq.n	b9b84 <_ZNK9IPAddress7printToER5Print+0x18>
            n += p.print('.');
   b9b9a:	212e      	movs	r1, #46	; 0x2e
   b9b9c:	4630      	mov	r0, r6
   b9b9e:	f7ff fea3 	bl	b98e8 <_ZN5Print5printEc>
   b9ba2:	4404      	add	r4, r0
   b9ba4:	e7ee      	b.n	b9b84 <_ZNK9IPAddress7printToER5Print+0x18>
		inet_inet_ntop(AF_INET6, address.ipv6, buf, sizeof(buf));
   b9ba6:	232f      	movs	r3, #47	; 0x2f
   b9ba8:	466a      	mov	r2, sp
   b9baa:	4639      	mov	r1, r7
   b9bac:	200a      	movs	r0, #10
		buf[0] = 0;
   b9bae:	f88d 4000 	strb.w	r4, [sp]
		inet_inet_ntop(AF_INET6, address.ipv6, buf, sizeof(buf));
   b9bb2:	f7ff fa3d 	bl	b9030 <inet_inet_ntop>
      return write((const uint8_t *)str, strlen(str));
   b9bb6:	4668      	mov	r0, sp
   b9bb8:	f001 f85e 	bl	bac78 <strlen>
   b9bbc:	6833      	ldr	r3, [r6, #0]
   b9bbe:	4602      	mov	r2, r0
   b9bc0:	68db      	ldr	r3, [r3, #12]
   b9bc2:	4669      	mov	r1, sp
   b9bc4:	4630      	mov	r0, r6
   b9bc6:	4798      	blx	r3
   b9bc8:	4604      	mov	r4, r0
    }
    return n;
}
   b9bca:	4620      	mov	r0, r4
   b9bcc:	b00d      	add	sp, #52	; 0x34
   b9bce:	bdf0      	pop	{r4, r5, r6, r7, pc}

000b9bd0 <_ZN9IPAddressC1Ev>:
IPAddress::IPAddress()
   b9bd0:	b510      	push	{r4, lr}
   b9bd2:	4b05      	ldr	r3, [pc, #20]	; (b9be8 <_ZN9IPAddressC1Ev+0x18>)
   b9bd4:	4604      	mov	r4, r0
        return address;
    }

    virtual size_t printTo(Print& p) const;

    void clear() { memset(&address, 0, sizeof (address)); }
   b9bd6:	2211      	movs	r2, #17
   b9bd8:	f840 3b04 	str.w	r3, [r0], #4
   b9bdc:	2100      	movs	r1, #0
   b9bde:	f000 fffd 	bl	babdc <memset>
}
   b9be2:	4620      	mov	r0, r4
   b9be4:	bd10      	pop	{r4, pc}
   b9be6:	bf00      	nop
   b9be8:	000bca3c 	.word	0x000bca3c

000b9bec <_ZN9IPAddressC1ERK16_HAL_IPAddress_t>:
IPAddress::IPAddress(const HAL_IPAddress& address)
   b9bec:	4603      	mov	r3, r0
   b9bee:	4a07      	ldr	r2, [pc, #28]	; (b9c0c <_ZN9IPAddressC1ERK16_HAL_IPAddress_t+0x20>)
   b9bf0:	b510      	push	{r4, lr}
   b9bf2:	f843 2b04 	str.w	r2, [r3], #4
    memcpy(&this->address, &address, sizeof(address));
   b9bf6:	f101 0210 	add.w	r2, r1, #16
   b9bfa:	f851 4b04 	ldr.w	r4, [r1], #4
   b9bfe:	f843 4b04 	str.w	r4, [r3], #4
   b9c02:	4291      	cmp	r1, r2
   b9c04:	d1f9      	bne.n	b9bfa <_ZN9IPAddressC1ERK16_HAL_IPAddress_t+0xe>
   b9c06:	780a      	ldrb	r2, [r1, #0]
   b9c08:	701a      	strb	r2, [r3, #0]
}
   b9c0a:	bd10      	pop	{r4, pc}
   b9c0c:	000bca3c 	.word	0x000bca3c

000b9c10 <_ZN9IPAddress8set_ipv4Ehhhh>:
{
   b9c10:	b510      	push	{r4, lr}
    address.ipv4 = b0<<24 | b1 << 16 | b2 << 8 | b3;
   b9c12:	f89d 4008 	ldrb.w	r4, [sp, #8]
   b9c16:	ea44 2303 	orr.w	r3, r4, r3, lsl #8
   b9c1a:	ea43 4202 	orr.w	r2, r3, r2, lsl #16
   b9c1e:	ea42 6101 	orr.w	r1, r2, r1, lsl #24
        address.v = version;
   b9c22:	2304      	movs	r3, #4
   b9c24:	6041      	str	r1, [r0, #4]
   b9c26:	7503      	strb	r3, [r0, #20]
}
   b9c28:	bd10      	pop	{r4, pc}
	...

000b9c2c <_ZN9IPAddressC1EPKh>:
IPAddress::IPAddress(const uint8_t* addr)
   b9c2c:	b507      	push	{r0, r1, r2, lr}
   b9c2e:	4b06      	ldr	r3, [pc, #24]	; (b9c48 <_ZN9IPAddressC1EPKh+0x1c>)
   b9c30:	6003      	str	r3, [r0, #0]
    set_ipv4(addr[0], addr[1], addr[2], addr[3]);
   b9c32:	78cb      	ldrb	r3, [r1, #3]
   b9c34:	9300      	str	r3, [sp, #0]
   b9c36:	788b      	ldrb	r3, [r1, #2]
   b9c38:	784a      	ldrb	r2, [r1, #1]
   b9c3a:	7809      	ldrb	r1, [r1, #0]
   b9c3c:	f7ff ffe8 	bl	b9c10 <_ZN9IPAddress8set_ipv4Ehhhh>
}
   b9c40:	b003      	add	sp, #12
   b9c42:	f85d fb04 	ldr.w	pc, [sp], #4
   b9c46:	bf00      	nop
   b9c48:	000bca3c 	.word	0x000bca3c

000b9c4c <_ZN9USBSerial14blockOnOverrunEb>:
  HAL_USB_USART_Flush_Data(_serial);
}

void USBSerial::blockOnOverrun(bool block)
{
  _blocking = block;
   b9c4c:	7441      	strb	r1, [r0, #17]
}
   b9c4e:	4770      	bx	lr

000b9c50 <__tcf_0>:
}

USBSerial& _fetch_usbserial()
{
  HAL_USB_USART_Config conf = acquireSerialBuffer();
	static USBSerial _usbserial(HAL_USB_USART_SERIAL, conf);
   b9c50:	4770      	bx	lr

000b9c52 <_ZN9USBSerialD1Ev>:
#include "usb_hal.h"
#include "system_task.h"
#include "spark_wiring_startup.h"
#include "concurrent_hal.h"

class USBSerial : public Stream
   b9c52:	4770      	bx	lr

000b9c54 <_ZN9USBSerial4readEv>:
{
   b9c54:	b508      	push	{r3, lr}
	return std::max(-1, (int)HAL_USB_USART_Receive_Data(_serial, false));
   b9c56:	2100      	movs	r1, #0
   b9c58:	7c00      	ldrb	r0, [r0, #16]
   b9c5a:	f7ff faf9 	bl	b9250 <HAL_USB_USART_Receive_Data>
}
   b9c5e:	ea40 70e0 	orr.w	r0, r0, r0, asr #31
   b9c62:	bd08      	pop	{r3, pc}

000b9c64 <_ZN9USBSerial4peekEv>:
{
   b9c64:	b508      	push	{r3, lr}
	return std::max(-1, (int)HAL_USB_USART_Receive_Data(_serial, true));
   b9c66:	2101      	movs	r1, #1
   b9c68:	7c00      	ldrb	r0, [r0, #16]
   b9c6a:	f7ff faf1 	bl	b9250 <HAL_USB_USART_Receive_Data>
}
   b9c6e:	ea40 70e0 	orr.w	r0, r0, r0, asr #31
   b9c72:	bd08      	pop	{r3, pc}

000b9c74 <_ZN9USBSerial17availableForWriteEv>:
{
   b9c74:	b508      	push	{r3, lr}
  return std::max(0, (int)HAL_USB_USART_Available_Data_For_Write(_serial));
   b9c76:	7c00      	ldrb	r0, [r0, #16]
   b9c78:	f7ff fae2 	bl	b9240 <HAL_USB_USART_Available_Data_For_Write>
}
   b9c7c:	ea20 70e0 	bic.w	r0, r0, r0, asr #31
   b9c80:	bd08      	pop	{r3, pc}

000b9c82 <_ZN9USBSerial9availableEv>:
{
   b9c82:	b508      	push	{r3, lr}
	return std::max(0, (int)HAL_USB_USART_Available_Data(_serial));
   b9c84:	7c00      	ldrb	r0, [r0, #16]
   b9c86:	f7ff fad3 	bl	b9230 <HAL_USB_USART_Available_Data>
}
   b9c8a:	ea20 70e0 	bic.w	r0, r0, r0, asr #31
   b9c8e:	bd08      	pop	{r3, pc}

000b9c90 <_ZN9USBSerial5writeEh>:
{
   b9c90:	b513      	push	{r0, r1, r4, lr}
   b9c92:	4604      	mov	r4, r0
  if (HAL_USB_USART_Available_Data_For_Write(_serial) > 0 || _blocking) {
   b9c94:	7c00      	ldrb	r0, [r0, #16]
{
   b9c96:	9101      	str	r1, [sp, #4]
  if (HAL_USB_USART_Available_Data_For_Write(_serial) > 0 || _blocking) {
   b9c98:	f7ff fad2 	bl	b9240 <HAL_USB_USART_Available_Data_For_Write>
   b9c9c:	2800      	cmp	r0, #0
   b9c9e:	9901      	ldr	r1, [sp, #4]
   b9ca0:	dc01      	bgt.n	b9ca6 <_ZN9USBSerial5writeEh+0x16>
   b9ca2:	7c60      	ldrb	r0, [r4, #17]
   b9ca4:	b120      	cbz	r0, b9cb0 <_ZN9USBSerial5writeEh+0x20>
    return std::max(0, (int)HAL_USB_USART_Send_Data(_serial, byte));
   b9ca6:	7c20      	ldrb	r0, [r4, #16]
   b9ca8:	f7ff fada 	bl	b9260 <HAL_USB_USART_Send_Data>
   b9cac:	ea20 70e0 	bic.w	r0, r0, r0, asr #31
}
   b9cb0:	b002      	add	sp, #8
   b9cb2:	bd10      	pop	{r4, pc}

000b9cb4 <_ZN9USBSerial5flushEv>:
  HAL_USB_USART_Flush_Data(_serial);
   b9cb4:	7c00      	ldrb	r0, [r0, #16]
   b9cb6:	f7ff badb 	b.w	b9270 <HAL_USB_USART_Flush_Data>

000b9cba <_ZN9USBSerialD0Ev>:
   b9cba:	b510      	push	{r4, lr}
   b9cbc:	2114      	movs	r1, #20
   b9cbe:	4604      	mov	r4, r0
   b9cc0:	f7fa f9eb 	bl	b409a <_ZdlPvj>
   b9cc4:	4620      	mov	r0, r4
   b9cc6:	bd10      	pop	{r4, pc}

000b9cc8 <_ZN9USBSerialC1E20HAL_USB_USART_SerialRK20HAL_USB_USART_Config>:
USBSerial::USBSerial(HAL_USB_USART_Serial serial, const HAL_USB_USART_Config& conf)
   b9cc8:	b510      	push	{r4, lr}
    virtual int available() = 0;
    virtual int read() = 0;
    virtual int peek() = 0;
    virtual void flush() = 0;

    Stream() {_timeout=1000;}
   b9cca:	f44f 737a 	mov.w	r3, #1000	; 0x3e8
   b9cce:	4604      	mov	r4, r0
   b9cd0:	4608      	mov	r0, r1
   b9cd2:	2100      	movs	r1, #0
   b9cd4:	e9c4 1301 	strd	r1, r3, [r4, #4]
   b9cd8:	4b04      	ldr	r3, [pc, #16]	; (b9cec <_ZN9USBSerialC1E20HAL_USB_USART_SerialRK20HAL_USB_USART_Config+0x24>)
   b9cda:	6023      	str	r3, [r4, #0]
  _blocking = true;
   b9cdc:	2301      	movs	r3, #1
  _serial = serial;
   b9cde:	7420      	strb	r0, [r4, #16]
  _blocking = true;
   b9ce0:	7463      	strb	r3, [r4, #17]
  HAL_USB_USART_Init(_serial, &conf);
   b9ce2:	4611      	mov	r1, r2
   b9ce4:	f7ff fa94 	bl	b9210 <HAL_USB_USART_Init>
}
   b9ce8:	4620      	mov	r0, r4
   b9cea:	bd10      	pop	{r4, pc}
   b9cec:	000bca50 	.word	0x000bca50

000b9cf0 <_ZN9USBSerial5beginEl>:
    HAL_USB_USART_Begin(_serial, speed, NULL);
   b9cf0:	7c00      	ldrb	r0, [r0, #16]
   b9cf2:	2200      	movs	r2, #0
   b9cf4:	f7ff ba94 	b.w	b9220 <HAL_USB_USART_Begin>

000b9cf8 <_Z19acquireSerialBufferv>:
{
   b9cf8:	b510      	push	{r4, lr}
  HAL_USB_USART_Config conf = {};
   b9cfa:	2214      	movs	r2, #20
{
   b9cfc:	4604      	mov	r4, r0
  HAL_USB_USART_Config conf = {};
   b9cfe:	2100      	movs	r1, #0
   b9d00:	f000 ff6c 	bl	babdc <memset>
}
   b9d04:	4620      	mov	r0, r4
   b9d06:	bd10      	pop	{r4, pc}

000b9d08 <_Z16_fetch_usbserialv>:
{
   b9d08:	b510      	push	{r4, lr}
	static USBSerial _usbserial(HAL_USB_USART_SERIAL, conf);
   b9d0a:	4c0f      	ldr	r4, [pc, #60]	; (b9d48 <_Z16_fetch_usbserialv+0x40>)
{
   b9d0c:	b088      	sub	sp, #32
  HAL_USB_USART_Config conf = acquireSerialBuffer();
   b9d0e:	a803      	add	r0, sp, #12
   b9d10:	f7ff fff2 	bl	b9cf8 <_Z19acquireSerialBufferv>
	static USBSerial _usbserial(HAL_USB_USART_SERIAL, conf);
   b9d14:	7821      	ldrb	r1, [r4, #0]
   b9d16:	f3bf 8f5b 	dmb	ish
   b9d1a:	f011 0101 	ands.w	r1, r1, #1
   b9d1e:	d10f      	bne.n	b9d40 <_Z16_fetch_usbserialv+0x38>
   b9d20:	4620      	mov	r0, r4
   b9d22:	9101      	str	r1, [sp, #4]
   b9d24:	f7fa f9c8 	bl	b40b8 <__cxa_guard_acquire>
   b9d28:	9901      	ldr	r1, [sp, #4]
   b9d2a:	b148      	cbz	r0, b9d40 <_Z16_fetch_usbserialv+0x38>
   b9d2c:	aa03      	add	r2, sp, #12
   b9d2e:	4807      	ldr	r0, [pc, #28]	; (b9d4c <_Z16_fetch_usbserialv+0x44>)
   b9d30:	f7ff ffca 	bl	b9cc8 <_ZN9USBSerialC1E20HAL_USB_USART_SerialRK20HAL_USB_USART_Config>
   b9d34:	4620      	mov	r0, r4
   b9d36:	f7fa f9c4 	bl	b40c2 <__cxa_guard_release>
   b9d3a:	4805      	ldr	r0, [pc, #20]	; (b9d50 <_Z16_fetch_usbserialv+0x48>)
   b9d3c:	f000 ff32 	bl	baba4 <atexit>
	return _usbserial;
}
   b9d40:	4802      	ldr	r0, [pc, #8]	; (b9d4c <_Z16_fetch_usbserialv+0x44>)
   b9d42:	b008      	add	sp, #32
   b9d44:	bd10      	pop	{r4, pc}
   b9d46:	bf00      	nop
   b9d48:	2003e6f8 	.word	0x2003e6f8
   b9d4c:	2003e6fc 	.word	0x2003e6fc
   b9d50:	000b9c51 	.word	0x000b9c51

000b9d54 <_Z12noInterruptsv>:
 * Return         : None.
 *******************************************************************************/
void noInterrupts(void)
{
  //Only disable the interrupts that are exposed to the user
  HAL_Interrupts_Disable_All();
   b9d54:	f7ff b914 	b.w	b8f80 <HAL_Interrupts_Disable_All>

000b9d58 <_Z10interruptsv>:
 * Return         : None.
 *******************************************************************************/
void interrupts(void)
{
  //Only enable the interrupts that are exposed to the user
  HAL_Interrupts_Enable_All();
   b9d58:	f7ff b90a 	b.w	b8f70 <HAL_Interrupts_Enable_All>

000b9d5c <tone>:

#include "spark_wiring_tone.h"
#include "tone_hal.h"

void tone(uint8_t pin, unsigned int frequency, unsigned long duration)
{
   b9d5c:	b5f8      	push	{r3, r4, r5, r6, r7, lr}
    if (pinAvailable(pin) && HAL_Validate_Pin_Function(pin, PF_TIMER)==PF_TIMER) {
   b9d5e:	b287      	uxth	r7, r0
{
   b9d60:	4604      	mov	r4, r0
    if (pinAvailable(pin) && HAL_Validate_Pin_Function(pin, PF_TIMER)==PF_TIMER) {
   b9d62:	4638      	mov	r0, r7
{
   b9d64:	460d      	mov	r5, r1
   b9d66:	4616      	mov	r6, r2
    if (pinAvailable(pin) && HAL_Validate_Pin_Function(pin, PF_TIMER)==PF_TIMER) {
   b9d68:	f000 f9ba 	bl	ba0e0 <pinAvailable>
   b9d6c:	b160      	cbz	r0, b9d88 <tone+0x2c>
   b9d6e:	2102      	movs	r1, #2
   b9d70:	4638      	mov	r0, r7
   b9d72:	f7ff f8d5 	bl	b8f20 <HAL_Validate_Pin_Function>
   b9d76:	2802      	cmp	r0, #2
   b9d78:	d106      	bne.n	b9d88 <tone+0x2c>
        HAL_Tone_Start(pin, frequency, duration);
   b9d7a:	4632      	mov	r2, r6
   b9d7c:	4629      	mov	r1, r5
   b9d7e:	4620      	mov	r0, r4
    }
}
   b9d80:	e8bd 40f8 	ldmia.w	sp!, {r3, r4, r5, r6, r7, lr}
        HAL_Tone_Start(pin, frequency, duration);
   b9d84:	f7ff ba34 	b.w	b91f0 <HAL_Tone_Start>
}
   b9d88:	bdf8      	pop	{r3, r4, r5, r6, r7, pc}

000b9d8a <noTone>:

void noTone(uint8_t pin)
{
   b9d8a:	b538      	push	{r3, r4, r5, lr}
    if (pinAvailable(pin) && HAL_Validate_Pin_Function(pin, PF_TIMER)==PF_TIMER) {
   b9d8c:	b285      	uxth	r5, r0
{
   b9d8e:	4604      	mov	r4, r0
    if (pinAvailable(pin) && HAL_Validate_Pin_Function(pin, PF_TIMER)==PF_TIMER) {
   b9d90:	4628      	mov	r0, r5
   b9d92:	f000 f9a5 	bl	ba0e0 <pinAvailable>
   b9d96:	b150      	cbz	r0, b9dae <noTone+0x24>
   b9d98:	2102      	movs	r1, #2
   b9d9a:	4628      	mov	r0, r5
   b9d9c:	f7ff f8c0 	bl	b8f20 <HAL_Validate_Pin_Function>
   b9da0:	2802      	cmp	r0, #2
   b9da2:	d104      	bne.n	b9dae <noTone+0x24>
        HAL_Tone_Stop(pin);
   b9da4:	4620      	mov	r0, r4
    }
}
   b9da6:	e8bd 4038 	ldmia.w	sp!, {r3, r4, r5, lr}
        HAL_Tone_Stop(pin);
   b9daa:	f7ff ba29 	b.w	b9200 <HAL_Tone_Stop>
}
   b9dae:	bd38      	pop	{r3, r4, r5, pc}

000b9db0 <_ZN11USARTSerialD1Ev>:
private:
  hal_usart_interface_t _serial;
  bool _blocking;
public:
  USARTSerial(hal_usart_interface_t serial, const hal_usart_buffer_config_t& config);
  virtual ~USARTSerial() {};
   b9db0:	4770      	bx	lr

000b9db2 <_ZN11USARTSerial14blockOnOverrunEb>:
    hal_usart_half_duplex(_serial, Enable);
}

void USARTSerial::blockOnOverrun(bool block)
{
  _blocking = block;
   b9db2:	7441      	strb	r1, [r0, #17]
}
   b9db4:	4770      	bx	lr

000b9db6 <_ZN11USARTSerial17availableForWriteEv>:


int USARTSerial::availableForWrite(void)
{
   b9db6:	b508      	push	{r3, lr}
  return std::max(0, (int)hal_usart_available_data_for_write(_serial));
   b9db8:	7c00      	ldrb	r0, [r0, #16]
   b9dba:	f7ff f971 	bl	b90a0 <hal_usart_available_data_for_write>
}
   b9dbe:	ea20 70e0 	bic.w	r0, r0, r0, asr #31
   b9dc2:	bd08      	pop	{r3, pc}

000b9dc4 <_ZN11USARTSerial9availableEv>:

int USARTSerial::available(void)
{
   b9dc4:	b508      	push	{r3, lr}
  return std::max(0, (int)hal_usart_available(_serial));
   b9dc6:	7c00      	ldrb	r0, [r0, #16]
   b9dc8:	f7ff f942 	bl	b9050 <hal_usart_available>
}
   b9dcc:	ea20 70e0 	bic.w	r0, r0, r0, asr #31
   b9dd0:	bd08      	pop	{r3, pc}

000b9dd2 <_ZN11USARTSerial4peekEv>:

int USARTSerial::peek(void)
{
   b9dd2:	b508      	push	{r3, lr}
  return std::max(-1, (int)hal_usart_peek(_serial));
   b9dd4:	7c00      	ldrb	r0, [r0, #16]
   b9dd6:	f7ff f94b 	bl	b9070 <hal_usart_peek>
}
   b9dda:	ea40 70e0 	orr.w	r0, r0, r0, asr #31
   b9dde:	bd08      	pop	{r3, pc}

000b9de0 <_ZN11USARTSerial4readEv>:

int USARTSerial::read(void)
{
   b9de0:	b508      	push	{r3, lr}
  return std::max(-1, (int)hal_usart_read(_serial));
   b9de2:	7c00      	ldrb	r0, [r0, #16]
   b9de4:	f7ff f93c 	bl	b9060 <hal_usart_read>
}
   b9de8:	ea40 70e0 	orr.w	r0, r0, r0, asr #31
   b9dec:	bd08      	pop	{r3, pc}

000b9dee <_ZN11USARTSerial5flushEv>:

void USARTSerial::flush()
{
  hal_usart_flush(_serial);
   b9dee:	7c00      	ldrb	r0, [r0, #16]
   b9df0:	f7ff b946 	b.w	b9080 <hal_usart_flush>

000b9df4 <_ZN11USARTSerial5writeEh>:
}

size_t USARTSerial::write(uint8_t c)
{
   b9df4:	b537      	push	{r0, r1, r2, r4, r5, lr}
  // attempt a write if blocking, or for non-blocking if there is room.
  if (_blocking || hal_usart_available_data_for_write(_serial) > 0) {
   b9df6:	7c45      	ldrb	r5, [r0, #17]
{
   b9df8:	4604      	mov	r4, r0
  if (_blocking || hal_usart_available_data_for_write(_serial) > 0) {
   b9dfa:	b12d      	cbz	r5, b9e08 <_ZN11USARTSerial5writeEh+0x14>
    // the HAL always blocks.
	  return hal_usart_write(_serial, c);
   b9dfc:	7c20      	ldrb	r0, [r4, #16]
  }
  return 0;
}
   b9dfe:	b003      	add	sp, #12
   b9e00:	e8bd 4030 	ldmia.w	sp!, {r4, r5, lr}
	  return hal_usart_write(_serial, c);
   b9e04:	f7ff b91c 	b.w	b9040 <hal_usart_write>
  if (_blocking || hal_usart_available_data_for_write(_serial) > 0) {
   b9e08:	7c00      	ldrb	r0, [r0, #16]
   b9e0a:	9101      	str	r1, [sp, #4]
   b9e0c:	f7ff f948 	bl	b90a0 <hal_usart_available_data_for_write>
   b9e10:	2800      	cmp	r0, #0
   b9e12:	9901      	ldr	r1, [sp, #4]
   b9e14:	dcf2      	bgt.n	b9dfc <_ZN11USARTSerial5writeEh+0x8>
}
   b9e16:	4628      	mov	r0, r5
   b9e18:	b003      	add	sp, #12
   b9e1a:	bd30      	pop	{r4, r5, pc}

000b9e1c <_ZN11USARTSerialD0Ev>:
   b9e1c:	b510      	push	{r4, lr}
   b9e1e:	2114      	movs	r1, #20
   b9e20:	4604      	mov	r4, r0
   b9e22:	f7fa f93a 	bl	b409a <_ZdlPvj>
   b9e26:	4620      	mov	r0, r4
   b9e28:	bd10      	pop	{r4, pc}
	...

000b9e2c <_ZN11USARTSerialC1E21hal_usart_interface_tRK25hal_usart_buffer_config_t>:
USARTSerial::USARTSerial(hal_usart_interface_t serial, const hal_usart_buffer_config_t& config)
   b9e2c:	b510      	push	{r4, lr}
   b9e2e:	f44f 737a 	mov.w	r3, #1000	; 0x3e8
   b9e32:	4604      	mov	r4, r0
   b9e34:	4608      	mov	r0, r1
   b9e36:	4611      	mov	r1, r2
   b9e38:	2200      	movs	r2, #0
   b9e3a:	e9c4 2301 	strd	r2, r3, [r4, #4]
   b9e3e:	4b04      	ldr	r3, [pc, #16]	; (b9e50 <_ZN11USARTSerialC1E21hal_usart_interface_tRK25hal_usart_buffer_config_t+0x24>)
   b9e40:	6023      	str	r3, [r4, #0]
  _blocking = true;
   b9e42:	2301      	movs	r3, #1
  _serial = serial;
   b9e44:	7420      	strb	r0, [r4, #16]
  _blocking = true;
   b9e46:	7463      	strb	r3, [r4, #17]
  hal_usart_init_ex(serial, &config, nullptr);
   b9e48:	f7ff f932 	bl	b90b0 <hal_usart_init_ex>
}
   b9e4c:	4620      	mov	r0, r4
   b9e4e:	bd10      	pop	{r4, pc}
   b9e50:	000bca80 	.word	0x000bca80

000b9e54 <_ZN7TwoWireD1Ev>:
private:
  hal_i2c_interface_t _i2c;

public:
  TwoWire(hal_i2c_interface_t i2c, const hal_i2c_config_t& config);
  virtual ~TwoWire() {};
   b9e54:	4770      	bx	lr

000b9e56 <_ZN7TwoWire5writeEPKhj>:

// must be called in:
// slave tx event callback
// or after beginTransmission(address)
size_t TwoWire::write(const uint8_t *data, size_t quantity)
{
   b9e56:	b5f8      	push	{r3, r4, r5, r6, r7, lr}
   b9e58:	4606      	mov	r6, r0
   b9e5a:	4615      	mov	r5, r2
   b9e5c:	460c      	mov	r4, r1
   b9e5e:	188f      	adds	r7, r1, r2
  // in master/slave transmitter mode
  for(size_t i = 0; i < quantity; ++i)
   b9e60:	42bc      	cmp	r4, r7
   b9e62:	d006      	beq.n	b9e72 <_ZN7TwoWire5writeEPKhj+0x1c>
  {
    write(data[i]);
   b9e64:	6833      	ldr	r3, [r6, #0]
   b9e66:	f814 1b01 	ldrb.w	r1, [r4], #1
   b9e6a:	689b      	ldr	r3, [r3, #8]
   b9e6c:	4630      	mov	r0, r6
   b9e6e:	4798      	blx	r3
  for(size_t i = 0; i < quantity; ++i)
   b9e70:	e7f6      	b.n	b9e60 <_ZN7TwoWire5writeEPKhj+0xa>
  }

  return quantity;
}
   b9e72:	4628      	mov	r0, r5
   b9e74:	bdf8      	pop	{r3, r4, r5, r6, r7, pc}

000b9e76 <_ZN7TwoWire5writeEh>:
  return hal_i2c_write(_i2c, data, NULL);
   b9e76:	7c00      	ldrb	r0, [r0, #16]
   b9e78:	2200      	movs	r2, #0
   b9e7a:	f7ff b941 	b.w	b9100 <hal_i2c_write>

000b9e7e <_ZN7TwoWire9availableEv>:
// must be called in:
// slave rx event callback
// or after requestFrom(address, numBytes)
int TwoWire::available(void)
{
  return hal_i2c_available(_i2c, NULL);
   b9e7e:	7c00      	ldrb	r0, [r0, #16]
   b9e80:	2100      	movs	r1, #0
   b9e82:	f7ff b945 	b.w	b9110 <hal_i2c_available>

000b9e86 <_ZN7TwoWire4readEv>:
// must be called in:
// slave rx event callback
// or after requestFrom(address, numBytes)
int TwoWire::read(void)
{
  return hal_i2c_read(_i2c, NULL);
   b9e86:	7c00      	ldrb	r0, [r0, #16]
   b9e88:	2100      	movs	r1, #0
   b9e8a:	f7ff b949 	b.w	b9120 <hal_i2c_read>

000b9e8e <_ZN7TwoWire4peekEv>:
// must be called in:
// slave rx event callback
// or after requestFrom(address, numBytes)
int TwoWire::peek(void)
{
  return hal_i2c_peek(_i2c, NULL);
   b9e8e:	7c00      	ldrb	r0, [r0, #16]
   b9e90:	2100      	movs	r1, #0
   b9e92:	f7ff b94d 	b.w	b9130 <hal_i2c_peek>

000b9e96 <_ZN7TwoWire5flushEv>:
}

void TwoWire::flush(void)
{
  hal_i2c_flush(_i2c, NULL);
   b9e96:	7c00      	ldrb	r0, [r0, #16]
   b9e98:	2100      	movs	r1, #0
   b9e9a:	f7ff b951 	b.w	b9140 <hal_i2c_flush>

000b9e9e <_ZN7TwoWireD0Ev>:
   b9e9e:	b510      	push	{r4, lr}
   b9ea0:	2114      	movs	r1, #20
   b9ea2:	4604      	mov	r4, r0
   b9ea4:	f7fa f8f9 	bl	b409a <_ZdlPvj>
   b9ea8:	4620      	mov	r0, r4
   b9eaa:	bd10      	pop	{r4, pc}

000b9eac <_ZN7TwoWireC1E19hal_i2c_interface_tRK16hal_i2c_config_t>:
TwoWire::TwoWire(hal_i2c_interface_t i2c, const hal_i2c_config_t& conf)
   b9eac:	b510      	push	{r4, lr}
   b9eae:	f44f 737a 	mov.w	r3, #1000	; 0x3e8
   b9eb2:	4604      	mov	r4, r0
   b9eb4:	4608      	mov	r0, r1
   b9eb6:	2100      	movs	r1, #0
   b9eb8:	e9c4 1301 	strd	r1, r3, [r4, #4]
   b9ebc:	4b03      	ldr	r3, [pc, #12]	; (b9ecc <_ZN7TwoWireC1E19hal_i2c_interface_tRK16hal_i2c_config_t+0x20>)
   b9ebe:	6023      	str	r3, [r4, #0]
  _i2c = i2c;
   b9ec0:	7420      	strb	r0, [r4, #16]
  hal_i2c_init(_i2c, &conf);
   b9ec2:	4611      	mov	r1, r2
   b9ec4:	f7ff f94c 	bl	b9160 <hal_i2c_init>
}
   b9ec8:	4620      	mov	r0, r4
   b9eca:	bd10      	pop	{r4, pc}
   b9ecc:	000bcab0 	.word	0x000bcab0

000b9ed0 <_ZN7TwoWire8setSpeedEm>:
  hal_i2c_set_speed(_i2c, clockSpeed, NULL);
   b9ed0:	7c00      	ldrb	r0, [r0, #16]
   b9ed2:	2200      	movs	r2, #0
   b9ed4:	f7ff b8f4 	b.w	b90c0 <hal_i2c_set_speed>

000b9ed8 <_ZN7TwoWire5beginEv>:
	hal_i2c_begin(_i2c, I2C_MODE_MASTER, 0x00, NULL);
   b9ed8:	2300      	movs	r3, #0
   b9eda:	7c00      	ldrb	r0, [r0, #16]
   b9edc:	461a      	mov	r2, r3
   b9ede:	4619      	mov	r1, r3
   b9ee0:	f7ff b8f6 	b.w	b90d0 <hal_i2c_begin>

000b9ee4 <_ZN7TwoWire17beginTransmissionEh>:
	hal_i2c_begin_transmission(_i2c, address, NULL);
   b9ee4:	7c00      	ldrb	r0, [r0, #16]
   b9ee6:	2200      	movs	r2, #0
   b9ee8:	f7ff b8fa 	b.w	b90e0 <hal_i2c_begin_transmission>

000b9eec <_ZN7TwoWire17beginTransmissionEi>:
  beginTransmission((uint8_t)address);
   b9eec:	b2c9      	uxtb	r1, r1
   b9eee:	f7ff bff9 	b.w	b9ee4 <_ZN7TwoWire17beginTransmissionEh>

000b9ef2 <_ZN7TwoWire15endTransmissionEh>:
	return hal_i2c_end_transmission(_i2c, sendStop, NULL);
   b9ef2:	7c00      	ldrb	r0, [r0, #16]
   b9ef4:	2200      	movs	r2, #0
   b9ef6:	f7ff b8fb 	b.w	b90f0 <hal_i2c_end_transmission>

000b9efa <_ZN7TwoWire15endTransmissionEv>:
  return endTransmission(true);
   b9efa:	2101      	movs	r1, #1
   b9efc:	f7ff bff9 	b.w	b9ef2 <_ZN7TwoWire15endTransmissionEh>

000b9f00 <_ZN5spark9WiFiClass5readyEv>:
    bool connecting(void) {
        return network_connecting(*this, 0, NULL);
    }

    bool ready(void) {
        return network_ready(*this, 0, NULL);
   b9f00:	2200      	movs	r2, #0
   b9f02:	6840      	ldr	r0, [r0, #4]
   b9f04:	4611      	mov	r1, r2
   b9f06:	f7ff b9ff 	b.w	b9308 <network_ready>

000b9f0a <_ZN5spark9WiFiClass9listeningEv>:
    uint16_t getListenTimeout(void) {
        return network_get_listen_timeout(*this, 0, NULL);
    }

    bool listening(void) {
        return network_listening(*this, 0, NULL);
   b9f0a:	2200      	movs	r2, #0
   b9f0c:	6840      	ldr	r0, [r0, #4]
   b9f0e:	4611      	mov	r1, r2
   b9f10:	f7ff ba1a 	b.w	b9348 <network_listening>

000b9f14 <_ZN5spark9WiFiClass16getListenTimeoutEv>:
        return network_get_listen_timeout(*this, 0, NULL);
   b9f14:	2200      	movs	r2, #0
   b9f16:	6840      	ldr	r0, [r0, #4]
   b9f18:	4611      	mov	r1, r2
   b9f1a:	f7ff ba25 	b.w	b9368 <network_get_listen_timeout>

000b9f1e <_ZN5spark9WiFiClass16setListenTimeoutEt>:
        network_set_listen_timeout(*this, timeout, NULL);
   b9f1e:	6840      	ldr	r0, [r0, #4]
   b9f20:	2200      	movs	r2, #0
   b9f22:	f7ff ba19 	b.w	b9358 <network_set_listen_timeout>

000b9f26 <_ZN5spark9WiFiClass6listenEb>:
        network_listen(*this, begin ? 0 : 1, NULL);
   b9f26:	6840      	ldr	r0, [r0, #4]
   b9f28:	2200      	movs	r2, #0
   b9f2a:	f081 0101 	eor.w	r1, r1, #1
   b9f2e:	f7ff ba03 	b.w	b9338 <network_listen>

000b9f32 <_ZN5spark9WiFiClass3offEv>:
        network_off(*this, 0, 0, NULL);
   b9f32:	2300      	movs	r3, #0
   b9f34:	6840      	ldr	r0, [r0, #4]
   b9f36:	461a      	mov	r2, r3
   b9f38:	4619      	mov	r1, r3
   b9f3a:	f7ff b9f5 	b.w	b9328 <network_off>

000b9f3e <_ZN5spark9WiFiClass2onEv>:
        network_on(*this, 0, 0, NULL);
   b9f3e:	2300      	movs	r3, #0
   b9f40:	6840      	ldr	r0, [r0, #4]
   b9f42:	461a      	mov	r2, r3
   b9f44:	4619      	mov	r1, r3
   b9f46:	f7ff b9e7 	b.w	b9318 <network_on>

000b9f4a <_ZN5spark9WiFiClass10connectingEv>:
        return network_connecting(*this, 0, NULL);
   b9f4a:	2200      	movs	r2, #0
   b9f4c:	6840      	ldr	r0, [r0, #4]
   b9f4e:	4611      	mov	r1, r2
   b9f50:	f7ff b9ca 	b.w	b92e8 <network_connecting>

000b9f54 <_ZN5spark9WiFiClass10disconnectEv>:
        network_disconnect(*this, NETWORK_DISCONNECT_REASON_USER, NULL);
   b9f54:	6840      	ldr	r0, [r0, #4]
   b9f56:	2200      	movs	r2, #0
   b9f58:	2102      	movs	r1, #2
   b9f5a:	f7ff b9cd 	b.w	b92f8 <network_disconnect>

000b9f5e <_ZN5spark9WiFiClass7connectEj>:
        network_connect(*this, flags, 0, NULL);
   b9f5e:	2300      	movs	r3, #0
   b9f60:	6840      	ldr	r0, [r0, #4]
   b9f62:	461a      	mov	r2, r3
   b9f64:	f7ff b9b8 	b.w	b92d8 <network_connect>

000b9f68 <_GLOBAL__sub_I__ZN10WiFiSignalC2ERK21wlan_connected_info_t>:
   b9f68:	4b02      	ldr	r3, [pc, #8]	; (b9f74 <_GLOBAL__sub_I__ZN10WiFiSignalC2ERK21wlan_connected_info_t+0xc>)
   b9f6a:	2204      	movs	r2, #4
   b9f6c:	605a      	str	r2, [r3, #4]
            NetworkClass(NETWORK_INTERFACE_WIFI_STA) {
   b9f6e:	4a02      	ldr	r2, [pc, #8]	; (b9f78 <_GLOBAL__sub_I__ZN10WiFiSignalC2ERK21wlan_connected_info_t+0x10>)
   b9f70:	601a      	str	r2, [r3, #0]
the same way.
*****************************************************************************/

    WiFiClass WiFi;
    // NetworkClass& Network = WiFi;
}
   b9f72:	4770      	bx	lr
   b9f74:	2003e710 	.word	0x2003e710
   b9f78:	000bcad8 	.word	0x000bcad8

000b9f7c <_ZN5spark12NetworkClass7connectEj>:
        return Network;
    }
}

void NetworkClass::connect(unsigned flags) {
    network_connect(*this, flags, 0, nullptr);
   b9f7c:	2300      	movs	r3, #0
   b9f7e:	6840      	ldr	r0, [r0, #4]
   b9f80:	461a      	mov	r2, r3
   b9f82:	f7ff b9a9 	b.w	b92d8 <network_connect>

000b9f86 <_ZN5spark12NetworkClass10disconnectEv>:
}

void NetworkClass::disconnect() {
    network_disconnect(*this, NETWORK_DISCONNECT_REASON_USER, nullptr);
   b9f86:	6840      	ldr	r0, [r0, #4]
   b9f88:	2200      	movs	r2, #0
   b9f8a:	2102      	movs	r1, #2
   b9f8c:	f7ff b9b4 	b.w	b92f8 <network_disconnect>

000b9f90 <_ZN5spark12NetworkClass10connectingEv>:
}

bool NetworkClass::connecting() {
    return network_connecting(*this, 0, nullptr);
   b9f90:	2200      	movs	r2, #0
   b9f92:	6840      	ldr	r0, [r0, #4]
   b9f94:	4611      	mov	r1, r2
   b9f96:	f7ff b9a7 	b.w	b92e8 <network_connecting>

000b9f9a <_ZN5spark12NetworkClass5readyEv>:
}

bool NetworkClass::ready() {
    return network_ready(*this, 0, nullptr);
   b9f9a:	2200      	movs	r2, #0
   b9f9c:	6840      	ldr	r0, [r0, #4]
   b9f9e:	4611      	mov	r1, r2
   b9fa0:	f7ff b9b2 	b.w	b9308 <network_ready>

000b9fa4 <_ZN5spark12NetworkClass2onEv>:
}

void NetworkClass::on() {
    network_on(*this, 0, 0, nullptr);
   b9fa4:	2300      	movs	r3, #0
   b9fa6:	6840      	ldr	r0, [r0, #4]
   b9fa8:	461a      	mov	r2, r3
   b9faa:	4619      	mov	r1, r3
   b9fac:	f7ff b9b4 	b.w	b9318 <network_on>

000b9fb0 <_ZN5spark12NetworkClass3offEv>:
}

void NetworkClass::off() {
    network_off(*this, 0, 0, nullptr);
   b9fb0:	2300      	movs	r3, #0
   b9fb2:	6840      	ldr	r0, [r0, #4]
   b9fb4:	461a      	mov	r2, r3
   b9fb6:	4619      	mov	r1, r3
   b9fb8:	f7ff b9b6 	b.w	b9328 <network_off>

000b9fbc <_ZN5spark12NetworkClass4isOnEv>:
}

bool NetworkClass::isOn() {
    return network_is_on(*this, nullptr);
   b9fbc:	6840      	ldr	r0, [r0, #4]
   b9fbe:	2100      	movs	r1, #0
   b9fc0:	f7ff b9da 	b.w	b9378 <network_is_on>

000b9fc4 <_ZN5spark12NetworkClass5isOffEv>:
}

bool NetworkClass::isOff() {
    return network_is_off(*this, nullptr);
   b9fc4:	6840      	ldr	r0, [r0, #4]
   b9fc6:	2100      	movs	r1, #0
   b9fc8:	f7ff b9de 	b.w	b9388 <network_is_off>

000b9fcc <_ZN5spark12NetworkClass6listenEb>:
}

void NetworkClass::listen(bool begin) {
    network_listen(*this, begin ? 0 : 1, nullptr);
   b9fcc:	6840      	ldr	r0, [r0, #4]
   b9fce:	2200      	movs	r2, #0
   b9fd0:	f081 0101 	eor.w	r1, r1, #1
   b9fd4:	f7ff b9b0 	b.w	b9338 <network_listen>

000b9fd8 <_ZN5spark12NetworkClass16setListenTimeoutEt>:
}

void NetworkClass::setListenTimeout(uint16_t timeout) {
    network_set_listen_timeout(*this, timeout, nullptr);
   b9fd8:	6840      	ldr	r0, [r0, #4]
   b9fda:	2200      	movs	r2, #0
   b9fdc:	f7ff b9bc 	b.w	b9358 <network_set_listen_timeout>

000b9fe0 <_ZN5spark12NetworkClass16getListenTimeoutEv>:
}

uint16_t NetworkClass::getListenTimeout() {
    return network_get_listen_timeout(*this, 0, nullptr);
   b9fe0:	2200      	movs	r2, #0
   b9fe2:	6840      	ldr	r0, [r0, #4]
   b9fe4:	4611      	mov	r1, r2
   b9fe6:	f7ff b9bf 	b.w	b9368 <network_get_listen_timeout>

000b9fea <_ZN5spark12NetworkClass9listeningEv>:
}

bool NetworkClass::listening() {
    return network_listening(*this, 0, nullptr);
   b9fea:	2200      	movs	r2, #0
   b9fec:	6840      	ldr	r0, [r0, #4]
   b9fee:	4611      	mov	r1, r2
   b9ff0:	f7ff b9aa 	b.w	b9348 <network_listening>

000b9ff4 <_ZN5spark12NetworkClass7resolveEPKc>:
}

IPAddress NetworkClass::resolve(const char* name) {
   b9ff4:	e92d 43f0 	stmdb	sp!, {r4, r5, r6, r7, r8, r9, lr}
   b9ff8:	b095      	sub	sp, #84	; 0x54
   b9ffa:	4614      	mov	r4, r2
   b9ffc:	460d      	mov	r5, r1
   b9ffe:	4607      	mov	r7, r0
    IPAddress addr;
   ba000:	f7ff fde6 	bl	b9bd0 <_ZN9IPAddressC1Ev>
#if HAL_USE_INET_HAL_POSIX
    struct addrinfo *ai = nullptr;
   ba004:	2100      	movs	r1, #0
    struct addrinfo hints = {};
   ba006:	221c      	movs	r2, #28
   ba008:	a80d      	add	r0, sp, #52	; 0x34
    struct addrinfo *ai = nullptr;
   ba00a:	9100      	str	r1, [sp, #0]
    struct addrinfo hints = {};
   ba00c:	f000 fde6 	bl	babdc <memset>
    hints.ai_flags = AI_ADDRCONFIG;
   ba010:	2340      	movs	r3, #64	; 0x40
   ba012:	930c      	str	r3, [sp, #48]	; 0x30
    hints.ai_family = AF_UNSPEC;
    const int r = getaddrinfo(name, nullptr, &hints, &ai);
   ba014:	4620      	mov	r0, r4
   ba016:	466b      	mov	r3, sp
   ba018:	aa0c      	add	r2, sp, #48	; 0x30
   ba01a:	2100      	movs	r1, #0
   ba01c:	f7fe ff78 	bl	b8f10 <netdb_getaddrinfo>
    if (!r) {
   ba020:	4604      	mov	r4, r0
   ba022:	2800      	cmp	r0, #0
   ba024:	d14b      	bne.n	ba0be <_ZN5spark12NetworkClass7resolveEPKc+0xca>
        bool ok = false;
        // This is not really needed if AI_ADDRCONFIG is properly supported
        bool ipv4 = network_ready(*this, NETWORK_READY_TYPE_IPV4, nullptr);
   ba026:	4602      	mov	r2, r0
   ba028:	2101      	movs	r1, #1
   ba02a:	6868      	ldr	r0, [r5, #4]
   ba02c:	f7ff f96c 	bl	b9308 <network_ready>
        bool ipv6 = network_ready(*this, NETWORK_READY_TYPE_IPV6, nullptr);
   ba030:	2102      	movs	r1, #2
        bool ipv4 = network_ready(*this, NETWORK_READY_TYPE_IPV4, nullptr);
   ba032:	4680      	mov	r8, r0
        bool ipv6 = network_ready(*this, NETWORK_READY_TYPE_IPV6, nullptr);
   ba034:	4622      	mov	r2, r4
   ba036:	6868      	ldr	r0, [r5, #4]
   ba038:	f7ff f966 	bl	b9308 <network_ready>
        for (auto cur = ai; cur != nullptr && !ok; cur = cur->ai_next) {
   ba03c:	9e00      	ldr	r6, [sp, #0]
        bool ipv6 = network_ready(*this, NETWORK_READY_TYPE_IPV6, nullptr);
   ba03e:	4681      	mov	r9, r0
        bool ok = false;
   ba040:	4621      	mov	r1, r4
        for (auto cur = ai; cur != nullptr && !ok; cur = cur->ai_next) {
   ba042:	2e00      	cmp	r6, #0
   ba044:	d03b      	beq.n	ba0be <_ZN5spark12NetworkClass7resolveEPKc+0xca>
   ba046:	2900      	cmp	r1, #0
   ba048:	d139      	bne.n	ba0be <_ZN5spark12NetworkClass7resolveEPKc+0xca>
            // NOTE: using only the first entry that matches the current state of IPv4/IPv6 connectivity
            switch (cur->ai_family) {
   ba04a:	6873      	ldr	r3, [r6, #4]
   ba04c:	2b02      	cmp	r3, #2
   ba04e:	d003      	beq.n	ba058 <_ZN5spark12NetworkClass7resolveEPKc+0x64>
   ba050:	2b0a      	cmp	r3, #10
   ba052:	d011      	beq.n	ba078 <_ZN5spark12NetworkClass7resolveEPKc+0x84>
        for (auto cur = ai; cur != nullptr && !ok; cur = cur->ai_next) {
   ba054:	69f6      	ldr	r6, [r6, #28]
   ba056:	e7f4      	b.n	ba042 <_ZN5spark12NetworkClass7resolveEPKc+0x4e>
                case AF_INET: {
                    if (!ipv4) {
   ba058:	f1b8 0f00 	cmp.w	r8, #0
   ba05c:	d0fa      	beq.n	ba054 <_ZN5spark12NetworkClass7resolveEPKc+0x60>
                        continue;
                    }
                    // NOTE: HAL_IPAddress is little-endian
                    auto in = (struct sockaddr_in*)cur->ai_addr;
                    addr = (const uint8_t*)(&in->sin_addr.s_addr);
   ba05e:	6971      	ldr	r1, [r6, #20]
        return *this = IPAddress(address);
   ba060:	a806      	add	r0, sp, #24
   ba062:	3104      	adds	r1, #4
class IPAddress : public Printable {
   ba064:	ad07      	add	r5, sp, #28
        return *this = IPAddress(address);
   ba066:	f7ff fde1 	bl	b9c2c <_ZN9IPAddressC1EPKh>
class IPAddress : public Printable {
   ba06a:	cd0f      	ldmia	r5!, {r0, r1, r2, r3}
   ba06c:	1d3c      	adds	r4, r7, #4
   ba06e:	c40f      	stmia	r4!, {r0, r1, r2, r3}
   ba070:	682b      	ldr	r3, [r5, #0]
   ba072:	7023      	strb	r3, [r4, #0]
                    ok = true;
   ba074:	4641      	mov	r1, r8
        return *this = IPAddress(address);
   ba076:	e7ed      	b.n	ba054 <_ZN5spark12NetworkClass7resolveEPKc+0x60>
                    break;
                }
                case AF_INET6: {
                    if (!ipv6) {
   ba078:	f1b9 0f00 	cmp.w	r9, #0
   ba07c:	d0ea      	beq.n	ba054 <_ZN5spark12NetworkClass7resolveEPKc+0x60>
                        continue;
                    }
                    auto in6 = (struct sockaddr_in6*)cur->ai_addr;
   ba07e:	6974      	ldr	r4, [r6, #20]
                    HAL_IPAddress a = {};
   ba080:	2210      	movs	r2, #16
   ba082:	a801      	add	r0, sp, #4
   ba084:	f000 fdaa 	bl	babdc <memset>
                    a.v = 6;
   ba088:	2306      	movs	r3, #6
   ba08a:	f88d 3014 	strb.w	r3, [sp, #20]
                    memcpy(a.ipv6, in6->sin6_addr.s6_addr, sizeof(a.ipv6));
   ba08e:	ad01      	add	r5, sp, #4
   ba090:	f104 0308 	add.w	r3, r4, #8
   ba094:	3418      	adds	r4, #24
   ba096:	6818      	ldr	r0, [r3, #0]
   ba098:	6859      	ldr	r1, [r3, #4]
   ba09a:	462a      	mov	r2, r5
   ba09c:	c203      	stmia	r2!, {r0, r1}
   ba09e:	3308      	adds	r3, #8
   ba0a0:	42a3      	cmp	r3, r4
   ba0a2:	4615      	mov	r5, r2
   ba0a4:	d1f7      	bne.n	ba096 <_ZN5spark12NetworkClass7resolveEPKc+0xa2>
                    addr = IPAddress(a);
   ba0a6:	a901      	add	r1, sp, #4
   ba0a8:	a806      	add	r0, sp, #24
class IPAddress : public Printable {
   ba0aa:	ad07      	add	r5, sp, #28
   ba0ac:	f7ff fd9e 	bl	b9bec <_ZN9IPAddressC1ERK16_HAL_IPAddress_t>
   ba0b0:	cd0f      	ldmia	r5!, {r0, r1, r2, r3}
   ba0b2:	1d3c      	adds	r4, r7, #4
   ba0b4:	c40f      	stmia	r4!, {r0, r1, r2, r3}
   ba0b6:	682b      	ldr	r3, [r5, #0]
   ba0b8:	7023      	strb	r3, [r4, #0]
                    ok = true;
   ba0ba:	4649      	mov	r1, r9
   ba0bc:	e7ca      	b.n	ba054 <_ZN5spark12NetworkClass7resolveEPKc+0x60>
                    break;
                }
            }
        }
    }
    freeaddrinfo(ai);
   ba0be:	9800      	ldr	r0, [sp, #0]
   ba0c0:	f7fe ff1e 	bl	b8f00 <netdb_freeaddrinfo>
    return Cellular.resolve(name);
#endif // Wiring_Cellular

#endif // HAL_USE_INET_HAL_POSIX
    return addr;
}
   ba0c4:	4638      	mov	r0, r7
   ba0c6:	b015      	add	sp, #84	; 0x54
   ba0c8:	e8bd 83f0 	ldmia.w	sp!, {r4, r5, r6, r7, r8, r9, pc}

000ba0cc <_GLOBAL__sub_I__ZN5spark7NetworkE>:
   ba0cc:	4b02      	ldr	r3, [pc, #8]	; (ba0d8 <_GLOBAL__sub_I__ZN5spark7NetworkE+0xc>)
   ba0ce:	4a03      	ldr	r2, [pc, #12]	; (ba0dc <_GLOBAL__sub_I__ZN5spark7NetworkE+0x10>)
   ba0d0:	601a      	str	r2, [r3, #0]
   ba0d2:	2200      	movs	r2, #0
   ba0d4:	605a      	str	r2, [r3, #4]

} // spark
   ba0d6:	4770      	bx	lr
   ba0d8:	2003e718 	.word	0x2003e718
   ba0dc:	000bcb14 	.word	0x000bcb14

000ba0e0 <pinAvailable>:
/*
 * @brief Perform safety check on desired pin to see if it's already
 * being used.  Return 0 if used, otherwise return 1 if available.
 */
bool pinAvailable(uint16_t pin) {
  if (pin >= TOTAL_PINS) {
   ba0e0:	2823      	cmp	r0, #35	; 0x23
bool pinAvailable(uint16_t pin) {
   ba0e2:	b513      	push	{r0, r1, r4, lr}
  if (pin >= TOTAL_PINS) {
   ba0e4:	d902      	bls.n	ba0ec <pinAvailable+0xc>
    return false;
   ba0e6:	2000      	movs	r0, #0
    return false; // 'pin' is used
  }
#endif

  return true; // 'pin' is available
}
   ba0e8:	b002      	add	sp, #8
   ba0ea:	bd10      	pop	{r4, pc}
  if((pin == SCK || pin == MOSI || pin == MISO) && hal_spi_is_enabled(SPI.interface()) == true)
   ba0ec:	f1a0 030b 	sub.w	r3, r0, #11
   ba0f0:	2b02      	cmp	r3, #2
   ba0f2:	d81a      	bhi.n	ba12a <pinAvailable+0x4a>

template <hal_spi_interface_t Interface>
class SpiProxy {
public:
    static SPIClass& instance() {
        static SPIClass instance(Interface);
   ba0f4:	4c17      	ldr	r4, [pc, #92]	; (ba154 <pinAvailable+0x74>)
   ba0f6:	7821      	ldrb	r1, [r4, #0]
   ba0f8:	f3bf 8f5b 	dmb	ish
   ba0fc:	f011 0101 	ands.w	r1, r1, #1
   ba100:	d10b      	bne.n	ba11a <pinAvailable+0x3a>
   ba102:	4620      	mov	r0, r4
   ba104:	9101      	str	r1, [sp, #4]
   ba106:	f7f9 ffd7 	bl	b40b8 <__cxa_guard_acquire>
   ba10a:	9901      	ldr	r1, [sp, #4]
   ba10c:	b128      	cbz	r0, ba11a <pinAvailable+0x3a>
   ba10e:	4812      	ldr	r0, [pc, #72]	; (ba158 <pinAvailable+0x78>)
   ba110:	f7ff f9d6 	bl	b94c0 <_ZN8SPIClassC1E19hal_spi_interface_t>
   ba114:	4620      	mov	r0, r4
   ba116:	f7f9 ffd4 	bl	b40c2 <__cxa_guard_release>
   ba11a:	4b0f      	ldr	r3, [pc, #60]	; (ba158 <pinAvailable+0x78>)
   ba11c:	7818      	ldrb	r0, [r3, #0]
   ba11e:	f7ff f83f 	bl	b91a0 <hal_spi_is_enabled>
   ba122:	2800      	cmp	r0, #0
   ba124:	d1df      	bne.n	ba0e6 <pinAvailable+0x6>
  return true; // 'pin' is available
   ba126:	2001      	movs	r0, #1
   ba128:	e7de      	b.n	ba0e8 <pinAvailable+0x8>
  if((pin == SCL || pin == SDA) && hal_i2c_is_enabled(Wire.interface(), nullptr) == true)
   ba12a:	2801      	cmp	r0, #1
   ba12c:	d809      	bhi.n	ba142 <pinAvailable+0x62>
   ba12e:	f000 f8f5 	bl	ba31c <_Z19__fetch_global_Wirev>
   ba132:	2100      	movs	r1, #0
   ba134:	7c00      	ldrb	r0, [r0, #16]
   ba136:	f7ff f80b 	bl	b9150 <hal_i2c_is_enabled>
  if((pin == RX || pin == TX) && hal_usart_is_enabled(Serial1.interface()) == true)
   ba13a:	f080 0001 	eor.w	r0, r0, #1
   ba13e:	b2c0      	uxtb	r0, r0
   ba140:	e7d2      	b.n	ba0e8 <pinAvailable+0x8>
   ba142:	3809      	subs	r0, #9
   ba144:	2801      	cmp	r0, #1
   ba146:	d8ee      	bhi.n	ba126 <pinAvailable+0x46>
   ba148:	f000 f896 	bl	ba278 <_Z22__fetch_global_Serial1v>
   ba14c:	7c00      	ldrb	r0, [r0, #16]
   ba14e:	f7fe ff9f 	bl	b9090 <hal_usart_is_enabled>
   ba152:	e7f2      	b.n	ba13a <pinAvailable+0x5a>
   ba154:	2003cd14 	.word	0x2003cd14
   ba158:	2003cd18 	.word	0x2003cd18

000ba15c <pinMode>:
  if(pin >= TOTAL_PINS || setMode == PIN_MODE_NONE )
   ba15c:	2823      	cmp	r0, #35	; 0x23
{
   ba15e:	b538      	push	{r3, r4, r5, lr}
   ba160:	4604      	mov	r4, r0
   ba162:	460d      	mov	r5, r1
  if(pin >= TOTAL_PINS || setMode == PIN_MODE_NONE )
   ba164:	d80a      	bhi.n	ba17c <pinMode+0x20>
   ba166:	29ff      	cmp	r1, #255	; 0xff
   ba168:	d008      	beq.n	ba17c <pinMode+0x20>
  if( !pinAvailable(pin) ) {
   ba16a:	f7ff ffb9 	bl	ba0e0 <pinAvailable>
   ba16e:	b128      	cbz	r0, ba17c <pinMode+0x20>
  HAL_Pin_Mode(pin, setMode);
   ba170:	4629      	mov	r1, r5
   ba172:	4620      	mov	r0, r4
}
   ba174:	e8bd 4038 	ldmia.w	sp!, {r3, r4, r5, lr}
  HAL_Pin_Mode(pin, setMode);
   ba178:	f7fe beda 	b.w	b8f30 <HAL_Pin_Mode>
}
   ba17c:	bd38      	pop	{r3, r4, r5, pc}

000ba17e <digitalWrite>:

/*
 * @brief Sets a GPIO pin to HIGH or LOW.
 */
void digitalWrite(pin_t pin, uint8_t value)
{
   ba17e:	b538      	push	{r3, r4, r5, lr}
   ba180:	4604      	mov	r4, r0
   ba182:	460d      	mov	r5, r1
    PinMode mode = HAL_Get_Pin_Mode(pin);
   ba184:	f7fe fedc 	bl	b8f40 <HAL_Get_Pin_Mode>
    if (mode==PIN_MODE_NONE || is_input_mode(mode))
   ba188:	28ff      	cmp	r0, #255	; 0xff
   ba18a:	d010      	beq.n	ba1ae <digitalWrite+0x30>
            mode == INPUT_PULLDOWN ||
   ba18c:	2806      	cmp	r0, #6
   ba18e:	d804      	bhi.n	ba19a <digitalWrite+0x1c>
   ba190:	234d      	movs	r3, #77	; 0x4d
   ba192:	fa23 f000 	lsr.w	r0, r3, r0
   ba196:	07c3      	lsls	r3, r0, #31
   ba198:	d409      	bmi.n	ba1ae <digitalWrite+0x30>
        return;
  // Safety check
  if( !pinAvailable(pin) ) {
   ba19a:	4620      	mov	r0, r4
   ba19c:	f7ff ffa0 	bl	ba0e0 <pinAvailable>
   ba1a0:	b128      	cbz	r0, ba1ae <digitalWrite+0x30>
    return;
  }

  HAL_GPIO_Write(pin, value);
   ba1a2:	4629      	mov	r1, r5
   ba1a4:	4620      	mov	r0, r4
}
   ba1a6:	e8bd 4038 	ldmia.w	sp!, {r3, r4, r5, lr}
  HAL_GPIO_Write(pin, value);
   ba1aa:	f7fe bed1 	b.w	b8f50 <HAL_GPIO_Write>
}
   ba1ae:	bd38      	pop	{r3, r4, r5, pc}

000ba1b0 <digitalRead>:

/*
 * @brief Reads the value of a GPIO pin. Should return either 1 (HIGH) or 0 (LOW).
 */
int32_t digitalRead(pin_t pin)
{
   ba1b0:	b510      	push	{r4, lr}
   ba1b2:	4604      	mov	r4, r0
    PinMode mode = HAL_Get_Pin_Mode(pin);
   ba1b4:	f7fe fec4 	bl	b8f40 <HAL_Get_Pin_Mode>
    return mode == AF_OUTPUT_PUSHPULL ||
   ba1b8:	1f03      	subs	r3, r0, #4
    if (is_af_output_mode(mode))
   ba1ba:	b2db      	uxtb	r3, r3
   ba1bc:	2b01      	cmp	r3, #1
   ba1be:	d908      	bls.n	ba1d2 <digitalRead+0x22>
        return LOW;

    // Safety check
    if( !pinAvailable(pin) ) {
   ba1c0:	4620      	mov	r0, r4
   ba1c2:	f7ff ff8d 	bl	ba0e0 <pinAvailable>
   ba1c6:	b120      	cbz	r0, ba1d2 <digitalRead+0x22>
      return LOW;
    }

    return HAL_GPIO_Read(pin);
   ba1c8:	4620      	mov	r0, r4
}
   ba1ca:	e8bd 4010 	ldmia.w	sp!, {r4, lr}
    return HAL_GPIO_Read(pin);
   ba1ce:	f7fe bec7 	b.w	b8f60 <HAL_GPIO_Read>
}
   ba1d2:	2000      	movs	r0, #0
   ba1d4:	bd10      	pop	{r4, pc}

000ba1d6 <analogRead>:
 */
int32_t analogRead(pin_t pin)
{
  // Allow people to use 0-7 to define analog pins by checking to see if the values are too low.
#if defined(FIRST_ANALOG_PIN) && FIRST_ANALOG_PIN > 0
  if(pin < FIRST_ANALOG_PIN)
   ba1d6:	280d      	cmp	r0, #13
{
   ba1d8:	b510      	push	{r4, lr}
   ba1da:	4604      	mov	r4, r0
  {
    pin = pin + FIRST_ANALOG_PIN;
   ba1dc:	bf9c      	itt	ls
   ba1de:	340e      	addls	r4, #14
   ba1e0:	b2a4      	uxthls	r4, r4
  }
#endif // defined(FIRST_ANALOG_PIN) && FIRST_ANALOG_PIN > 0

  // Safety check
  if( !pinAvailable(pin) ) {
   ba1e2:	4620      	mov	r0, r4
   ba1e4:	f7ff ff7c 	bl	ba0e0 <pinAvailable>
   ba1e8:	b150      	cbz	r0, ba200 <analogRead+0x2a>
    return LOW;
  }

  if(HAL_Validate_Pin_Function(pin, PF_ADC)!=PF_ADC)
   ba1ea:	2103      	movs	r1, #3
   ba1ec:	4620      	mov	r0, r4
   ba1ee:	f7fe fe97 	bl	b8f20 <HAL_Validate_Pin_Function>
   ba1f2:	2803      	cmp	r0, #3
   ba1f4:	d104      	bne.n	ba200 <analogRead+0x2a>
  {
    return LOW;
  }

  return hal_adc_read(pin);
   ba1f6:	4620      	mov	r0, r4
}
   ba1f8:	e8bd 4010 	ldmia.w	sp!, {r4, lr}
  return hal_adc_read(pin);
   ba1fc:	f7fe bec8 	b.w	b8f90 <hal_adc_read>
}
   ba200:	2000      	movs	r0, #0
   ba202:	bd10      	pop	{r4, pc}

000ba204 <_Z11analogWritetmm>:
/*
 * @brief Should take an integer 0-255 and create a PWM signal with a duty cycle from 0-100%
 * and frequency from 1 to 65535 Hz.
 */
void analogWrite(pin_t pin, uint32_t value, uint32_t pwm_frequency)
{
   ba204:	b570      	push	{r4, r5, r6, lr}
   ba206:	4604      	mov	r4, r0
   ba208:	460d      	mov	r5, r1
   ba20a:	4616      	mov	r6, r2
    // Safety check
    if (!pinAvailable(pin))
   ba20c:	f7ff ff68 	bl	ba0e0 <pinAvailable>
   ba210:	b198      	cbz	r0, ba23a <_Z11analogWritetmm+0x36>
    {
        return;
    }

    if (HAL_Validate_Pin_Function(pin, PF_TIMER) == PF_TIMER)
   ba212:	2102      	movs	r1, #2
   ba214:	4620      	mov	r0, r4
   ba216:	f7fe fe83 	bl	b8f20 <HAL_Validate_Pin_Function>
   ba21a:	2802      	cmp	r0, #2
   ba21c:	d10d      	bne.n	ba23a <_Z11analogWritetmm+0x36>
    {
        PinMode mode = HAL_Get_Pin_Mode(pin);
   ba21e:	4620      	mov	r0, r4
   ba220:	f7fe fe8e 	bl	b8f40 <HAL_Get_Pin_Mode>

        if (mode != OUTPUT && mode != AF_OUTPUT_PUSHPULL)
   ba224:	2801      	cmp	r0, #1
   ba226:	d001      	beq.n	ba22c <_Z11analogWritetmm+0x28>
   ba228:	2804      	cmp	r0, #4
   ba22a:	d106      	bne.n	ba23a <_Z11analogWritetmm+0x36>
        {
            return;
        }

        hal_pwm_write_with_frequency_ext(pin, value, pwm_frequency);
   ba22c:	4632      	mov	r2, r6
   ba22e:	4629      	mov	r1, r5
   ba230:	4620      	mov	r0, r4
    }
}
   ba232:	e8bd 4070 	ldmia.w	sp!, {r4, r5, r6, lr}
        hal_pwm_write_with_frequency_ext(pin, value, pwm_frequency);
   ba236:	f7fe bebb 	b.w	b8fb0 <hal_pwm_write_with_frequency_ext>
}
   ba23a:	bd70      	pop	{r4, r5, r6, pc}

000ba23c <pulseIn>:
 */
uint32_t pulseIn(pin_t pin, uint16_t value) {

    // NO SAFETY CHECKS!!! WILD WILD WEST!!!

    return HAL_Pulse_In(pin, value);
   ba23c:	f7fe beb0 	b.w	b8fa0 <HAL_Pulse_In>

000ba240 <__tcf_0>:
}
#endif

USARTSerial& __fetch_global_Serial1()
{
    static USARTSerial serial1(HAL_USART_SERIAL1, acquireSerial1Buffer());
   ba240:	4770      	bx	lr
	...

000ba244 <_Z20acquireSerial1Bufferv>:
{
   ba244:	b538      	push	{r3, r4, r5, lr}
   ba246:	4604      	mov	r4, r0
    hal_usart_buffer_config_t config = {
   ba248:	2514      	movs	r5, #20
   ba24a:	462a      	mov	r2, r5
   ba24c:	2100      	movs	r1, #0
   ba24e:	f000 fcc5 	bl	babdc <memset>
   ba252:	8025      	strh	r5, [r4, #0]
   ba254:	2540      	movs	r5, #64	; 0x40
        .rx_buffer = new (std::nothrow) uint8_t[bufferSize],
   ba256:	4907      	ldr	r1, [pc, #28]	; (ba274 <_Z20acquireSerial1Bufferv+0x30>)
    hal_usart_buffer_config_t config = {
   ba258:	8125      	strh	r5, [r4, #8]
        .rx_buffer = new (std::nothrow) uint8_t[bufferSize],
   ba25a:	4628      	mov	r0, r5
    hal_usart_buffer_config_t config = {
   ba25c:	8225      	strh	r5, [r4, #16]
        .rx_buffer = new (std::nothrow) uint8_t[bufferSize],
   ba25e:	f000 f881 	bl	ba364 <_ZnajRKSt9nothrow_t>
        .tx_buffer = new (std::nothrow) uint8_t[bufferSize],
   ba262:	4904      	ldr	r1, [pc, #16]	; (ba274 <_Z20acquireSerial1Bufferv+0x30>)
    };
   ba264:	6060      	str	r0, [r4, #4]
        .tx_buffer = new (std::nothrow) uint8_t[bufferSize],
   ba266:	4628      	mov	r0, r5
   ba268:	f000 f87c 	bl	ba364 <_ZnajRKSt9nothrow_t>
    };
   ba26c:	60e0      	str	r0, [r4, #12]
}
   ba26e:	4620      	mov	r0, r4
   ba270:	bd38      	pop	{r3, r4, r5, pc}
   ba272:	bf00      	nop
   ba274:	000bcb48 	.word	0x000bcb48

000ba278 <_Z22__fetch_global_Serial1v>:
{
   ba278:	b530      	push	{r4, r5, lr}
    static USARTSerial serial1(HAL_USART_SERIAL1, acquireSerial1Buffer());
   ba27a:	4d0e      	ldr	r5, [pc, #56]	; (ba2b4 <_Z22__fetch_global_Serial1v+0x3c>)
   ba27c:	7829      	ldrb	r1, [r5, #0]
   ba27e:	f3bf 8f5b 	dmb	ish
   ba282:	f011 0401 	ands.w	r4, r1, #1
{
   ba286:	b087      	sub	sp, #28
    static USARTSerial serial1(HAL_USART_SERIAL1, acquireSerial1Buffer());
   ba288:	d111      	bne.n	ba2ae <_Z22__fetch_global_Serial1v+0x36>
   ba28a:	4628      	mov	r0, r5
   ba28c:	f7f9 ff14 	bl	b40b8 <__cxa_guard_acquire>
   ba290:	b168      	cbz	r0, ba2ae <_Z22__fetch_global_Serial1v+0x36>
   ba292:	a801      	add	r0, sp, #4
   ba294:	f7ff ffd6 	bl	ba244 <_Z20acquireSerial1Bufferv>
   ba298:	aa01      	add	r2, sp, #4
   ba29a:	4621      	mov	r1, r4
   ba29c:	4806      	ldr	r0, [pc, #24]	; (ba2b8 <_Z22__fetch_global_Serial1v+0x40>)
   ba29e:	f7ff fdc5 	bl	b9e2c <_ZN11USARTSerialC1E21hal_usart_interface_tRK25hal_usart_buffer_config_t>
   ba2a2:	4628      	mov	r0, r5
   ba2a4:	f7f9 ff0d 	bl	b40c2 <__cxa_guard_release>
   ba2a8:	4804      	ldr	r0, [pc, #16]	; (ba2bc <_Z22__fetch_global_Serial1v+0x44>)
   ba2aa:	f000 fc7b 	bl	baba4 <atexit>
    return serial1;
}
   ba2ae:	4802      	ldr	r0, [pc, #8]	; (ba2b8 <_Z22__fetch_global_Serial1v+0x40>)
   ba2b0:	b007      	add	sp, #28
   ba2b2:	bd30      	pop	{r4, r5, pc}
   ba2b4:	2003e720 	.word	0x2003e720
   ba2b8:	2003e724 	.word	0x2003e724
   ba2bc:	000ba241 	.word	0x000ba241

000ba2c0 <_Z21__fetch_global_EEPROMv>:

// we don't use this global instance since there's no actual instance data
// Having this keeps the unoptimized build happy

EEPROMClass& __fetch_global_EEPROM()
{
   ba2c0:	b510      	push	{r4, lr}
	static EEPROMClass eeprom;
   ba2c2:	4c08      	ldr	r4, [pc, #32]	; (ba2e4 <_Z21__fetch_global_EEPROMv+0x24>)
   ba2c4:	7823      	ldrb	r3, [r4, #0]
   ba2c6:	f3bf 8f5b 	dmb	ish
   ba2ca:	07db      	lsls	r3, r3, #31
   ba2cc:	d408      	bmi.n	ba2e0 <_Z21__fetch_global_EEPROMv+0x20>
   ba2ce:	4620      	mov	r0, r4
   ba2d0:	f7f9 fef2 	bl	b40b8 <__cxa_guard_acquire>
   ba2d4:	b120      	cbz	r0, ba2e0 <_Z21__fetch_global_EEPROMv+0x20>

struct EEPROMClass{

	EEPROMClass()
    {
    		HAL_EEPROM_Init();
   ba2d6:	f7fe fe8b 	bl	b8ff0 <HAL_EEPROM_Init>
   ba2da:	4620      	mov	r0, r4
   ba2dc:	f7f9 fef1 	bl	b40c2 <__cxa_guard_release>
	return eeprom;
}
   ba2e0:	4801      	ldr	r0, [pc, #4]	; (ba2e8 <_Z21__fetch_global_EEPROMv+0x28>)
   ba2e2:	bd10      	pop	{r4, pc}
   ba2e4:	2003e73c 	.word	0x2003e73c
   ba2e8:	2003e740 	.word	0x2003e740

000ba2ec <__tcf_0>:
}
#endif

TwoWire& __fetch_global_Wire()
{
	static TwoWire wire(HAL_I2C_INTERFACE1, acquireWireBuffer());
   ba2ec:	4770      	bx	lr
	...

000ba2f0 <_Z17acquireWireBufferv>:
{
   ba2f0:	b538      	push	{r3, r4, r5, lr}
	hal_i2c_config_t config = {
   ba2f2:	2520      	movs	r5, #32
   ba2f4:	2314      	movs	r3, #20
{
   ba2f6:	4604      	mov	r4, r0
	hal_i2c_config_t config = {
   ba2f8:	6003      	str	r3, [r0, #0]
   ba2fa:	6085      	str	r5, [r0, #8]
   ba2fc:	6105      	str	r5, [r0, #16]
		.rx_buffer = new (std::nothrow) uint8_t[I2C_BUFFER_LENGTH],
   ba2fe:	4906      	ldr	r1, [pc, #24]	; (ba318 <_Z17acquireWireBufferv+0x28>)
   ba300:	4628      	mov	r0, r5
   ba302:	f000 f82f 	bl	ba364 <_ZnajRKSt9nothrow_t>
		.tx_buffer = new (std::nothrow) uint8_t[I2C_BUFFER_LENGTH],
   ba306:	4904      	ldr	r1, [pc, #16]	; (ba318 <_Z17acquireWireBufferv+0x28>)
	};
   ba308:	6060      	str	r0, [r4, #4]
		.tx_buffer = new (std::nothrow) uint8_t[I2C_BUFFER_LENGTH],
   ba30a:	4628      	mov	r0, r5
   ba30c:	f000 f82a 	bl	ba364 <_ZnajRKSt9nothrow_t>
	};
   ba310:	60e0      	str	r0, [r4, #12]
}
   ba312:	4620      	mov	r0, r4
   ba314:	bd38      	pop	{r3, r4, r5, pc}
   ba316:	bf00      	nop
   ba318:	000bcb48 	.word	0x000bcb48

000ba31c <_Z19__fetch_global_Wirev>:
{
   ba31c:	b530      	push	{r4, r5, lr}
	static TwoWire wire(HAL_I2C_INTERFACE1, acquireWireBuffer());
   ba31e:	4d0e      	ldr	r5, [pc, #56]	; (ba358 <_Z19__fetch_global_Wirev+0x3c>)
   ba320:	7829      	ldrb	r1, [r5, #0]
   ba322:	f3bf 8f5b 	dmb	ish
   ba326:	f011 0401 	ands.w	r4, r1, #1
{
   ba32a:	b087      	sub	sp, #28
	static TwoWire wire(HAL_I2C_INTERFACE1, acquireWireBuffer());
   ba32c:	d111      	bne.n	ba352 <_Z19__fetch_global_Wirev+0x36>
   ba32e:	4628      	mov	r0, r5
   ba330:	f7f9 fec2 	bl	b40b8 <__cxa_guard_acquire>
   ba334:	b168      	cbz	r0, ba352 <_Z19__fetch_global_Wirev+0x36>
   ba336:	a801      	add	r0, sp, #4
   ba338:	f7ff ffda 	bl	ba2f0 <_Z17acquireWireBufferv>
   ba33c:	aa01      	add	r2, sp, #4
   ba33e:	4621      	mov	r1, r4
   ba340:	4806      	ldr	r0, [pc, #24]	; (ba35c <_Z19__fetch_global_Wirev+0x40>)
   ba342:	f7ff fdb3 	bl	b9eac <_ZN7TwoWireC1E19hal_i2c_interface_tRK16hal_i2c_config_t>
   ba346:	4628      	mov	r0, r5
   ba348:	f7f9 febb 	bl	b40c2 <__cxa_guard_release>
   ba34c:	4804      	ldr	r0, [pc, #16]	; (ba360 <_Z19__fetch_global_Wirev+0x44>)
   ba34e:	f000 fc29 	bl	baba4 <atexit>
	return wire;
}
   ba352:	4802      	ldr	r0, [pc, #8]	; (ba35c <_Z19__fetch_global_Wirev+0x40>)
   ba354:	b007      	add	sp, #28
   ba356:	bd30      	pop	{r4, r5, pc}
   ba358:	2003e744 	.word	0x2003e744
   ba35c:	2003e748 	.word	0x2003e748
   ba360:	000ba2ed 	.word	0x000ba2ed

000ba364 <_ZnajRKSt9nothrow_t>:
   ba364:	f7f9 be97 	b.w	b4096 <_Znaj>

000ba368 <__aeabi_drsub>:
   ba368:	f081 4100 	eor.w	r1, r1, #2147483648	; 0x80000000
   ba36c:	e002      	b.n	ba374 <__adddf3>
   ba36e:	bf00      	nop

000ba370 <__aeabi_dsub>:
   ba370:	f083 4300 	eor.w	r3, r3, #2147483648	; 0x80000000

000ba374 <__adddf3>:
   ba374:	b530      	push	{r4, r5, lr}
   ba376:	ea4f 0441 	mov.w	r4, r1, lsl #1
   ba37a:	ea4f 0543 	mov.w	r5, r3, lsl #1
   ba37e:	ea94 0f05 	teq	r4, r5
   ba382:	bf08      	it	eq
   ba384:	ea90 0f02 	teqeq	r0, r2
   ba388:	bf1f      	itttt	ne
   ba38a:	ea54 0c00 	orrsne.w	ip, r4, r0
   ba38e:	ea55 0c02 	orrsne.w	ip, r5, r2
   ba392:	ea7f 5c64 	mvnsne.w	ip, r4, asr #21
   ba396:	ea7f 5c65 	mvnsne.w	ip, r5, asr #21
   ba39a:	f000 80e2 	beq.w	ba562 <__adddf3+0x1ee>
   ba39e:	ea4f 5454 	mov.w	r4, r4, lsr #21
   ba3a2:	ebd4 5555 	rsbs	r5, r4, r5, lsr #21
   ba3a6:	bfb8      	it	lt
   ba3a8:	426d      	neglt	r5, r5
   ba3aa:	dd0c      	ble.n	ba3c6 <__adddf3+0x52>
   ba3ac:	442c      	add	r4, r5
   ba3ae:	ea80 0202 	eor.w	r2, r0, r2
   ba3b2:	ea81 0303 	eor.w	r3, r1, r3
   ba3b6:	ea82 0000 	eor.w	r0, r2, r0
   ba3ba:	ea83 0101 	eor.w	r1, r3, r1
   ba3be:	ea80 0202 	eor.w	r2, r0, r2
   ba3c2:	ea81 0303 	eor.w	r3, r1, r3
   ba3c6:	2d36      	cmp	r5, #54	; 0x36
   ba3c8:	bf88      	it	hi
   ba3ca:	bd30      	pophi	{r4, r5, pc}
   ba3cc:	f011 4f00 	tst.w	r1, #2147483648	; 0x80000000
   ba3d0:	ea4f 3101 	mov.w	r1, r1, lsl #12
   ba3d4:	f44f 1c80 	mov.w	ip, #1048576	; 0x100000
   ba3d8:	ea4c 3111 	orr.w	r1, ip, r1, lsr #12
   ba3dc:	d002      	beq.n	ba3e4 <__adddf3+0x70>
   ba3de:	4240      	negs	r0, r0
   ba3e0:	eb61 0141 	sbc.w	r1, r1, r1, lsl #1
   ba3e4:	f013 4f00 	tst.w	r3, #2147483648	; 0x80000000
   ba3e8:	ea4f 3303 	mov.w	r3, r3, lsl #12
   ba3ec:	ea4c 3313 	orr.w	r3, ip, r3, lsr #12
   ba3f0:	d002      	beq.n	ba3f8 <__adddf3+0x84>
   ba3f2:	4252      	negs	r2, r2
   ba3f4:	eb63 0343 	sbc.w	r3, r3, r3, lsl #1
   ba3f8:	ea94 0f05 	teq	r4, r5
   ba3fc:	f000 80a7 	beq.w	ba54e <__adddf3+0x1da>
   ba400:	f1a4 0401 	sub.w	r4, r4, #1
   ba404:	f1d5 0e20 	rsbs	lr, r5, #32
   ba408:	db0d      	blt.n	ba426 <__adddf3+0xb2>
   ba40a:	fa02 fc0e 	lsl.w	ip, r2, lr
   ba40e:	fa22 f205 	lsr.w	r2, r2, r5
   ba412:	1880      	adds	r0, r0, r2
   ba414:	f141 0100 	adc.w	r1, r1, #0
   ba418:	fa03 f20e 	lsl.w	r2, r3, lr
   ba41c:	1880      	adds	r0, r0, r2
   ba41e:	fa43 f305 	asr.w	r3, r3, r5
   ba422:	4159      	adcs	r1, r3
   ba424:	e00e      	b.n	ba444 <__adddf3+0xd0>
   ba426:	f1a5 0520 	sub.w	r5, r5, #32
   ba42a:	f10e 0e20 	add.w	lr, lr, #32
   ba42e:	2a01      	cmp	r2, #1
   ba430:	fa03 fc0e 	lsl.w	ip, r3, lr
   ba434:	bf28      	it	cs
   ba436:	f04c 0c02 	orrcs.w	ip, ip, #2
   ba43a:	fa43 f305 	asr.w	r3, r3, r5
   ba43e:	18c0      	adds	r0, r0, r3
   ba440:	eb51 71e3 	adcs.w	r1, r1, r3, asr #31
   ba444:	f001 4500 	and.w	r5, r1, #2147483648	; 0x80000000
   ba448:	d507      	bpl.n	ba45a <__adddf3+0xe6>
   ba44a:	f04f 0e00 	mov.w	lr, #0
   ba44e:	f1dc 0c00 	rsbs	ip, ip, #0
   ba452:	eb7e 0000 	sbcs.w	r0, lr, r0
   ba456:	eb6e 0101 	sbc.w	r1, lr, r1
   ba45a:	f5b1 1f80 	cmp.w	r1, #1048576	; 0x100000
   ba45e:	d31b      	bcc.n	ba498 <__adddf3+0x124>
   ba460:	f5b1 1f00 	cmp.w	r1, #2097152	; 0x200000
   ba464:	d30c      	bcc.n	ba480 <__adddf3+0x10c>
   ba466:	0849      	lsrs	r1, r1, #1
   ba468:	ea5f 0030 	movs.w	r0, r0, rrx
   ba46c:	ea4f 0c3c 	mov.w	ip, ip, rrx
   ba470:	f104 0401 	add.w	r4, r4, #1
   ba474:	ea4f 5244 	mov.w	r2, r4, lsl #21
   ba478:	f512 0f80 	cmn.w	r2, #4194304	; 0x400000
   ba47c:	f080 809a 	bcs.w	ba5b4 <__adddf3+0x240>
   ba480:	f1bc 4f00 	cmp.w	ip, #2147483648	; 0x80000000
   ba484:	bf08      	it	eq
   ba486:	ea5f 0c50 	movseq.w	ip, r0, lsr #1
   ba48a:	f150 0000 	adcs.w	r0, r0, #0
   ba48e:	eb41 5104 	adc.w	r1, r1, r4, lsl #20
   ba492:	ea41 0105 	orr.w	r1, r1, r5
   ba496:	bd30      	pop	{r4, r5, pc}
   ba498:	ea5f 0c4c 	movs.w	ip, ip, lsl #1
   ba49c:	4140      	adcs	r0, r0
   ba49e:	eb41 0101 	adc.w	r1, r1, r1
   ba4a2:	3c01      	subs	r4, #1
   ba4a4:	bf28      	it	cs
   ba4a6:	f5b1 1f80 	cmpcs.w	r1, #1048576	; 0x100000
   ba4aa:	d2e9      	bcs.n	ba480 <__adddf3+0x10c>
   ba4ac:	f091 0f00 	teq	r1, #0
   ba4b0:	bf04      	itt	eq
   ba4b2:	4601      	moveq	r1, r0
   ba4b4:	2000      	moveq	r0, #0
   ba4b6:	fab1 f381 	clz	r3, r1
   ba4ba:	bf08      	it	eq
   ba4bc:	3320      	addeq	r3, #32
   ba4be:	f1a3 030b 	sub.w	r3, r3, #11
   ba4c2:	f1b3 0220 	subs.w	r2, r3, #32
   ba4c6:	da0c      	bge.n	ba4e2 <__adddf3+0x16e>
   ba4c8:	320c      	adds	r2, #12
   ba4ca:	dd08      	ble.n	ba4de <__adddf3+0x16a>
   ba4cc:	f102 0c14 	add.w	ip, r2, #20
   ba4d0:	f1c2 020c 	rsb	r2, r2, #12
   ba4d4:	fa01 f00c 	lsl.w	r0, r1, ip
   ba4d8:	fa21 f102 	lsr.w	r1, r1, r2
   ba4dc:	e00c      	b.n	ba4f8 <__adddf3+0x184>
   ba4de:	f102 0214 	add.w	r2, r2, #20
   ba4e2:	bfd8      	it	le
   ba4e4:	f1c2 0c20 	rsble	ip, r2, #32
   ba4e8:	fa01 f102 	lsl.w	r1, r1, r2
   ba4ec:	fa20 fc0c 	lsr.w	ip, r0, ip
   ba4f0:	bfdc      	itt	le
   ba4f2:	ea41 010c 	orrle.w	r1, r1, ip
   ba4f6:	4090      	lslle	r0, r2
   ba4f8:	1ae4      	subs	r4, r4, r3
   ba4fa:	bfa2      	ittt	ge
   ba4fc:	eb01 5104 	addge.w	r1, r1, r4, lsl #20
   ba500:	4329      	orrge	r1, r5
   ba502:	bd30      	popge	{r4, r5, pc}
   ba504:	ea6f 0404 	mvn.w	r4, r4
   ba508:	3c1f      	subs	r4, #31
   ba50a:	da1c      	bge.n	ba546 <__adddf3+0x1d2>
   ba50c:	340c      	adds	r4, #12
   ba50e:	dc0e      	bgt.n	ba52e <__adddf3+0x1ba>
   ba510:	f104 0414 	add.w	r4, r4, #20
   ba514:	f1c4 0220 	rsb	r2, r4, #32
   ba518:	fa20 f004 	lsr.w	r0, r0, r4
   ba51c:	fa01 f302 	lsl.w	r3, r1, r2
   ba520:	ea40 0003 	orr.w	r0, r0, r3
   ba524:	fa21 f304 	lsr.w	r3, r1, r4
   ba528:	ea45 0103 	orr.w	r1, r5, r3
   ba52c:	bd30      	pop	{r4, r5, pc}
   ba52e:	f1c4 040c 	rsb	r4, r4, #12
   ba532:	f1c4 0220 	rsb	r2, r4, #32
   ba536:	fa20 f002 	lsr.w	r0, r0, r2
   ba53a:	fa01 f304 	lsl.w	r3, r1, r4
   ba53e:	ea40 0003 	orr.w	r0, r0, r3
   ba542:	4629      	mov	r1, r5
   ba544:	bd30      	pop	{r4, r5, pc}
   ba546:	fa21 f004 	lsr.w	r0, r1, r4
   ba54a:	4629      	mov	r1, r5
   ba54c:	bd30      	pop	{r4, r5, pc}
   ba54e:	f094 0f00 	teq	r4, #0
   ba552:	f483 1380 	eor.w	r3, r3, #1048576	; 0x100000
   ba556:	bf06      	itte	eq
   ba558:	f481 1180 	eoreq.w	r1, r1, #1048576	; 0x100000
   ba55c:	3401      	addeq	r4, #1
   ba55e:	3d01      	subne	r5, #1
   ba560:	e74e      	b.n	ba400 <__adddf3+0x8c>
   ba562:	ea7f 5c64 	mvns.w	ip, r4, asr #21
   ba566:	bf18      	it	ne
   ba568:	ea7f 5c65 	mvnsne.w	ip, r5, asr #21
   ba56c:	d029      	beq.n	ba5c2 <__adddf3+0x24e>
   ba56e:	ea94 0f05 	teq	r4, r5
   ba572:	bf08      	it	eq
   ba574:	ea90 0f02 	teqeq	r0, r2
   ba578:	d005      	beq.n	ba586 <__adddf3+0x212>
   ba57a:	ea54 0c00 	orrs.w	ip, r4, r0
   ba57e:	bf04      	itt	eq
   ba580:	4619      	moveq	r1, r3
   ba582:	4610      	moveq	r0, r2
   ba584:	bd30      	pop	{r4, r5, pc}
   ba586:	ea91 0f03 	teq	r1, r3
   ba58a:	bf1e      	ittt	ne
   ba58c:	2100      	movne	r1, #0
   ba58e:	2000      	movne	r0, #0
   ba590:	bd30      	popne	{r4, r5, pc}
   ba592:	ea5f 5c54 	movs.w	ip, r4, lsr #21
   ba596:	d105      	bne.n	ba5a4 <__adddf3+0x230>
   ba598:	0040      	lsls	r0, r0, #1
   ba59a:	4149      	adcs	r1, r1
   ba59c:	bf28      	it	cs
   ba59e:	f041 4100 	orrcs.w	r1, r1, #2147483648	; 0x80000000
   ba5a2:	bd30      	pop	{r4, r5, pc}
   ba5a4:	f514 0480 	adds.w	r4, r4, #4194304	; 0x400000
   ba5a8:	bf3c      	itt	cc
   ba5aa:	f501 1180 	addcc.w	r1, r1, #1048576	; 0x100000
   ba5ae:	bd30      	popcc	{r4, r5, pc}
   ba5b0:	f001 4500 	and.w	r5, r1, #2147483648	; 0x80000000
   ba5b4:	f045 41fe 	orr.w	r1, r5, #2130706432	; 0x7f000000
   ba5b8:	f441 0170 	orr.w	r1, r1, #15728640	; 0xf00000
   ba5bc:	f04f 0000 	mov.w	r0, #0
   ba5c0:	bd30      	pop	{r4, r5, pc}
   ba5c2:	ea7f 5c64 	mvns.w	ip, r4, asr #21
   ba5c6:	bf1a      	itte	ne
   ba5c8:	4619      	movne	r1, r3
   ba5ca:	4610      	movne	r0, r2
   ba5cc:	ea7f 5c65 	mvnseq.w	ip, r5, asr #21
   ba5d0:	bf1c      	itt	ne
   ba5d2:	460b      	movne	r3, r1
   ba5d4:	4602      	movne	r2, r0
   ba5d6:	ea50 3401 	orrs.w	r4, r0, r1, lsl #12
   ba5da:	bf06      	itte	eq
   ba5dc:	ea52 3503 	orrseq.w	r5, r2, r3, lsl #12
   ba5e0:	ea91 0f03 	teqeq	r1, r3
   ba5e4:	f441 2100 	orrne.w	r1, r1, #524288	; 0x80000
   ba5e8:	bd30      	pop	{r4, r5, pc}
   ba5ea:	bf00      	nop

000ba5ec <__aeabi_ui2d>:
   ba5ec:	f090 0f00 	teq	r0, #0
   ba5f0:	bf04      	itt	eq
   ba5f2:	2100      	moveq	r1, #0
   ba5f4:	4770      	bxeq	lr
   ba5f6:	b530      	push	{r4, r5, lr}
   ba5f8:	f44f 6480 	mov.w	r4, #1024	; 0x400
   ba5fc:	f104 0432 	add.w	r4, r4, #50	; 0x32
   ba600:	f04f 0500 	mov.w	r5, #0
   ba604:	f04f 0100 	mov.w	r1, #0
   ba608:	e750      	b.n	ba4ac <__adddf3+0x138>
   ba60a:	bf00      	nop

000ba60c <__aeabi_i2d>:
   ba60c:	f090 0f00 	teq	r0, #0
   ba610:	bf04      	itt	eq
   ba612:	2100      	moveq	r1, #0
   ba614:	4770      	bxeq	lr
   ba616:	b530      	push	{r4, r5, lr}
   ba618:	f44f 6480 	mov.w	r4, #1024	; 0x400
   ba61c:	f104 0432 	add.w	r4, r4, #50	; 0x32
   ba620:	f010 4500 	ands.w	r5, r0, #2147483648	; 0x80000000
   ba624:	bf48      	it	mi
   ba626:	4240      	negmi	r0, r0
   ba628:	f04f 0100 	mov.w	r1, #0
   ba62c:	e73e      	b.n	ba4ac <__adddf3+0x138>
   ba62e:	bf00      	nop

000ba630 <__aeabi_f2d>:
   ba630:	0042      	lsls	r2, r0, #1
   ba632:	ea4f 01e2 	mov.w	r1, r2, asr #3
   ba636:	ea4f 0131 	mov.w	r1, r1, rrx
   ba63a:	ea4f 7002 	mov.w	r0, r2, lsl #28
   ba63e:	bf1f      	itttt	ne
   ba640:	f012 437f 	andsne.w	r3, r2, #4278190080	; 0xff000000
   ba644:	f093 4f7f 	teqne	r3, #4278190080	; 0xff000000
   ba648:	f081 5160 	eorne.w	r1, r1, #939524096	; 0x38000000
   ba64c:	4770      	bxne	lr
   ba64e:	f032 427f 	bics.w	r2, r2, #4278190080	; 0xff000000
   ba652:	bf08      	it	eq
   ba654:	4770      	bxeq	lr
   ba656:	f093 4f7f 	teq	r3, #4278190080	; 0xff000000
   ba65a:	bf04      	itt	eq
   ba65c:	f441 2100 	orreq.w	r1, r1, #524288	; 0x80000
   ba660:	4770      	bxeq	lr
   ba662:	b530      	push	{r4, r5, lr}
   ba664:	f44f 7460 	mov.w	r4, #896	; 0x380
   ba668:	f001 4500 	and.w	r5, r1, #2147483648	; 0x80000000
   ba66c:	f021 4100 	bic.w	r1, r1, #2147483648	; 0x80000000
   ba670:	e71c      	b.n	ba4ac <__adddf3+0x138>
   ba672:	bf00      	nop

000ba674 <__aeabi_ul2d>:
   ba674:	ea50 0201 	orrs.w	r2, r0, r1
   ba678:	bf08      	it	eq
   ba67a:	4770      	bxeq	lr
   ba67c:	b530      	push	{r4, r5, lr}
   ba67e:	f04f 0500 	mov.w	r5, #0
   ba682:	e00a      	b.n	ba69a <__aeabi_l2d+0x16>

000ba684 <__aeabi_l2d>:
   ba684:	ea50 0201 	orrs.w	r2, r0, r1
   ba688:	bf08      	it	eq
   ba68a:	4770      	bxeq	lr
   ba68c:	b530      	push	{r4, r5, lr}
   ba68e:	f011 4500 	ands.w	r5, r1, #2147483648	; 0x80000000
   ba692:	d502      	bpl.n	ba69a <__aeabi_l2d+0x16>
   ba694:	4240      	negs	r0, r0
   ba696:	eb61 0141 	sbc.w	r1, r1, r1, lsl #1
   ba69a:	f44f 6480 	mov.w	r4, #1024	; 0x400
   ba69e:	f104 0432 	add.w	r4, r4, #50	; 0x32
   ba6a2:	ea5f 5c91 	movs.w	ip, r1, lsr #22
   ba6a6:	f43f aed8 	beq.w	ba45a <__adddf3+0xe6>
   ba6aa:	f04f 0203 	mov.w	r2, #3
   ba6ae:	ea5f 0cdc 	movs.w	ip, ip, lsr #3
   ba6b2:	bf18      	it	ne
   ba6b4:	3203      	addne	r2, #3
   ba6b6:	ea5f 0cdc 	movs.w	ip, ip, lsr #3
   ba6ba:	bf18      	it	ne
   ba6bc:	3203      	addne	r2, #3
   ba6be:	eb02 02dc 	add.w	r2, r2, ip, lsr #3
   ba6c2:	f1c2 0320 	rsb	r3, r2, #32
   ba6c6:	fa00 fc03 	lsl.w	ip, r0, r3
   ba6ca:	fa20 f002 	lsr.w	r0, r0, r2
   ba6ce:	fa01 fe03 	lsl.w	lr, r1, r3
   ba6d2:	ea40 000e 	orr.w	r0, r0, lr
   ba6d6:	fa21 f102 	lsr.w	r1, r1, r2
   ba6da:	4414      	add	r4, r2
   ba6dc:	e6bd      	b.n	ba45a <__adddf3+0xe6>
   ba6de:	bf00      	nop

000ba6e0 <__aeabi_dmul>:
   ba6e0:	b570      	push	{r4, r5, r6, lr}
   ba6e2:	f04f 0cff 	mov.w	ip, #255	; 0xff
   ba6e6:	f44c 6ce0 	orr.w	ip, ip, #1792	; 0x700
   ba6ea:	ea1c 5411 	ands.w	r4, ip, r1, lsr #20
   ba6ee:	bf1d      	ittte	ne
   ba6f0:	ea1c 5513 	andsne.w	r5, ip, r3, lsr #20
   ba6f4:	ea94 0f0c 	teqne	r4, ip
   ba6f8:	ea95 0f0c 	teqne	r5, ip
   ba6fc:	f000 f8de 	bleq	ba8bc <__aeabi_dmul+0x1dc>
   ba700:	442c      	add	r4, r5
   ba702:	ea81 0603 	eor.w	r6, r1, r3
   ba706:	ea21 514c 	bic.w	r1, r1, ip, lsl #21
   ba70a:	ea23 534c 	bic.w	r3, r3, ip, lsl #21
   ba70e:	ea50 3501 	orrs.w	r5, r0, r1, lsl #12
   ba712:	bf18      	it	ne
   ba714:	ea52 3503 	orrsne.w	r5, r2, r3, lsl #12
   ba718:	f441 1180 	orr.w	r1, r1, #1048576	; 0x100000
   ba71c:	f443 1380 	orr.w	r3, r3, #1048576	; 0x100000
   ba720:	d038      	beq.n	ba794 <__aeabi_dmul+0xb4>
   ba722:	fba0 ce02 	umull	ip, lr, r0, r2
   ba726:	f04f 0500 	mov.w	r5, #0
   ba72a:	fbe1 e502 	umlal	lr, r5, r1, r2
   ba72e:	f006 4200 	and.w	r2, r6, #2147483648	; 0x80000000
   ba732:	fbe0 e503 	umlal	lr, r5, r0, r3
   ba736:	f04f 0600 	mov.w	r6, #0
   ba73a:	fbe1 5603 	umlal	r5, r6, r1, r3
   ba73e:	f09c 0f00 	teq	ip, #0
   ba742:	bf18      	it	ne
   ba744:	f04e 0e01 	orrne.w	lr, lr, #1
   ba748:	f1a4 04ff 	sub.w	r4, r4, #255	; 0xff
   ba74c:	f5b6 7f00 	cmp.w	r6, #512	; 0x200
   ba750:	f564 7440 	sbc.w	r4, r4, #768	; 0x300
   ba754:	d204      	bcs.n	ba760 <__aeabi_dmul+0x80>
   ba756:	ea5f 0e4e 	movs.w	lr, lr, lsl #1
   ba75a:	416d      	adcs	r5, r5
   ba75c:	eb46 0606 	adc.w	r6, r6, r6
   ba760:	ea42 21c6 	orr.w	r1, r2, r6, lsl #11
   ba764:	ea41 5155 	orr.w	r1, r1, r5, lsr #21
   ba768:	ea4f 20c5 	mov.w	r0, r5, lsl #11
   ba76c:	ea40 505e 	orr.w	r0, r0, lr, lsr #21
   ba770:	ea4f 2ece 	mov.w	lr, lr, lsl #11
   ba774:	f1b4 0cfd 	subs.w	ip, r4, #253	; 0xfd
   ba778:	bf88      	it	hi
   ba77a:	f5bc 6fe0 	cmphi.w	ip, #1792	; 0x700
   ba77e:	d81e      	bhi.n	ba7be <__aeabi_dmul+0xde>
   ba780:	f1be 4f00 	cmp.w	lr, #2147483648	; 0x80000000
   ba784:	bf08      	it	eq
   ba786:	ea5f 0e50 	movseq.w	lr, r0, lsr #1
   ba78a:	f150 0000 	adcs.w	r0, r0, #0
   ba78e:	eb41 5104 	adc.w	r1, r1, r4, lsl #20
   ba792:	bd70      	pop	{r4, r5, r6, pc}
   ba794:	f006 4600 	and.w	r6, r6, #2147483648	; 0x80000000
   ba798:	ea46 0101 	orr.w	r1, r6, r1
   ba79c:	ea40 0002 	orr.w	r0, r0, r2
   ba7a0:	ea81 0103 	eor.w	r1, r1, r3
   ba7a4:	ebb4 045c 	subs.w	r4, r4, ip, lsr #1
   ba7a8:	bfc2      	ittt	gt
   ba7aa:	ebd4 050c 	rsbsgt	r5, r4, ip
   ba7ae:	ea41 5104 	orrgt.w	r1, r1, r4, lsl #20
   ba7b2:	bd70      	popgt	{r4, r5, r6, pc}
   ba7b4:	f441 1180 	orr.w	r1, r1, #1048576	; 0x100000
   ba7b8:	f04f 0e00 	mov.w	lr, #0
   ba7bc:	3c01      	subs	r4, #1
   ba7be:	f300 80ab 	bgt.w	ba918 <__aeabi_dmul+0x238>
   ba7c2:	f114 0f36 	cmn.w	r4, #54	; 0x36
   ba7c6:	bfde      	ittt	le
   ba7c8:	2000      	movle	r0, #0
   ba7ca:	f001 4100 	andle.w	r1, r1, #2147483648	; 0x80000000
   ba7ce:	bd70      	pople	{r4, r5, r6, pc}
   ba7d0:	f1c4 0400 	rsb	r4, r4, #0
   ba7d4:	3c20      	subs	r4, #32
   ba7d6:	da35      	bge.n	ba844 <__aeabi_dmul+0x164>
   ba7d8:	340c      	adds	r4, #12
   ba7da:	dc1b      	bgt.n	ba814 <__aeabi_dmul+0x134>
   ba7dc:	f104 0414 	add.w	r4, r4, #20
   ba7e0:	f1c4 0520 	rsb	r5, r4, #32
   ba7e4:	fa00 f305 	lsl.w	r3, r0, r5
   ba7e8:	fa20 f004 	lsr.w	r0, r0, r4
   ba7ec:	fa01 f205 	lsl.w	r2, r1, r5
   ba7f0:	ea40 0002 	orr.w	r0, r0, r2
   ba7f4:	f001 4200 	and.w	r2, r1, #2147483648	; 0x80000000
   ba7f8:	f021 4100 	bic.w	r1, r1, #2147483648	; 0x80000000
   ba7fc:	eb10 70d3 	adds.w	r0, r0, r3, lsr #31
   ba800:	fa21 f604 	lsr.w	r6, r1, r4
   ba804:	eb42 0106 	adc.w	r1, r2, r6
   ba808:	ea5e 0e43 	orrs.w	lr, lr, r3, lsl #1
   ba80c:	bf08      	it	eq
   ba80e:	ea20 70d3 	biceq.w	r0, r0, r3, lsr #31
   ba812:	bd70      	pop	{r4, r5, r6, pc}
   ba814:	f1c4 040c 	rsb	r4, r4, #12
   ba818:	f1c4 0520 	rsb	r5, r4, #32
   ba81c:	fa00 f304 	lsl.w	r3, r0, r4
   ba820:	fa20 f005 	lsr.w	r0, r0, r5
   ba824:	fa01 f204 	lsl.w	r2, r1, r4
   ba828:	ea40 0002 	orr.w	r0, r0, r2
   ba82c:	f001 4100 	and.w	r1, r1, #2147483648	; 0x80000000
   ba830:	eb10 70d3 	adds.w	r0, r0, r3, lsr #31
   ba834:	f141 0100 	adc.w	r1, r1, #0
   ba838:	ea5e 0e43 	orrs.w	lr, lr, r3, lsl #1
   ba83c:	bf08      	it	eq
   ba83e:	ea20 70d3 	biceq.w	r0, r0, r3, lsr #31
   ba842:	bd70      	pop	{r4, r5, r6, pc}
   ba844:	f1c4 0520 	rsb	r5, r4, #32
   ba848:	fa00 f205 	lsl.w	r2, r0, r5
   ba84c:	ea4e 0e02 	orr.w	lr, lr, r2
   ba850:	fa20 f304 	lsr.w	r3, r0, r4
   ba854:	fa01 f205 	lsl.w	r2, r1, r5
   ba858:	ea43 0302 	orr.w	r3, r3, r2
   ba85c:	fa21 f004 	lsr.w	r0, r1, r4
   ba860:	f001 4100 	and.w	r1, r1, #2147483648	; 0x80000000
   ba864:	fa21 f204 	lsr.w	r2, r1, r4
   ba868:	ea20 0002 	bic.w	r0, r0, r2
   ba86c:	eb00 70d3 	add.w	r0, r0, r3, lsr #31
   ba870:	ea5e 0e43 	orrs.w	lr, lr, r3, lsl #1
   ba874:	bf08      	it	eq
   ba876:	ea20 70d3 	biceq.w	r0, r0, r3, lsr #31
   ba87a:	bd70      	pop	{r4, r5, r6, pc}
   ba87c:	f094 0f00 	teq	r4, #0
   ba880:	d10f      	bne.n	ba8a2 <__aeabi_dmul+0x1c2>
   ba882:	f001 4600 	and.w	r6, r1, #2147483648	; 0x80000000
   ba886:	0040      	lsls	r0, r0, #1
   ba888:	eb41 0101 	adc.w	r1, r1, r1
   ba88c:	f411 1f80 	tst.w	r1, #1048576	; 0x100000
   ba890:	bf08      	it	eq
   ba892:	3c01      	subeq	r4, #1
   ba894:	d0f7      	beq.n	ba886 <__aeabi_dmul+0x1a6>
   ba896:	ea41 0106 	orr.w	r1, r1, r6
   ba89a:	f095 0f00 	teq	r5, #0
   ba89e:	bf18      	it	ne
   ba8a0:	4770      	bxne	lr
   ba8a2:	f003 4600 	and.w	r6, r3, #2147483648	; 0x80000000
   ba8a6:	0052      	lsls	r2, r2, #1
   ba8a8:	eb43 0303 	adc.w	r3, r3, r3
   ba8ac:	f413 1f80 	tst.w	r3, #1048576	; 0x100000
   ba8b0:	bf08      	it	eq
   ba8b2:	3d01      	subeq	r5, #1
   ba8b4:	d0f7      	beq.n	ba8a6 <__aeabi_dmul+0x1c6>
   ba8b6:	ea43 0306 	orr.w	r3, r3, r6
   ba8ba:	4770      	bx	lr
   ba8bc:	ea94 0f0c 	teq	r4, ip
   ba8c0:	ea0c 5513 	and.w	r5, ip, r3, lsr #20
   ba8c4:	bf18      	it	ne
   ba8c6:	ea95 0f0c 	teqne	r5, ip
   ba8ca:	d00c      	beq.n	ba8e6 <__aeabi_dmul+0x206>
   ba8cc:	ea50 0641 	orrs.w	r6, r0, r1, lsl #1
   ba8d0:	bf18      	it	ne
   ba8d2:	ea52 0643 	orrsne.w	r6, r2, r3, lsl #1
   ba8d6:	d1d1      	bne.n	ba87c <__aeabi_dmul+0x19c>
   ba8d8:	ea81 0103 	eor.w	r1, r1, r3
   ba8dc:	f001 4100 	and.w	r1, r1, #2147483648	; 0x80000000
   ba8e0:	f04f 0000 	mov.w	r0, #0
   ba8e4:	bd70      	pop	{r4, r5, r6, pc}
   ba8e6:	ea50 0641 	orrs.w	r6, r0, r1, lsl #1
   ba8ea:	bf06      	itte	eq
   ba8ec:	4610      	moveq	r0, r2
   ba8ee:	4619      	moveq	r1, r3
   ba8f0:	ea52 0643 	orrsne.w	r6, r2, r3, lsl #1
   ba8f4:	d019      	beq.n	ba92a <__aeabi_dmul+0x24a>
   ba8f6:	ea94 0f0c 	teq	r4, ip
   ba8fa:	d102      	bne.n	ba902 <__aeabi_dmul+0x222>
   ba8fc:	ea50 3601 	orrs.w	r6, r0, r1, lsl #12
   ba900:	d113      	bne.n	ba92a <__aeabi_dmul+0x24a>
   ba902:	ea95 0f0c 	teq	r5, ip
   ba906:	d105      	bne.n	ba914 <__aeabi_dmul+0x234>
   ba908:	ea52 3603 	orrs.w	r6, r2, r3, lsl #12
   ba90c:	bf1c      	itt	ne
   ba90e:	4610      	movne	r0, r2
   ba910:	4619      	movne	r1, r3
   ba912:	d10a      	bne.n	ba92a <__aeabi_dmul+0x24a>
   ba914:	ea81 0103 	eor.w	r1, r1, r3
   ba918:	f001 4100 	and.w	r1, r1, #2147483648	; 0x80000000
   ba91c:	f041 41fe 	orr.w	r1, r1, #2130706432	; 0x7f000000
   ba920:	f441 0170 	orr.w	r1, r1, #15728640	; 0xf00000
   ba924:	f04f 0000 	mov.w	r0, #0
   ba928:	bd70      	pop	{r4, r5, r6, pc}
   ba92a:	f041 41fe 	orr.w	r1, r1, #2130706432	; 0x7f000000
   ba92e:	f441 0178 	orr.w	r1, r1, #16252928	; 0xf80000
   ba932:	bd70      	pop	{r4, r5, r6, pc}

000ba934 <__aeabi_ddiv>:
   ba934:	b570      	push	{r4, r5, r6, lr}
   ba936:	f04f 0cff 	mov.w	ip, #255	; 0xff
   ba93a:	f44c 6ce0 	orr.w	ip, ip, #1792	; 0x700
   ba93e:	ea1c 5411 	ands.w	r4, ip, r1, lsr #20
   ba942:	bf1d      	ittte	ne
   ba944:	ea1c 5513 	andsne.w	r5, ip, r3, lsr #20
   ba948:	ea94 0f0c 	teqne	r4, ip
   ba94c:	ea95 0f0c 	teqne	r5, ip
   ba950:	f000 f8a7 	bleq	baaa2 <__aeabi_ddiv+0x16e>
   ba954:	eba4 0405 	sub.w	r4, r4, r5
   ba958:	ea81 0e03 	eor.w	lr, r1, r3
   ba95c:	ea52 3503 	orrs.w	r5, r2, r3, lsl #12
   ba960:	ea4f 3101 	mov.w	r1, r1, lsl #12
   ba964:	f000 8088 	beq.w	baa78 <__aeabi_ddiv+0x144>
   ba968:	ea4f 3303 	mov.w	r3, r3, lsl #12
   ba96c:	f04f 5580 	mov.w	r5, #268435456	; 0x10000000
   ba970:	ea45 1313 	orr.w	r3, r5, r3, lsr #4
   ba974:	ea43 6312 	orr.w	r3, r3, r2, lsr #24
   ba978:	ea4f 2202 	mov.w	r2, r2, lsl #8
   ba97c:	ea45 1511 	orr.w	r5, r5, r1, lsr #4
   ba980:	ea45 6510 	orr.w	r5, r5, r0, lsr #24
   ba984:	ea4f 2600 	mov.w	r6, r0, lsl #8
   ba988:	f00e 4100 	and.w	r1, lr, #2147483648	; 0x80000000
   ba98c:	429d      	cmp	r5, r3
   ba98e:	bf08      	it	eq
   ba990:	4296      	cmpeq	r6, r2
   ba992:	f144 04fd 	adc.w	r4, r4, #253	; 0xfd
   ba996:	f504 7440 	add.w	r4, r4, #768	; 0x300
   ba99a:	d202      	bcs.n	ba9a2 <__aeabi_ddiv+0x6e>
   ba99c:	085b      	lsrs	r3, r3, #1
   ba99e:	ea4f 0232 	mov.w	r2, r2, rrx
   ba9a2:	1ab6      	subs	r6, r6, r2
   ba9a4:	eb65 0503 	sbc.w	r5, r5, r3
   ba9a8:	085b      	lsrs	r3, r3, #1
   ba9aa:	ea4f 0232 	mov.w	r2, r2, rrx
   ba9ae:	f44f 1080 	mov.w	r0, #1048576	; 0x100000
   ba9b2:	f44f 2c00 	mov.w	ip, #524288	; 0x80000
   ba9b6:	ebb6 0e02 	subs.w	lr, r6, r2
   ba9ba:	eb75 0e03 	sbcs.w	lr, r5, r3
   ba9be:	bf22      	ittt	cs
   ba9c0:	1ab6      	subcs	r6, r6, r2
   ba9c2:	4675      	movcs	r5, lr
   ba9c4:	ea40 000c 	orrcs.w	r0, r0, ip
   ba9c8:	085b      	lsrs	r3, r3, #1
   ba9ca:	ea4f 0232 	mov.w	r2, r2, rrx
   ba9ce:	ebb6 0e02 	subs.w	lr, r6, r2
   ba9d2:	eb75 0e03 	sbcs.w	lr, r5, r3
   ba9d6:	bf22      	ittt	cs
   ba9d8:	1ab6      	subcs	r6, r6, r2
   ba9da:	4675      	movcs	r5, lr
   ba9dc:	ea40 005c 	orrcs.w	r0, r0, ip, lsr #1
   ba9e0:	085b      	lsrs	r3, r3, #1
   ba9e2:	ea4f 0232 	mov.w	r2, r2, rrx
   ba9e6:	ebb6 0e02 	subs.w	lr, r6, r2
   ba9ea:	eb75 0e03 	sbcs.w	lr, r5, r3
   ba9ee:	bf22      	ittt	cs
   ba9f0:	1ab6      	subcs	r6, r6, r2
   ba9f2:	4675      	movcs	r5, lr
   ba9f4:	ea40 009c 	orrcs.w	r0, r0, ip, lsr #2
   ba9f8:	085b      	lsrs	r3, r3, #1
   ba9fa:	ea4f 0232 	mov.w	r2, r2, rrx
   ba9fe:	ebb6 0e02 	subs.w	lr, r6, r2
   baa02:	eb75 0e03 	sbcs.w	lr, r5, r3
   baa06:	bf22      	ittt	cs
   baa08:	1ab6      	subcs	r6, r6, r2
   baa0a:	4675      	movcs	r5, lr
   baa0c:	ea40 00dc 	orrcs.w	r0, r0, ip, lsr #3
   baa10:	ea55 0e06 	orrs.w	lr, r5, r6
   baa14:	d018      	beq.n	baa48 <__aeabi_ddiv+0x114>
   baa16:	ea4f 1505 	mov.w	r5, r5, lsl #4
   baa1a:	ea45 7516 	orr.w	r5, r5, r6, lsr #28
   baa1e:	ea4f 1606 	mov.w	r6, r6, lsl #4
   baa22:	ea4f 03c3 	mov.w	r3, r3, lsl #3
   baa26:	ea43 7352 	orr.w	r3, r3, r2, lsr #29
   baa2a:	ea4f 02c2 	mov.w	r2, r2, lsl #3
   baa2e:	ea5f 1c1c 	movs.w	ip, ip, lsr #4
   baa32:	d1c0      	bne.n	ba9b6 <__aeabi_ddiv+0x82>
   baa34:	f411 1f80 	tst.w	r1, #1048576	; 0x100000
   baa38:	d10b      	bne.n	baa52 <__aeabi_ddiv+0x11e>
   baa3a:	ea41 0100 	orr.w	r1, r1, r0
   baa3e:	f04f 0000 	mov.w	r0, #0
   baa42:	f04f 4c00 	mov.w	ip, #2147483648	; 0x80000000
   baa46:	e7b6      	b.n	ba9b6 <__aeabi_ddiv+0x82>
   baa48:	f411 1f80 	tst.w	r1, #1048576	; 0x100000
   baa4c:	bf04      	itt	eq
   baa4e:	4301      	orreq	r1, r0
   baa50:	2000      	moveq	r0, #0
   baa52:	f1b4 0cfd 	subs.w	ip, r4, #253	; 0xfd
   baa56:	bf88      	it	hi
   baa58:	f5bc 6fe0 	cmphi.w	ip, #1792	; 0x700
   baa5c:	f63f aeaf 	bhi.w	ba7be <__aeabi_dmul+0xde>
   baa60:	ebb5 0c03 	subs.w	ip, r5, r3
   baa64:	bf04      	itt	eq
   baa66:	ebb6 0c02 	subseq.w	ip, r6, r2
   baa6a:	ea5f 0c50 	movseq.w	ip, r0, lsr #1
   baa6e:	f150 0000 	adcs.w	r0, r0, #0
   baa72:	eb41 5104 	adc.w	r1, r1, r4, lsl #20
   baa76:	bd70      	pop	{r4, r5, r6, pc}
   baa78:	f00e 4e00 	and.w	lr, lr, #2147483648	; 0x80000000
   baa7c:	ea4e 3111 	orr.w	r1, lr, r1, lsr #12
   baa80:	eb14 045c 	adds.w	r4, r4, ip, lsr #1
   baa84:	bfc2      	ittt	gt
   baa86:	ebd4 050c 	rsbsgt	r5, r4, ip
   baa8a:	ea41 5104 	orrgt.w	r1, r1, r4, lsl #20
   baa8e:	bd70      	popgt	{r4, r5, r6, pc}
   baa90:	f441 1180 	orr.w	r1, r1, #1048576	; 0x100000
   baa94:	f04f 0e00 	mov.w	lr, #0
   baa98:	3c01      	subs	r4, #1
   baa9a:	e690      	b.n	ba7be <__aeabi_dmul+0xde>
   baa9c:	ea45 0e06 	orr.w	lr, r5, r6
   baaa0:	e68d      	b.n	ba7be <__aeabi_dmul+0xde>
   baaa2:	ea0c 5513 	and.w	r5, ip, r3, lsr #20
   baaa6:	ea94 0f0c 	teq	r4, ip
   baaaa:	bf08      	it	eq
   baaac:	ea95 0f0c 	teqeq	r5, ip
   baab0:	f43f af3b 	beq.w	ba92a <__aeabi_dmul+0x24a>
   baab4:	ea94 0f0c 	teq	r4, ip
   baab8:	d10a      	bne.n	baad0 <__aeabi_ddiv+0x19c>
   baaba:	ea50 3401 	orrs.w	r4, r0, r1, lsl #12
   baabe:	f47f af34 	bne.w	ba92a <__aeabi_dmul+0x24a>
   baac2:	ea95 0f0c 	teq	r5, ip
   baac6:	f47f af25 	bne.w	ba914 <__aeabi_dmul+0x234>
   baaca:	4610      	mov	r0, r2
   baacc:	4619      	mov	r1, r3
   baace:	e72c      	b.n	ba92a <__aeabi_dmul+0x24a>
   baad0:	ea95 0f0c 	teq	r5, ip
   baad4:	d106      	bne.n	baae4 <__aeabi_ddiv+0x1b0>
   baad6:	ea52 3503 	orrs.w	r5, r2, r3, lsl #12
   baada:	f43f aefd 	beq.w	ba8d8 <__aeabi_dmul+0x1f8>
   baade:	4610      	mov	r0, r2
   baae0:	4619      	mov	r1, r3
   baae2:	e722      	b.n	ba92a <__aeabi_dmul+0x24a>
   baae4:	ea50 0641 	orrs.w	r6, r0, r1, lsl #1
   baae8:	bf18      	it	ne
   baaea:	ea52 0643 	orrsne.w	r6, r2, r3, lsl #1
   baaee:	f47f aec5 	bne.w	ba87c <__aeabi_dmul+0x19c>
   baaf2:	ea50 0441 	orrs.w	r4, r0, r1, lsl #1
   baaf6:	f47f af0d 	bne.w	ba914 <__aeabi_dmul+0x234>
   baafa:	ea52 0543 	orrs.w	r5, r2, r3, lsl #1
   baafe:	f47f aeeb 	bne.w	ba8d8 <__aeabi_dmul+0x1f8>
   bab02:	e712      	b.n	ba92a <__aeabi_dmul+0x24a>

000bab04 <__aeabi_d2f>:
   bab04:	ea4f 0241 	mov.w	r2, r1, lsl #1
   bab08:	f1b2 43e0 	subs.w	r3, r2, #1879048192	; 0x70000000
   bab0c:	bf24      	itt	cs
   bab0e:	f5b3 1c00 	subscs.w	ip, r3, #2097152	; 0x200000
   bab12:	f1dc 5cfe 	rsbscs	ip, ip, #532676608	; 0x1fc00000
   bab16:	d90d      	bls.n	bab34 <__aeabi_d2f+0x30>
   bab18:	f001 4c00 	and.w	ip, r1, #2147483648	; 0x80000000
   bab1c:	ea4f 02c0 	mov.w	r2, r0, lsl #3
   bab20:	ea4c 7050 	orr.w	r0, ip, r0, lsr #29
   bab24:	f1b2 4f00 	cmp.w	r2, #2147483648	; 0x80000000
   bab28:	eb40 0083 	adc.w	r0, r0, r3, lsl #2
   bab2c:	bf08      	it	eq
   bab2e:	f020 0001 	biceq.w	r0, r0, #1
   bab32:	4770      	bx	lr
   bab34:	f011 4f80 	tst.w	r1, #1073741824	; 0x40000000
   bab38:	d121      	bne.n	bab7e <__aeabi_d2f+0x7a>
   bab3a:	f113 7238 	adds.w	r2, r3, #48234496	; 0x2e00000
   bab3e:	bfbc      	itt	lt
   bab40:	f001 4000 	andlt.w	r0, r1, #2147483648	; 0x80000000
   bab44:	4770      	bxlt	lr
   bab46:	f441 1180 	orr.w	r1, r1, #1048576	; 0x100000
   bab4a:	ea4f 5252 	mov.w	r2, r2, lsr #21
   bab4e:	f1c2 0218 	rsb	r2, r2, #24
   bab52:	f1c2 0c20 	rsb	ip, r2, #32
   bab56:	fa10 f30c 	lsls.w	r3, r0, ip
   bab5a:	fa20 f002 	lsr.w	r0, r0, r2
   bab5e:	bf18      	it	ne
   bab60:	f040 0001 	orrne.w	r0, r0, #1
   bab64:	ea4f 23c1 	mov.w	r3, r1, lsl #11
   bab68:	ea4f 23d3 	mov.w	r3, r3, lsr #11
   bab6c:	fa03 fc0c 	lsl.w	ip, r3, ip
   bab70:	ea40 000c 	orr.w	r0, r0, ip
   bab74:	fa23 f302 	lsr.w	r3, r3, r2
   bab78:	ea4f 0343 	mov.w	r3, r3, lsl #1
   bab7c:	e7cc      	b.n	bab18 <__aeabi_d2f+0x14>
   bab7e:	ea7f 5362 	mvns.w	r3, r2, asr #21
   bab82:	d107      	bne.n	bab94 <__aeabi_d2f+0x90>
   bab84:	ea50 3301 	orrs.w	r3, r0, r1, lsl #12
   bab88:	bf1e      	ittt	ne
   bab8a:	f04f 40fe 	movne.w	r0, #2130706432	; 0x7f000000
   bab8e:	f440 0040 	orrne.w	r0, r0, #12582912	; 0xc00000
   bab92:	4770      	bxne	lr
   bab94:	f001 4000 	and.w	r0, r1, #2147483648	; 0x80000000
   bab98:	f040 40fe 	orr.w	r0, r0, #2130706432	; 0x7f000000
   bab9c:	f440 0000 	orr.w	r0, r0, #8388608	; 0x800000
   baba0:	4770      	bx	lr
   baba2:	bf00      	nop

000baba4 <atexit>:
   baba4:	2300      	movs	r3, #0
   baba6:	4601      	mov	r1, r0
   baba8:	461a      	mov	r2, r3
   babaa:	4618      	mov	r0, r3
   babac:	f000 b8c8 	b.w	bad40 <__register_exitproc>

000babb0 <calloc>:
   babb0:	4b02      	ldr	r3, [pc, #8]	; (babbc <calloc+0xc>)
   babb2:	460a      	mov	r2, r1
   babb4:	4601      	mov	r1, r0
   babb6:	6818      	ldr	r0, [r3, #0]
   babb8:	f000 b818 	b.w	babec <_calloc_r>
   babbc:	2003ccac 	.word	0x2003ccac

000babc0 <memcpy>:
   babc0:	440a      	add	r2, r1
   babc2:	4291      	cmp	r1, r2
   babc4:	f100 33ff 	add.w	r3, r0, #4294967295
   babc8:	d100      	bne.n	babcc <memcpy+0xc>
   babca:	4770      	bx	lr
   babcc:	b510      	push	{r4, lr}
   babce:	f811 4b01 	ldrb.w	r4, [r1], #1
   babd2:	f803 4f01 	strb.w	r4, [r3, #1]!
   babd6:	4291      	cmp	r1, r2
   babd8:	d1f9      	bne.n	babce <memcpy+0xe>
   babda:	bd10      	pop	{r4, pc}

000babdc <memset>:
   babdc:	4402      	add	r2, r0
   babde:	4603      	mov	r3, r0
   babe0:	4293      	cmp	r3, r2
   babe2:	d100      	bne.n	babe6 <memset+0xa>
   babe4:	4770      	bx	lr
   babe6:	f803 1b01 	strb.w	r1, [r3], #1
   babea:	e7f9      	b.n	babe0 <memset+0x4>

000babec <_calloc_r>:
   babec:	b513      	push	{r0, r1, r4, lr}
   babee:	434a      	muls	r2, r1
   babf0:	4611      	mov	r1, r2
   babf2:	9201      	str	r2, [sp, #4]
   babf4:	f7fe fc08 	bl	b9408 <_malloc_r>
   babf8:	4604      	mov	r4, r0
   babfa:	b118      	cbz	r0, bac04 <_calloc_r+0x18>
   babfc:	9a01      	ldr	r2, [sp, #4]
   babfe:	2100      	movs	r1, #0
   bac00:	f7ff ffec 	bl	babdc <memset>
   bac04:	4620      	mov	r0, r4
   bac06:	b002      	add	sp, #8
   bac08:	bd10      	pop	{r4, pc}
	...

000bac0c <srand>:
   bac0c:	b538      	push	{r3, r4, r5, lr}
   bac0e:	4b10      	ldr	r3, [pc, #64]	; (bac50 <srand+0x44>)
   bac10:	681d      	ldr	r5, [r3, #0]
   bac12:	6bab      	ldr	r3, [r5, #56]	; 0x38
   bac14:	4604      	mov	r4, r0
   bac16:	b9b3      	cbnz	r3, bac46 <srand+0x3a>
   bac18:	2018      	movs	r0, #24
   bac1a:	f7fe fbcd 	bl	b93b8 <malloc>
   bac1e:	4602      	mov	r2, r0
   bac20:	63a8      	str	r0, [r5, #56]	; 0x38
   bac22:	b920      	cbnz	r0, bac2e <srand+0x22>
   bac24:	4b0b      	ldr	r3, [pc, #44]	; (bac54 <srand+0x48>)
   bac26:	480c      	ldr	r0, [pc, #48]	; (bac58 <srand+0x4c>)
   bac28:	2142      	movs	r1, #66	; 0x42
   bac2a:	f7fe fbf5 	bl	b9418 <__assert_func>
   bac2e:	490b      	ldr	r1, [pc, #44]	; (bac5c <srand+0x50>)
   bac30:	4b0b      	ldr	r3, [pc, #44]	; (bac60 <srand+0x54>)
   bac32:	e9c0 1300 	strd	r1, r3, [r0]
   bac36:	4b0b      	ldr	r3, [pc, #44]	; (bac64 <srand+0x58>)
   bac38:	6083      	str	r3, [r0, #8]
   bac3a:	230b      	movs	r3, #11
   bac3c:	8183      	strh	r3, [r0, #12]
   bac3e:	2100      	movs	r1, #0
   bac40:	2001      	movs	r0, #1
   bac42:	e9c2 0104 	strd	r0, r1, [r2, #16]
   bac46:	6bab      	ldr	r3, [r5, #56]	; 0x38
   bac48:	2200      	movs	r2, #0
   bac4a:	611c      	str	r4, [r3, #16]
   bac4c:	615a      	str	r2, [r3, #20]
   bac4e:	bd38      	pop	{r3, r4, r5, pc}
   bac50:	2003ccac 	.word	0x2003ccac
   bac54:	000bcb49 	.word	0x000bcb49
   bac58:	000bcb60 	.word	0x000bcb60
   bac5c:	abcd330e 	.word	0xabcd330e
   bac60:	e66d1234 	.word	0xe66d1234
   bac64:	0005deec 	.word	0x0005deec

000bac68 <strcpy>:
   bac68:	4603      	mov	r3, r0
   bac6a:	f811 2b01 	ldrb.w	r2, [r1], #1
   bac6e:	f803 2b01 	strb.w	r2, [r3], #1
   bac72:	2a00      	cmp	r2, #0
   bac74:	d1f9      	bne.n	bac6a <strcpy+0x2>
   bac76:	4770      	bx	lr

000bac78 <strlen>:
   bac78:	4603      	mov	r3, r0
   bac7a:	f813 2b01 	ldrb.w	r2, [r3], #1
   bac7e:	2a00      	cmp	r2, #0
   bac80:	d1fb      	bne.n	bac7a <strlen+0x2>
   bac82:	1a18      	subs	r0, r3, r0
   bac84:	3801      	subs	r0, #1
   bac86:	4770      	bx	lr

000bac88 <strtok>:
   bac88:	4b16      	ldr	r3, [pc, #88]	; (bace4 <strtok+0x5c>)
   bac8a:	b573      	push	{r0, r1, r4, r5, r6, lr}
   bac8c:	681e      	ldr	r6, [r3, #0]
   bac8e:	6db4      	ldr	r4, [r6, #88]	; 0x58
   bac90:	4605      	mov	r5, r0
   bac92:	b9fc      	cbnz	r4, bacd4 <strtok+0x4c>
   bac94:	2050      	movs	r0, #80	; 0x50
   bac96:	9101      	str	r1, [sp, #4]
   bac98:	f7fe fb8e 	bl	b93b8 <malloc>
   bac9c:	9901      	ldr	r1, [sp, #4]
   bac9e:	65b0      	str	r0, [r6, #88]	; 0x58
   baca0:	4602      	mov	r2, r0
   baca2:	b920      	cbnz	r0, bacae <strtok+0x26>
   baca4:	4b10      	ldr	r3, [pc, #64]	; (bace8 <strtok+0x60>)
   baca6:	4811      	ldr	r0, [pc, #68]	; (bacec <strtok+0x64>)
   baca8:	2157      	movs	r1, #87	; 0x57
   bacaa:	f7fe fbb5 	bl	b9418 <__assert_func>
   bacae:	e9c0 4400 	strd	r4, r4, [r0]
   bacb2:	e9c0 4402 	strd	r4, r4, [r0, #8]
   bacb6:	e9c0 4404 	strd	r4, r4, [r0, #16]
   bacba:	e9c0 440a 	strd	r4, r4, [r0, #40]	; 0x28
   bacbe:	e9c0 440c 	strd	r4, r4, [r0, #48]	; 0x30
   bacc2:	e9c0 440e 	strd	r4, r4, [r0, #56]	; 0x38
   bacc6:	e9c0 4410 	strd	r4, r4, [r0, #64]	; 0x40
   bacca:	e9c0 4412 	strd	r4, r4, [r0, #72]	; 0x48
   bacce:	6184      	str	r4, [r0, #24]
   bacd0:	7704      	strb	r4, [r0, #28]
   bacd2:	6244      	str	r4, [r0, #36]	; 0x24
   bacd4:	6db2      	ldr	r2, [r6, #88]	; 0x58
   bacd6:	2301      	movs	r3, #1
   bacd8:	4628      	mov	r0, r5
   bacda:	b002      	add	sp, #8
   bacdc:	e8bd 4070 	ldmia.w	sp!, {r4, r5, r6, lr}
   bace0:	f000 b806 	b.w	bacf0 <__strtok_r>
   bace4:	2003ccac 	.word	0x2003ccac
   bace8:	000bcb49 	.word	0x000bcb49
   bacec:	000bcbdd 	.word	0x000bcbdd

000bacf0 <__strtok_r>:
   bacf0:	b5f0      	push	{r4, r5, r6, r7, lr}
   bacf2:	b908      	cbnz	r0, bacf8 <__strtok_r+0x8>
   bacf4:	6810      	ldr	r0, [r2, #0]
   bacf6:	b188      	cbz	r0, bad1c <__strtok_r+0x2c>
   bacf8:	4604      	mov	r4, r0
   bacfa:	4620      	mov	r0, r4
   bacfc:	f814 5b01 	ldrb.w	r5, [r4], #1
   bad00:	460f      	mov	r7, r1
   bad02:	f817 6b01 	ldrb.w	r6, [r7], #1
   bad06:	b91e      	cbnz	r6, bad10 <__strtok_r+0x20>
   bad08:	b965      	cbnz	r5, bad24 <__strtok_r+0x34>
   bad0a:	6015      	str	r5, [r2, #0]
   bad0c:	4628      	mov	r0, r5
   bad0e:	e005      	b.n	bad1c <__strtok_r+0x2c>
   bad10:	42b5      	cmp	r5, r6
   bad12:	d1f6      	bne.n	bad02 <__strtok_r+0x12>
   bad14:	2b00      	cmp	r3, #0
   bad16:	d1f0      	bne.n	bacfa <__strtok_r+0xa>
   bad18:	6014      	str	r4, [r2, #0]
   bad1a:	7003      	strb	r3, [r0, #0]
   bad1c:	bdf0      	pop	{r4, r5, r6, r7, pc}
   bad1e:	461c      	mov	r4, r3
   bad20:	e00c      	b.n	bad3c <__strtok_r+0x4c>
   bad22:	b915      	cbnz	r5, bad2a <__strtok_r+0x3a>
   bad24:	f814 3b01 	ldrb.w	r3, [r4], #1
   bad28:	460e      	mov	r6, r1
   bad2a:	f816 5b01 	ldrb.w	r5, [r6], #1
   bad2e:	42ab      	cmp	r3, r5
   bad30:	d1f7      	bne.n	bad22 <__strtok_r+0x32>
   bad32:	2b00      	cmp	r3, #0
   bad34:	d0f3      	beq.n	bad1e <__strtok_r+0x2e>
   bad36:	2300      	movs	r3, #0
   bad38:	f804 3c01 	strb.w	r3, [r4, #-1]
   bad3c:	6014      	str	r4, [r2, #0]
   bad3e:	e7ed      	b.n	bad1c <__strtok_r+0x2c>

000bad40 <__register_exitproc>:
   bad40:	e92d 43f8 	stmdb	sp!, {r3, r4, r5, r6, r7, r8, r9, lr}
   bad44:	f8df 80b8 	ldr.w	r8, [pc, #184]	; bae00 <__register_exitproc+0xc0>
   bad48:	4606      	mov	r6, r0
   bad4a:	f8d8 0000 	ldr.w	r0, [r8]
   bad4e:	461f      	mov	r7, r3
   bad50:	460d      	mov	r5, r1
   bad52:	4691      	mov	r9, r2
   bad54:	f000 f856 	bl	bae04 <__retarget_lock_acquire_recursive>
   bad58:	4b25      	ldr	r3, [pc, #148]	; (badf0 <__register_exitproc+0xb0>)
   bad5a:	681c      	ldr	r4, [r3, #0]
   bad5c:	b934      	cbnz	r4, bad6c <__register_exitproc+0x2c>
   bad5e:	4c25      	ldr	r4, [pc, #148]	; (badf4 <__register_exitproc+0xb4>)
   bad60:	601c      	str	r4, [r3, #0]
   bad62:	4b25      	ldr	r3, [pc, #148]	; (badf8 <__register_exitproc+0xb8>)
   bad64:	b113      	cbz	r3, bad6c <__register_exitproc+0x2c>
   bad66:	681b      	ldr	r3, [r3, #0]
   bad68:	f8c4 3088 	str.w	r3, [r4, #136]	; 0x88
   bad6c:	6863      	ldr	r3, [r4, #4]
   bad6e:	2b1f      	cmp	r3, #31
   bad70:	dd07      	ble.n	bad82 <__register_exitproc+0x42>
   bad72:	f8d8 0000 	ldr.w	r0, [r8]
   bad76:	f000 f847 	bl	bae08 <__retarget_lock_release_recursive>
   bad7a:	f04f 30ff 	mov.w	r0, #4294967295
   bad7e:	e8bd 83f8 	ldmia.w	sp!, {r3, r4, r5, r6, r7, r8, r9, pc}
   bad82:	b34e      	cbz	r6, badd8 <__register_exitproc+0x98>
   bad84:	f8d4 0088 	ldr.w	r0, [r4, #136]	; 0x88
   bad88:	b988      	cbnz	r0, badae <__register_exitproc+0x6e>
   bad8a:	4b1c      	ldr	r3, [pc, #112]	; (badfc <__register_exitproc+0xbc>)
   bad8c:	b923      	cbnz	r3, bad98 <__register_exitproc+0x58>
   bad8e:	f8d8 0000 	ldr.w	r0, [r8]
   bad92:	f000 f838 	bl	bae06 <__retarget_lock_release>
   bad96:	e7f0      	b.n	bad7a <__register_exitproc+0x3a>
   bad98:	f44f 7084 	mov.w	r0, #264	; 0x108
   bad9c:	f7fe fb0c 	bl	b93b8 <malloc>
   bada0:	2800      	cmp	r0, #0
   bada2:	d0f4      	beq.n	bad8e <__register_exitproc+0x4e>
   bada4:	2300      	movs	r3, #0
   bada6:	e9c0 3340 	strd	r3, r3, [r0, #256]	; 0x100
   badaa:	f8c4 0088 	str.w	r0, [r4, #136]	; 0x88
   badae:	6863      	ldr	r3, [r4, #4]
   badb0:	f840 9023 	str.w	r9, [r0, r3, lsl #2]
   badb4:	2201      	movs	r2, #1
   badb6:	409a      	lsls	r2, r3
   badb8:	eb00 0183 	add.w	r1, r0, r3, lsl #2
   badbc:	f8d0 3100 	ldr.w	r3, [r0, #256]	; 0x100
   badc0:	4313      	orrs	r3, r2
   badc2:	f8c0 3100 	str.w	r3, [r0, #256]	; 0x100
   badc6:	2e02      	cmp	r6, #2
   badc8:	f8c1 7080 	str.w	r7, [r1, #128]	; 0x80
   badcc:	bf02      	ittt	eq
   badce:	f8d0 3104 	ldreq.w	r3, [r0, #260]	; 0x104
   badd2:	4313      	orreq	r3, r2
   badd4:	f8c0 3104 	streq.w	r3, [r0, #260]	; 0x104
   badd8:	6863      	ldr	r3, [r4, #4]
   badda:	f8d8 0000 	ldr.w	r0, [r8]
   badde:	1c5a      	adds	r2, r3, #1
   bade0:	3302      	adds	r3, #2
   bade2:	6062      	str	r2, [r4, #4]
   bade4:	f844 5023 	str.w	r5, [r4, r3, lsl #2]
   bade8:	f000 f80e 	bl	bae08 <__retarget_lock_release_recursive>
   badec:	2000      	movs	r0, #0
   badee:	e7c6      	b.n	bad7e <__register_exitproc+0x3e>
   badf0:	2003e7e8 	.word	0x2003e7e8
   badf4:	2003e75c 	.word	0x2003e75c
   badf8:	00000000 	.word	0x00000000
   badfc:	000b93b9 	.word	0x000b93b9
   bae00:	2003cd10 	.word	0x2003cd10

000bae04 <__retarget_lock_acquire_recursive>:
   bae04:	4770      	bx	lr

000bae06 <__retarget_lock_release>:
   bae06:	4770      	bx	lr

000bae08 <__retarget_lock_release_recursive>:
   bae08:	4770      	bx	lr

000bae0a <link_code_end>:
	...

000bae0c <dynalib_user>:
   bae0c:	4021 000b 405d 000b 4085 000b 4089 000b     !@..]@...@...@..
   bae1c:	0000 0000 6143 6c6c 6f20 206e 7570 6572     ....Call on pure
   bae2c:	7620 7269 7574 6c61 5400 6d65 3a70 2520      virtual.Temp: %
   bae3c:	0066 6e49 6176 696c 5364 6e65 6f73 4572     f.InvalidSensorE
   bae4c:	7272 726f 5600 6c61 726f 6e20 206f 6176     rror.Valor no va
   bae5c:	696c 6f64 4c00 6465 7245 6f72 4f72 7470     lido.LedErrorOpt
   bae6c:	6f69 006e 6f4e 6174 6920 766e a1c3 696c     ion.Nota inv..li
   bae7c:	6164 5400 7069 206f 6e69 c376 6ca1 6469     da.Tipo inv..lid
   bae8c:	006f 4552 4d00 0049 4146 5300 4c4f 4c00     o.RE.MI.FA.SOL.L
   bae9c:	0041 4953 5f00 0043 4e5f 5f00 0042 6e49     A.SI._C._N._B.In
   baeac:	6176 696c 2064 6573 736e 726f 2021 3e2d     valid sensor! ->
   baebc:	5320 6e65 6f73 2072 6572 6570 6974 6f64      Sensor repetido
   baecc:	6520 206e 6c65 6220 6f6c 7571 0065 494d      en el bloque.MI
   baedc:	4146 4552 525f 6165 2864 2029 6166 6c69     FARE_Read() fail
   baeec:	6465 203a 5000 4443 415f 7475 6568 746e     ed: .PCD_Authent
   baefc:	6369 7461 2865 2029 6166 6c69 6465 203a     icate() failed: 
   baf0c:	5400 6761 6e49 6f66 203a 7325 4300 6e6f     .TagInfo: %s.Con
   baf1c:	6365 6174 2072 6c61 7020 6575 7472 206f     ectar al puerto 
   baf2c:	3041 000a 6f43 656e 7463 7261 6120 206c     A0..Conectar al 
   baf3c:	7570 7265 6f74 4120 0a32 4300 6e6f 6365     puerto A2..Conec
   baf4c:	6174 2072 6c61 7020 6575 7472 206f 3441     tar al puerto A4
   baf5c:	000a 6f43 656e 7463 7261 6120 206c 7570     ..Conectar al pu
   baf6c:	7265 6f74 4420 0a32 4300 6e6f 6365 6174     erto D2..Conecta
   baf7c:	2072 6c61 7020 6575 7472 206f 3444 000a     r al puerto D4..
   baf8c:	6f43 656e 7463 7261 6120 206c 7570 7265     Conectar al puer
   baf9c:	6f74 4420 0a36 4500 7272 726f 203a 6f4e     to D6..Error: No
   bafac:	6820 7961 6d20 7361 7020 6575 7472 736f      hay mas puertos
   bafbc:	6420 7369 6f70 696e 6c62 7365 0a20 4500      disponibles ..E
   bafcc:	5045 4f52 204d 6d65 7470 0079 002d 2330     EPROM empty.-.0#
   bafdc:	2339 0031 2330 3031 3123 3000 3123 2331     9#1.0#10#1.0#11#
   bafec:	0031 2330 2331 2331 0030 2330 2331 2331     1.0#1#1#0.0#1#1#
   baffc:	0031 2330 2330 2331 0030 2330 2330 2331     1.0#0#1#0.0#0#1#
   bb00c:	0031 2330 2330 2331 0032 2330 2330 2331     1.0#0#1#2.0#0#1#
   bb01c:	0033 2330 2330 2331 0034 2330 2330 2331     3.0#0#1#4.0#0#1#
   bb02c:	0035 2331 2330 2331 2337 0030 2331 2330     5.1#0#1#7#0.1#0#
   bb03c:	2331 2337 0031 2331 2330 2330 2332 0030     1#7#1.1#0#0#2#0.
   bb04c:	2331 2330 2330 2332 0031 2331 2330 2330     1#0#0#2#1.1#0#0#
   bb05c:	2333 0030 2331 2330 2330 2333 0031 2331     3#0.1#0#0#3#1.1#
   bb06c:	2330 2331 2334 0030 2331 2330 2331 2334     0#1#4#0.1#0#1#4#
   bb07c:	0031 2331 2330 2331 2335 0030 2331 2330     1.1#0#1#5#0.1#0#
   bb08c:	2331 2335 0031 2331 2330 2331 2336 0030     1#5#1.1#0#1#6#0.
   bb09c:	2331 2330 2331 2336 0031 2331 2330 2331     1#0#1#6#1.1#0#1#
   bb0ac:	2336 0032 2331 2331 2331 2331 0030 2331     6#2.1#1#1#1#0.1#
   bb0bc:	2331 2331 2331 0031 2331 2331 2331 2330     1#1#1#1.1#1#1#0#
   bb0cc:	0030 2331 2331 2331 2330 0031 2331 2331     0.1#1#1#0#1.1#1#
   bb0dc:	2331 2330 0032 2331 2331 2331 2330 0033     1#0#2.1#1#1#0#3.
   bb0ec:	2331 2331 2331 2330 0034 2331 2331 2331     1#1#1#0#4.1#1#1#
   bb0fc:	2330 0035 2331 2331 2331 2330 0036 2331     0#5.1#1#1#0#6.1#
   bb10c:	2331 2331 2330 0037 2331 2333 0030 2331     1#1#0#7.1#3#0.1#
   bb11c:	2333 0031 2332 2330 2330 0030 2332 2330     3#1.2#0#0#0.2#0#
   bb12c:	2330 0031 2332 2330 2330 0032 2332 2330     0#1.2#0#0#2.2#0#
   bb13c:	2331 0030 2332 2330 2331 0031 2332 2330     1#0.2#0#1#1.2#0#
   bb14c:	2331 0032 2332 2330 2332 0030 2332 2330     1#2.2#0#2#0.2#0#
   bb15c:	2332 0031 2332 2330 2332 0032 2332 2330     2#1.2#0#2#2.2#0#
   bb16c:	2333 0030 2332 2330 2333 0031 2332 2330     3#0.2#0#3#1.2#0#
   bb17c:	2333 0032 2332 2330 2334 0030 2332 2330     3#2.2#0#4#0.2#0#
   bb18c:	2334 0031 2332 2330 2334 0032 2332 2330     4#1.2#0#4#2.2#0#
   bb19c:	2335 0030 2332 2330 2335 0031 2332 2330     5#0.2#0#5#1.2#0#
   bb1ac:	2335 0032 2332 2330 2336 0030 2332 2330     5#2.2#0#6#0.2#0#
   bb1bc:	2336 0031 2332 2330 2336 0032 2332 2330     6#1.2#0#6#2.2#0#
   bb1cc:	2337 0030 2332 2330 2337 0031 2332 2330     7#0.2#0#7#1.2#0#
   bb1dc:	2337 0032 2332 2331 0030 2332 2332 0030     7#2.2#1#0.2#2#0.
   bb1ec:	2332 2332 0031 2332 2332 0032 2332 2332     2#2#1.2#2#2.2#2#
   bb1fc:	0033 2332 2332 0034 2332 2332 0035 2332     3.2#2#4.2#2#5.2#
   bb20c:	2332 0036 2332 2332 0037 2332 2332 0038     2#6.2#2#7.2#2#8.
   bb21c:	2336 2330 0030 2336 2330 0031 2336 2330     6#0#0.6#0#1.6#0#
   bb22c:	0032 2336 2331 0030 2336 2332 0030 2336     2.6#1#0.6#2#0.6#
   bb23c:	2332 0031 2336 2332 0032 2331 2330 2331     2#1.6#2#2.1#0#1#
   bb24c:	2339 0031 2331 2330 2331 3131 3123 3100     9#1.1#0#1#11#1.1
   bb25c:	3023 3123 3823 3123 3100 3023 3023 3123     #0#1#8#1.1#0#0#1
   bb26c:	2332 0031 2331 2331 2330 3331 3123 4d00     2#1.1#1#0#13#1.M
   bb27c:	444f 204f 4142 4953 4f43 4d00 444f 204f     ODO BASICO.MODO 
   bb28c:	5641 4e41 415a 4f44 4d00 444f 204f 554d     AVANZADO.MODO MU
   bb29c:	4953 4143 4200 7469 616d 2070 6f6e 2074     SICA.Bitmap not 
   bb2ac:	7661 6961 616c 6c62 2e65 2000 2020 2020     available..     
   bb2bc:	4f43 454e 5443 5241 4120 003a 4159 4320     CONECTAR A:.YA C
   bb2cc:	4e4f 4345 4154 4f44 5400 7261 656a 6174     ONECTADO.Tarjeta
   bb2dc:	6920 766e 6c61 6469 2061 6170 6172 6520      invalida para e
   bb2ec:	7473 2065 6f6d 6f64 4200 726f 6172 6f64     ste modo.Borrado
   bb2fc:	6920 766e 6c61 6469 206f 6170 6172 6520      invalido para e
   bb30c:	7473 2065 6f6d 6f64 4f00 6472 6e65 6420     ste modo.Orden d
   bb31c:	2065 6174 6a72 7465 7361 6920 766e 6c61     e tarjetas inval
   bb32c:	6469 006f 7550 7265 6f74 6e20 206f 6964     ido.Puerto no di
   bb33c:	7073 6e6f 6269 656c 5000 616c 2079 6f6e     sponible.Play no
   bb34c:	6420 7369 6f70 696e 6c62 0065 6553 736e      disponible.Sens
   bb35c:	726f 6e20 206f 6964 7073 6e6f 6269 656c     or no disponible
   bb36c:	2820 6e65 7520 6f73 0029 6341 7574 6461      (en uso).Actuad
   bb37c:	726f 6e20 206f 6964 7073 6e6f 6269 656c     or no disponible
   bb38c:	2820 6e65 7520 6f73 0029 6f42 7272 6461      (en uso).Borrad
   bb39c:	206f 6564 6220 6f6c 7571 2065 6572 6c61     o de bloque real
   bb3ac:	7a69 6461 006f 614e 6164 7120 6575 6220     izado.Nada que b
   bb3bc:	726f 6172 0072 6f42 7272 6461 206f 6564     orrar.Borrado de
   bb3cc:	6c20 6f6f 2070 6572 6c61 7a69 6461 006f      loop realizado.
   bb3dc:	614e 6164 7120 6575 6220 726f 6172 2e72     Nada que borrar.
   bb3ec:	2500 2064 202d 6425 4600 6e69 6c61 7a69     .%d - %d.Finaliz
   bb3fc:	2061 6c65 6220 6375 656c 6120 746e 7365     a el bucle antes
   bb40c:	6420 2065 6572 7270 646f 6375 7269 4d00      de reproducir.M
   bb41c:	646f 206f 4142 4953 4f43 6420 7465 6365     odo BASICO detec
   bb42c:	6174 6f64 4900 696e 6963 6e61 6f64 6d20     tado.Iniciando m
   bb43c:	646f 206f 4142 4953 4f43 2e2e 002e 6f4d     odo BASICO....Mo
   bb44c:	6f64 4120 4156 5a4e 4441 204f 6564 6574     do AVANZADO dete
   bb45c:	7463 6461 006f 6e49 6369 6169 646e 206f     ctado.Iniciando 
   bb46c:	6f6d 6f64 4120 4156 5a4e 4441 2e4f 2e2e     modo AVANZADO...
   bb47c:	4d00 646f 206f 554d 4953 4143 6420 7465     .Modo MUSICA det
   bb48c:	6365 6174 6f64 4900 696e 6963 6e61 6f64     ectado.Iniciando
   bb49c:	6d20 646f 206f 554d 4953 4143 2e2e 002e      modo MUSICA....
   bb4ac:	755a 626d 6461 726f 003a 6154 2067 6544     Zumbador:.Tag De
   bb4bc:	6574 7463 6461 2061 2d2d 203e 4200 726f     tectada --> .Bor
   bb4cc:	6172 6f64 6320 6d6f 6c70 7465 206f 6572     rado completo re
   bb4dc:	6c61 7a69 6461 006f 6f42 7272 6461 206f     alizado.Borrado 
   bb4ec:	6f6e 7020 7265 696d 6974 6f64 7020 7261     no permitido par
   bb4fc:	2061 7365 6574 6d20 646f 006f 6553 736e     a este modo.Sens
   bb50c:	726f 6420 7465 6365 6174 6f64 4100 7463     or detectado.Act
   bb51c:	6175 6f64 2072 6564 6574 7463 6461 006f     uador detectado.
   bb52c:	6a45 6365 7475 6e61 6f64 7420 6761 2d20     Ejecutando tag -
   bb53c:	3e2d 0020 7550 7265 6f74 6e20 206f 6964     -> .Puerto no di
   bb54c:	7073 6e6f 6269 656c 6565 0065 6553 6520     sponibleeee.Se e
   bb55c:	7073 7265 6261 2061 4649 7420 6761 4400     speraba IF tag.D
   bb56c:	7365 7570 7365 6420 2065 6e75 7320 6e65     espues de un sen
   bb57c:	6f73 2072 6573 6520 7073 7265 2061 6e75     sor se espera un
   bb58c:	2061 6f63 636e 6f69 3a6e 4120 444e 7520     a concion: AND u
   bb59c:	4f20 0052 6553 736e 726f 6920 766e 6c61      OR.Sensor inval
   bb5ac:	6469 006f 6553 6520 7073 7265 6261 2061     ido.Se esperaba 
   bb5bc:	4854 4e45 7420 6761 4900 766e 6c61 6469     THEN tag.Invalid
   bb5cc:	4120 7463 6175 6f64 0072 6553 6520 7073      Actuador.Se esp
   bb5dc:	7265 6261 2061 4c45 4553 7420 6761 4900     eraba ELSE tag.I
   bb5ec:	2046 6564 6574 7463 6461 006f 4649 4e00     F detectado.IF.N
   bb5fc:	6d75 7265 206f 6564 6220 6f6c 7571 7365     umero de bloques
   bb60c:	3e20 3220 7c20 207c 6553 6e20 6365 7365      > 2 || Se neces
   bb61c:	7469 2061 6c61 6d20 6e65 736f 7520 206e     ita al menos un 
   bb62c:	6361 7574 6461 726f 7020 7261 2061 6574     actuador para te
   bb63c:	6d72 6e69 7261 6520 206c 6c62 716f 6575     rminar el bloque
   bb64c:	4100 444e 4f2f 2052 6564 6574 7463 6461     .AND/OR detectad
   bb65c:	006f 4e41 0044 6e55 2061 6f63 636e 6369     o.AND.Una concic
   bb66c:	6f69 206e 6f73 6f6c 7020 6575 6564 6920     ion solo puede i
   bb67c:	2072 6573 7567 6469 2061 6564 7520 206e     r seguida de un 
   bb68c:	6573 736e 726f 002e 4854 4e45 6420 7465     sensor..THEN det
   bb69c:	6365 6174 6f64 5400 4548 004e 754e 656d     ectado.THEN.Nume
   bb6ac:	6f72 6420 2065 6573 736e 726f 7365 6920     ro de sensores i
   bb6bc:	666e 6375 6569 746e 7365 4500 534c 2045     nfucientes.ELSE 
   bb6cc:	6564 6574 7463 6461 006f 4c45 4553 4900     detectado.ELSE.I
   bb6dc:	746e 6f72 7564 6563 7520 206e 6341 7574     ntroduce un Actu
   bb6ec:	6461 726f 7020 7261 2061 616c 6520 6176     ador para la eva
   bb6fc:	756c 6361 c369 6eb3 6120 5420 5552 0045     luaci..n a TRUE.
   bb70c:	6946 206e 6154 0067 2023 6c42 716f 6575     Fin Tag.# Bloque
   bb71c:	7c20 2320 5320 6e65 6f73 6572 2073 207c      | # Sensores | 
   bb72c:	2023 6f43 646e 6369 6f69 656e 2073 207c     # Condiciones | 
   bb73c:	2023 6341 7574 6461 726f 7365 2000 2020     # Actuadores.   
   bb74c:	2520 2064 7c09 2009 6425 0920 097c 2520      %d .|. %d .|. %
   bb75c:	2064 7c09 2009 6425 0920 097c 2520 0064     d .|. %d .|. %d.
   bb76c:	6154 6a72 7465 2061 6e69 c376 6ca1 6469     Tarjeta inv..lid
   bb77c:	2061 6170 6172 6520 7473 2065 6f6d 6f64     a para este modo
   bb78c:	4200 4f4c 5551 2045 3a31 5420 5552 0045     .BLOQUE 1: TRUE.
   bb79c:	4c42 514f 4555 3120 203a 4146 534c 0045     BLOQUE 1: FALSE.
   bb7ac:	2020 6361 6261 2061 6c62 716f 6575 3120       acaba bloque 1
   bb7bc:	4200 4f4c 5551 2045 3a32 5420 5552 0045     .BLOQUE 2: TRUE.
   bb7cc:	4c42 514f 4555 3220 203a 4146 534c 0045     BLOQUE 2: FALSE.
   bb7dc:	4c42 514f 4555 3220 203a 2020 6f6e 6620     BLOQUE 2:   no f
   bb7ec:	6e69 6c61 7a69 6461 006f 6a45 6365 7475     inalizado.Ejecut
   bb7fc:	6e61 6f64 2e2e 002e 6f42 7272 6461 2061     ando....Borrada 
   bb80c:	6c75 6974 616d 6c20 6365 7574 6172 4c00     ultima lectura.L
   bb81c:	6f6f 2070 202d 5000 7261 2061 6f63 656d     oop - .Para come
   bb82c:	7a6e 7261 7520 206e 6f6c 706f 6820 7961     nzar un loop hay
   bb83c:	7120 6575 6620 6e69 6c61 7a69 7261 6520      que finalizar e
   bb84c:	206c 6e61 6574 6972 726f 002e 4e45 2044     l anterior..END 
   bb85c:	6f4c 706f 7200 7065 2d20 0020 6f4c 706f     Loop.rep - .Loop
   bb86c:	7320 6e69 6320 6d6f 6e65 617a 2072 206f      sin comenzar o 
   bb87c:	6973 206e 6f63 746e 6e65 6469 006f          sin contenido.

000bb88a <CSWTCH.387>:
   bb88a:	ff13 ff11 000f                              ......

000bb890 <CSWTCH.400>:
   bb890:	00fa 01f4 03e8                              ......

000bb896 <_ZL14sucreLogo_data>:
   bb896:	ffff ffff ffff ffff ffff ffff ffff ffff     ................
   bb8a6:	ffff ffff ffff ffff ffff ffff ffff ffff     ................
   bb8b6:	ffff ffff ffff fff8 ffff ffff ffff ffff     ................
   bb8c6:	ffff ffff ffff 7fc0 ffff ffff ffff ffff     ................
   bb8d6:	ffff ffff feff 7f00 ffff ffff ffff ffff     ................
   bb8e6:	ffff ffff feff 7f00 ffff ffff ffff ffff     ................
   bb8f6:	ffff ffff feff 3f00 ffff ffff ffff ffff     .......?........
   bb906:	ffff ffff feff 3f00 ffff ffff ffff ffff     .......?........
   bb916:	ffff ffff 3ffc 3f00 ffff ffff ffff ffff     .....?.?........
   bb926:	ffff ffff 0ffc 1f00 ffff ffff ffff ffff     ................
   bb936:	ffff ffff 07fc 1f00 ffff ffff ffff ffff     ................
   bb946:	ffff ffff 07f8 3f00 ffff ffff ffff ffff     .......?........
   bb956:	ffff ffff 07f8 ff83 ffff ffff ffff ffff     ................
   bb966:	ffff ffff 0ff0 ffcf ffff ffff ffff ffff     ................
   bb976:	ffff ffff 0ff8 ffff ffff ffff ffff ffff     ................
   bb986:	ffff ffff 0ffe ffff ffff ffff ffff ffff     ................
   bb996:	ffff ffff 9fff ffff ffff ffff ffff ffff     ................
   bb9a6:	ffff ffff ffff ffff ffff ffff ffff ffff     ................
   bb9b6:	ffff ffff fcff ff1f ffff ffff ffff ffff     ................
   bb9c6:	ffff 7fc0 fcff ff0d 3fe0 03ef c0ff ff7f     .........?......
   bb9d6:	feff 3f00 f8f3 ff09 0780 01e4 00ff ff1f     ...?............
   bb9e6:	fcff 1f3f f8f3 ff09 c31f f8e0 3ffc ff87     ..?..........?..
   bb9f6:	f8ff ffff f8f3 fe09 f13f fce1 fff8 ffe3     ........?.......
   bba06:	f1ff ffff f8f3 fc19 f87f ffe3 fff1 ffe3     ................
   bba16:	e3ff ffff fff3 f819 fcff ffe7 ffe3 ffc7     ................
   bba26:	e7ff ffff fff3 f1f9 feff ffe7 ffe7 ff8f     ................
   bba36:	c7ff ffff e7f3 f3f9 ffff ffe7 ffe7 ff1f     ................
   bba46:	cfff ffff c3f3 f3f9 ffff ffe7 fec7 ff3f     ..............?.
   bba56:	cfff ffff 81f3 f3f9 ffff ffe7 fccf ff7f     ................
   bba66:	c0ff 0000 00f3 e3f9 ffff ffe7 f8cf ffff     ................
   bba76:	c0ff 0000 0072 e379 ffff ffe7 f1cf ffff     ....r.y.........
   bba86:	feff 0000 0072 e379 ffff ffe7 e3cf ffff     ....r.y.........
   bba96:	ffff fcff 00f3 f3f9 ffff ffe7 c7c7 ffff     ................
   bbaa6:	ffff fcff 81f3 f3f9 ffff ffe7 8fc7 ffff     ................
   bbab6:	ffff f8ff c3f3 f1f9 ffff ffe7 1fe7 ffff     ................
   bbac6:	ffff f9ff e7f1 f9f1 fcff ffe7 3fe2 fffb     .............?..
   bbad6:	ffff f1ff fff8 f8f1 fcff ffe7 7ff0 fff3     ................
   bbae6:	ffff e3ff fffc fce1 f87f ffe7 fff8 ffe3     ................
   bbaf6:	feff c77f 3ffc fe81 e13f ffe7 7ffc ffc7     .....?..?.......
   bbb06:	feff 0f1e 0efe ff09 8307 ffe7 0efe ff0f     ................
   bbb16:	ffff 1f00 80ff ff39 0fc0 ffe7 00ff ff1f     ......9.........
   bbb26:	ffff ffe0 e0ff ffff 7ff0 ffff e0ff ffff     ................
   bbb36:	ffff ffff ffff ffff ffff ffff ffff ffff     ................
   bbb46:	ffff ffff ffff ffff ffff ffff ffff ffff     ................
   bbb56:	ffff ffff ffff ffff ffff ffff ffff ffff     ................
   bbb66:	ffff ffff ffff ffff ffff ffff ffff ffff     ................
   bbb76:	ffff ffff ffff ffff ffff ffff ffff ffff     ................
   bbb86:	ffff ffff ffff ffff ffff ffff ffff ffff     ................
   bbb96:	ffff ffff ffff ffff cfff ffff ffff ffff     ................
   bbba6:	ffff ffff ffff ffff 9fff ffff ffff ffff     ................
   bbbb6:	ffff ffff ffff ffff 3fff feff 7cf6 ffff     .........?...|..
   bbbc6:	ffff ffff ffff ffff 7cff feff fce7 ffe7     .........|......
   bbbd6:	ffff ffff ffff ffff 78ff fe7c fccf ffc7     .........x|.....
   bbbe6:	ffff ffff ffff ffff 39ff fe31 e1df ff9f     .........91.....
   bbbf6:	ffff ffff ffff ffff 03fe fe93 413e ff8f     ............>A..
   bbc06:	ffff ffff ffff ffff 33ff feb7 9c1e ffe3     .........3......
   bbc16:	ffff ffff ffff ffff 73ff fe37 1dc6 ffbb     .........s7.....
   bbc26:	ffff ffff ffff ffff 38ff fe27 9df2 ff39     .........8'...9.
   bbc36:	ffff ffff ffff ffff 3cff fe67 417a ff93     .........<g.zA..
   bbc46:	ffff ffff ffff ffff 3fff ffe7 61fe ff87     .........?...a..
   bbc56:	ffff ffff ffff ffff ffff ffff fdff ffff     ................
   bbc66:	ffff ffff ffff ffff ffff ffff fdff ffff     ................
   bbc76:	ffff ffff ffff ffff ffff ffff ffff ffff     ................
   bbc86:	ffff ffff ffff ffff ffff ffff ffff ffff     ................
   bbc96:	6564 6166 6c75 2074 4d00 4253 4c00 4253     default .MSB.LSB
   bbca6:	3c00 5053 5349 7465 6974 676e 2073 6564     .<SPISettings de
   bbcb6:	6166 6c75 3e74 3c00 5053 5349 7465 6974     fault>.<SPISetti
   bbcc6:	676e 2073 7325 7525 2520 2073 4f4d 4544     ngs %s%u %s MODE
   bbcd6:	7525 003e                                   %u>.

000bbcda <_ZL4font>:
   bbcda:	0000 0000 3e00 4f5b 3e5b 6b3e 6b4f 1c3e     .....>[O[>>kOk>.
   bbcea:	7c3e 1c3e 3c18 3c7e 1c18 7d57 1c57 5e1c     >|>..<~<..W}W..^
   bbcfa:	5e7f 001c 3c18 0018 e7ff e7c3 00ff 2418     .^...<.........$
   bbd0a:	0018 e7ff e7db 30ff 3a48 0e06 2926 2979     .......0H:..&)y)
   bbd1a:	4026 057f 0705 7f40 2505 5a3f e73c 5a3c     &@....@..%?Z<.<Z
   bbd2a:	3e7f 1c1c 0808 1c1c 7f3e 2214 227f 5f14     .>......>.."."._
   bbd3a:	005f 5f5f 0906 017f 007f 8966 6a95 6060     _.__......f..j``
   bbd4a:	6060 9460 ffa2 94a2 0408 047e 1008 7e20     ```.......~... ~
   bbd5a:	1020 0808 1c2a 0808 2a1c 0808 101e 1010      ...*....*......
   bbd6a:	0c10 0c1e 0c1e 3830 383e 0630 3e0e 060e     ......08>80..>..
   bbd7a:	0000 0000 0000 5f00 0000 0700 0700 1400     ......._........
   bbd8a:	147f 147f 2a24 2a7f 2312 0813 6264 4936     ....$*.*.#..db6I
   bbd9a:	2056 0050 0708 0003 1c00 4122 0000 2241     V P......."A..A"
   bbdaa:	001c 1c2a 1c7f 082a 3e08 0808 8000 3070     ..*...*..>....p0
   bbdba:	0800 0808 0808 0000 6060 2000 0810 0204     ........``. ....
   bbdca:	513e 4549 003e 7f42 0040 4972 4949 2146     >QIE>.B.@.rIIIF!
   bbdda:	4941 334d 1418 7f12 2710 4545 3945 4a3c     AIM3.....'EEE9<J
   bbdea:	4949 4131 1121 0709 4936 4949 4636 4949     II1A!...6III6FII
   bbdfa:	1e29 0000 0014 0000 3440 0000 0800 2214     ).......@4....."
   bbe0a:	1441 1414 1414 4100 1422 0208 5901 0609     A......A"....Y..
   bbe1a:	413e 595d 7c4e 1112 7c12 497f 4949 3e36     >A]YN|...|.III6>
   bbe2a:	4141 2241 417f 4141 7f3e 4949 4149 097f     AAA".AAA>.IIIA..
   bbe3a:	0909 3e01 4141 7351 087f 0808 007f 7f41     ...>AAQs......A.
   bbe4a:	0041 4020 3f41 7f01 1408 4122 407f 4040     A. @A?...."A.@@@
   bbe5a:	7f40 1c02 7f02 047f 1008 3e7f 4141 3e41     @..........>AAA>
   bbe6a:	097f 0909 3e06 5141 5e21 097f 2919 2646     .....>AQ!^...)F&
   bbe7a:	4949 3249 0103 017f 3f03 4040 3f40 201f     III2.....?@@@?. 
   bbe8a:	2040 3f1f 3840 3f40 1463 1408 0363 7804     @ .?@8@?c...c..x
   bbe9a:	0304 5961 4d49 0043 417f 4141 0402 1008     ..aYIMC..AAA....
   bbeaa:	0020 4141 7f41 0204 0201 4004 4040 4040      .AAA......@@@@@
   bbeba:	0300 0807 2000 5454 4078 287f 4444 3838     ..... TTx@.(DD88
   bbeca:	4444 2844 4438 2844 387f 5454 1854 0800     DDD(8DD(.8TTT...
   bbeda:	097e 1802 a4a4 789c 087f 0404 0078 7d44     ~......x....x.D}
   bbeea:	0040 4020 3d40 7f00 2810 0044 4100 407f     @. @@=...(D..A.@
   bbefa:	7c00 7804 7804 087c 0404 3878 4444 3844     .|.x.x|...x8DDD8
   bbf0a:	18fc 2424 1818 2424 fc18 087c 0404 4808     ..$$..$$..|....H
   bbf1a:	5454 2454 0404 443f 3c24 4040 7c20 201c     TTT$..?D$<@@ |. 
   bbf2a:	2040 3c1c 3040 3c40 2844 2810 4c44 9090     @ .<@0@<D(.(DL..
   bbf3a:	7c90 6444 4c54 0044 3608 0041 0000 0077     .|DdTLD..6A...w.
   bbf4a:	0000 3641 0008 0102 0402 3c02 2326 3c26     ..A6.......<&#&<
   bbf5a:	a11e 61a1 3a12 4040 7a20 5438 5554 2159     ...a.:@@ z8TTUY!
   bbf6a:	5555 4179 5422 7854 2142 5455 4078 5420     UUyA"TTxB!UTx@ T
   bbf7a:	7955 0c40 521e 1272 5539 5555 3959 5454     Uy@..Rr.9UUUY9TT
   bbf8a:	5954 5539 5454 0058 4500 417c 0200 7d45     TY9UTTX..E|A..E}
   bbf9a:	0042 4501 407c 127d 1211 f07d 2528 f028     B..E|@}...}.(%(.
   bbfaa:	547c 4555 2000 5454 547c 0a7c 7f09 3249     |TUE. TT|T|...I2
   bbfba:	4949 3249 443a 4444 323a 484a 3048 413a     III2:DDD:2JHH0:A
   bbfca:	2141 3a7a 4042 7820 9d00 a0a0 3d7d 4242     A!z:B@ x....}=BB
   bbfda:	3d42 403d 4040 3c3d ff24 2424 7e48 4349     B==@@@=<$.$$H~IC
   bbfea:	2b66 fc2f 2b2f 09ff f629 c020 7e88 0309     f+/./+..). ..~..
   bbffa:	5420 7954 0041 4400 417d 4830 4a48 3832      TTyA..D}A0HHJ28
   bc00a:	4040 7a22 7a00 0a0a 7d72 190d 7d31 2926     @@"z.z..r}..1}&)
   bc01a:	2f29 2628 2929 2629 4830 404d 3820 0808     )/(&)))&0HM@ 8..
   bc02a:	0808 0808 0808 2f38 c810 baac 102f 3428     ......8/..../.(4
   bc03a:	00fa 7b00 0000 1408 142a 2222 2a14 0814     ...{....*."".*..
   bc04a:	0055 0055 aa55 aa55 aa55 55ff 55ff 00ff     U.U.U.U.U..U.U..
   bc05a:	0000 00ff 1010 ff10 1400 1414 00ff 1010     ................
   bc06a:	00ff 10ff f010 f010 1414 fc14 1400 f714     ................
   bc07a:	ff00 0000 00ff 14ff f414 fc04 1414 1017     ................
   bc08a:	101f 1f10 1f10 1414 1f14 1000 1010 00f0     ................
   bc09a:	0000 1f00 1010 1010 101f 1010 f010 0010     ................
   bc0aa:	0000 10ff 1010 1010 1010 1010 10ff 0000     ................
   bc0ba:	ff00 0014 ff00 ff00 0000 101f 0017 fc00     ................
   bc0ca:	f404 1414 1017 1417 f414 f404 0000 00ff     ................
   bc0da:	14f7 1414 1414 1414 00f7 14f7 1414 1417     ................
   bc0ea:	1010 101f 141f 1414 14f4 1010 10f0 00f0     ................
   bc0fa:	1f00 1f10 0000 1f00 0014 0000 14fc 0000     ................
   bc10a:	10f0 10f0 ff10 ff10 1414 ff14 1014 1010     ................
   bc11a:	001f 0000 f000 ff10 ffff ffff f0f0 f0f0     ................
   bc12a:	fff0 ffff 0000 0000 ff00 0fff 0f0f 0f0f     ................
   bc13a:	4438 3844 fc44 4a4a 344a 027e 0602 0206     8DD8D.JJJ4~.....
   bc14a:	027e 027e 5563 4149 3863 4444 043c 7e40     ~.~.cUIAc8DD<.@~
   bc15a:	1e20 0620 7e02 0202 a599 a5e7 1c99 492a      . ..~........*I
   bc16a:	1c2a 724c 7201 304c 4d4a 304d 4830 4878     *.Lr.rL0JMM00HxH
   bc17a:	bc30 5a62 3d46 493e 4949 7e00 0101 7e01     0.bZF=>III.~...~
   bc18a:	2a2a 2a2a 442a 5f44 4444 5140 444a 4040     *****DD_DD@QJD@@
   bc19a:	4a44 4051 0000 01ff e003 ff80 0000 0808     DJQ@............
   bc1aa:	6b6b 3608 3612 3624 0f06 0f09 0006 1800     kk.6.6$6........
   bc1ba:	0018 0000 1010 3000 ff40 0101 1f00 0101     .......0@.......
   bc1ca:	001e 1d19 1217 3c00 3c3c 003c 0000 0000     .......<<<<.....
	...

000bc1dc <_ZTV12Adafruit_GFX>:
	...
   bc1ec:	78d9 000b 9891 000b 40a1 000b 6f7b 000b     .x.......@..{o..
   bc1fc:	6f7d 000b 6faf 000b 6f8b 000b 6f9d 000b     }o...o...o...o..
   bc20c:	6ebd 000b 6f7b 000b 71a7 000b 71a5 000b     .n..{o...q...q..
   bc21c:	6fc7 000b 7005 000b 703f 000b 7085 000b     .o...p..?p...p..
   bc22c:	70a1 000b 7125 000b 6e55 6e6b 776f 206e     .p..%q..Unknown 
   bc23c:	7265 6f72 0072 7553 6363 7365 2e73 4500     error.Success..E
   bc24c:	7272 726f 6920 206e 6f63 6d6d 6e75 6369     rror in communic
   bc25c:	7461 6f69 2e6e 4300 6c6f 696c 7373 6f69     ation..Collissio
   bc26c:	206e 6564 6574 7463 6465 002e 6954 656d     n detected..Time
   bc27c:	756f 2074 6e69 6320 6d6f 756d 696e 6163     out in communica
   bc28c:	6974 6e6f 002e 2041 7562 6666 7265 6920     tion..A buffer i
   bc29c:	2073 6f6e 2074 6962 2067 6e65 756f 6867     s not big enough
   bc2ac:	002e 6e49 6574 6e72 6c61 6520 7272 726f     ..Internal error
   bc2bc:	6920 206e 6874 2065 6f63 6564 202e 6853      in the code. Sh
   bc2cc:	756f 646c 6e20 746f 6820 7061 6570 2e6e     ould not happen.
   bc2dc:	4900 766e 6c61 6469 6120 6772 6d75 6e65     .Invalid argumen
   bc2ec:	2e74 5400 6568 4320 4352 415f 6420 656f     t..The CRC_A doe
   bc2fc:	2073 6f6e 2074 616d 6374 2e68 4100 4d20     s not match..A M
   bc30c:	4649 5241 2045 4950 4343 7220 7365 6f70     IFARE PICC respo
   bc31c:	646e 6465 7720 7469 2068 414e 2e4b 0000     nded with NAK...

000bc32c <CSWTCH.84>:
   bc32c:	c242 000b c24b 000b c263 000b c278 000b     B...K...c...x...
   bc33c:	c292 000b c2ae 000b c2dd 000b c2ef 000b     ................
   bc34c:	c309 000b                                   ....

000bc350 <_ZTVN8particle11SPISettingsE>:
	...
   bc358:	6e69 000b 6e59 000b 6e5b 000b               in..Yn..[n..

000bc364 <_ZL12splash2_data>:
   bc364:	0000 0060 0000 0000 0000 0000 0000 0000     ..`.............
   bc374:	e000 0000 0000 0000 0000 0000 0000 0100     ................
   bc384:	00e0 0000 0000 0000 0000 0000 0000 f001     ................
	...
   bc3a0:	0300 00f0 0000 0000 0000 0000 0000 0000     ................
   bc3b0:	f007 0000 0000 0000 0000 0000 0000 0700     ................
   bc3c0:	00f8 0000 0000 0000 0000 0000 0000 f80f     ................
   bc3d0:	0000 0300 00c0 007e 0100 00e0 0f7f 00f8     ......~.........
   bc3e0:	0000 c003 fe00 0000 e001 ff00 f8ef 0000     ................
   bc3f0:	0300 00c0 00fe 0100 00e0 ffff 00f8 0000     ................
   bc400:	c003 f000 0000 0f00 7f00 7ffe 00c0 0300     ................
   bc410:	00c0 00f0 0000 000f fe3f f87f f13f cffb     ........?...?...
   bc420:	fefc bcf3 ef3d 1fe0 7ffe 7fff fffb fedf     ....=...........
   bc430:	fffe 3dbc e0ef c61f ffff fb7f dfff fefe     ...=............
   bc440:	bcff ef3d 0fe0 c7e3 78fe c37b 1ede fff0     ..=......x{.....
   bc450:	3dbc 00ef ff07 fc87 7b78 dec3 f01e 3cf8     .=......x{.....<
   bc460:	ef3d 0100 ffff 00f0 c37b 1ec0 f0f0 3d3c     =.......{.....<=
   bc470:	00ef f301 e07f fb3f cfc3 f0fe 3cf0 ef3d     ......?......<=.
   bc480:	0300 3fe3 7f80 c3fb fedf f0f0 3d3c 00ef     ...?........<=..
   bc490:	e707 003c 7b78 dec3 f01e 3cf0 ef3d 0700     ..<.x{.....<=...
   bc4a0:	beff 7800 c37b 1ede f0f0 3d3c 00ef ff07     ...x{.....<=....
   bc4b0:	00fe 7b78 dec3 f01e 3cf0 ef3d 0f00 feff     ..x{.....<=.....
   bc4c0:	7f00 fffb fedf f0f0 fd3f e0ef ff0f 00ff     ........?.......
   bc4d0:	fb7f dfff f0fe 3ff0 effd 0fe0 fff9 3e00     .......?.......>
   bc4e0:	f979 9ecf f0f0 3d1f e0e7 f11f 00ff 0000     y......=........
	...
   bc4f8:	1f00 ff80 7f00 ffff ffff ffff ffff e0ff     ................
   bc508:	001c 007f ff7f ffff b4fe 886d 188d 00e0     ..........m.....
   bc518:	1f00 7f00 ffff feff ad95 b57d e077 0000     ..........}.w...
   bc528:	000f ff7f ffff a5fe 9dad 198d 00e0 0600     ................
   bc538:	7f00 ffff feff adb5 b5ed e07e               ..........~.

000bc544 <_ZL14sucreLogo_data>:
   bc544:	ffff ffff ffff ffff ffff ffff ffff ffff     ................
   bc554:	ffff ffff ffff ffff ffff ffff ffff ffff     ................
   bc564:	ffff ffff ffff fff8 ffff ffff ffff ffff     ................
   bc574:	ffff ffff ffff 7fc0 ffff ffff ffff ffff     ................
   bc584:	ffff ffff feff 7f00 ffff ffff ffff ffff     ................
   bc594:	ffff ffff feff 7f00 ffff ffff ffff ffff     ................
   bc5a4:	ffff ffff feff 3f00 ffff ffff ffff ffff     .......?........
   bc5b4:	ffff ffff feff 3f00 ffff ffff ffff ffff     .......?........
   bc5c4:	ffff ffff 3ffc 3f00 ffff ffff ffff ffff     .....?.?........
   bc5d4:	ffff ffff 0ffc 1f00 ffff ffff ffff ffff     ................
   bc5e4:	ffff ffff 07fc 1f00 ffff ffff ffff ffff     ................
   bc5f4:	ffff ffff 07f8 3f00 ffff ffff ffff ffff     .......?........
   bc604:	ffff ffff 07f8 ff83 ffff ffff ffff ffff     ................
   bc614:	ffff ffff 0ff0 ffcf ffff ffff ffff ffff     ................
   bc624:	ffff ffff 0ff8 ffff ffff ffff ffff ffff     ................
   bc634:	ffff ffff 0ffe ffff ffff ffff ffff ffff     ................
   bc644:	ffff ffff 9fff ffff ffff ffff ffff ffff     ................
   bc654:	ffff ffff ffff ffff ffff ffff ffff ffff     ................
   bc664:	ffff ffff fcff ff1f ffff ffff ffff ffff     ................
   bc674:	ffff 7fc0 fcff ff0d 3fe0 03ef c0ff ff7f     .........?......
   bc684:	feff 3f00 f8f3 ff09 0780 01e4 00ff ff1f     ...?............
   bc694:	fcff 1f3f f8f3 ff09 c31f f8e0 3ffc ff87     ..?..........?..
   bc6a4:	f8ff ffff f8f3 fe09 f13f fce1 fff8 ffe3     ........?.......
   bc6b4:	f1ff ffff f8f3 fc19 f87f ffe3 fff1 ffe3     ................
   bc6c4:	e3ff ffff fff3 f819 fcff ffe7 ffe3 ffc7     ................
   bc6d4:	e7ff ffff fff3 f1f9 feff ffe7 ffe7 ff8f     ................
   bc6e4:	c7ff ffff e7f3 f3f9 ffff ffe7 ffe7 ff1f     ................
   bc6f4:	cfff ffff c3f3 f3f9 ffff ffe7 fec7 ff3f     ..............?.
   bc704:	cfff ffff 81f3 f3f9 ffff ffe7 fccf ff7f     ................
   bc714:	c0ff 0000 00f3 e3f9 ffff ffe7 f8cf ffff     ................
   bc724:	c0ff 0000 0072 e379 ffff ffe7 f1cf ffff     ....r.y.........
   bc734:	feff 0000 0072 e379 ffff ffe7 e3cf ffff     ....r.y.........
   bc744:	ffff fcff 00f3 f3f9 ffff ffe7 c7c7 ffff     ................
   bc754:	ffff fcff 81f3 f3f9 ffff ffe7 8fc7 ffff     ................
   bc764:	ffff f8ff c3f3 f1f9 ffff ffe7 1fe7 ffff     ................
   bc774:	ffff f9ff e7f1 f9f1 fcff ffe7 3fe2 fffb     .............?..
   bc784:	ffff f1ff fff8 f8f1 fcff ffe7 7ff0 fff3     ................
   bc794:	ffff e3ff fffc fce1 f87f ffe7 fff8 ffe3     ................
   bc7a4:	feff c77f 3ffc fe81 e13f ffe7 7ffc ffc7     .....?..?.......
   bc7b4:	feff 0f1e 0efe ff09 8307 ffe7 0efe ff0f     ................
   bc7c4:	ffff 1f00 80ff ff39 0fc0 ffe7 00ff ff1f     ......9.........
   bc7d4:	ffff ffe0 e0ff ffff 7ff0 ffff e0ff ffff     ................
   bc7e4:	ffff ffff ffff ffff ffff ffff ffff ffff     ................
   bc7f4:	ffff ffff ffff ffff ffff ffff ffff ffff     ................
   bc804:	ffff ffff ffff ffff ffff ffff ffff ffff     ................
   bc814:	ffff ffff ffff ffff ffff ffff ffff ffff     ................
   bc824:	ffff ffff ffff ffff ffff ffff ffff ffff     ................
   bc834:	ffff ffff ffff ffff ffff ffff ffff ffff     ................
   bc844:	ffff ffff ffff ffff cfff ffff ffff ffff     ................
   bc854:	ffff ffff ffff ffff 9fff ffff ffff ffff     ................
   bc864:	ffff ffff ffff ffff 3fff feff 7cf6 ffff     .........?...|..
   bc874:	ffff ffff ffff ffff 7cff feff fce7 ffe7     .........|......
   bc884:	ffff ffff ffff ffff 78ff fe7c fccf ffc7     .........x|.....
   bc894:	ffff ffff ffff ffff 39ff fe31 e1df ff9f     .........91.....
   bc8a4:	ffff ffff ffff ffff 03fe fe93 413e ff8f     ............>A..
   bc8b4:	ffff ffff ffff ffff 33ff feb7 9c1e ffe3     .........3......
   bc8c4:	ffff ffff ffff ffff 73ff fe37 1dc6 ffbb     .........s7.....
   bc8d4:	ffff ffff ffff ffff 38ff fe27 9df2 ff39     .........8'...9.
   bc8e4:	ffff ffff ffff ffff 3cff fe67 417a ff93     .........<g.zA..
   bc8f4:	ffff ffff ffff ffff 3fff ffe7 61fe ff87     .........?...a..
   bc904:	ffff ffff ffff ffff ffff ffff fdff ffff     ................
   bc914:	ffff ffff ffff ffff ffff ffff fdff ffff     ................
   bc924:	ffff ffff ffff ffff ffff ffff ffff ffff     ................
   bc934:	ffff ffff ffff ffff ffff ffff ffff ffff     ................

000bc944 <_ZTV16Adafruit_SSD1306>:
	...
   bc94c:	848d 000b 84a5 000b 78d9 000b 9891 000b     .........x......
   bc95c:	84b9 000b 6f7b 000b 6f7d 000b 6faf 000b     ....{o..}o...o..
   bc96c:	6f8b 000b 6f9d 000b 6ebd 000b 6f7b 000b     .o...o...n..{o..
   bc97c:	71a7 000b 864b 000b 8be7 000b 8b99 000b     .q..K...........
   bc98c:	703f 000b 7085 000b 70a1 000b 7125 000b     ?p...p...p..%q..

000bc99c <_ZZN16Adafruit_SSD130621drawFastVLineInternalEssstE7premask>:
   bc99c:	8000 e0c0 f8f0 fefc                         ........

000bc9a4 <_ZZN16Adafruit_SSD130621drawFastVLineInternalEssstE8postmask>:
   bc9a4:	0100 0703 1f0f 7f3f                         ......?.

000bc9ac <_ZZN16Adafruit_SSD13065beginEhhbbE5init1>:
   bc9ac:	d5ae a880                                   ....

000bc9b0 <_ZZN16Adafruit_SSD13065beginEhhbbE5init2>:
   bc9b0:	00d3 8d40                                   ..@.

000bc9b4 <_ZZN16Adafruit_SSD13065beginEhhbbE5init3>:
   bc9b4:	0020 c8a1                                    ...

000bc9b8 <_ZZN16Adafruit_SSD13065beginEhhbbE5init5>:
   bc9b8:	40db a6a4 af2e                              .@....

000bc9be <_ZZN16Adafruit_SSD13065beginEhhbbE6init4a>:
   bc9be:	02da 8f81                                   ....

000bc9c2 <_ZZN16Adafruit_SSD13065beginEhhbbE6init4b>:
   bc9c2:	12da                                         ...

000bc9c5 <_ZZN16Adafruit_SSD13065beginEhhbbE6init4c>:
   bc9c5:	02da                                         ...

000bc9c8 <_ZZN16Adafruit_SSD13067displayEvE6dlist1>:
   bc9c8:	0022 21ff 0000 0000                         "..!....

000bc9d0 <_ZTVN5spark13EthernetClassE>:
	...
   bc9d8:	9497 000b 948d 000b 9483 000b 9479 000b     ............y...
   bc9e8:	946d 000b 9461 000b 9fbd 000b 9fc5 000b     m...a...........
   bc9f8:	9455 000b 944d 000b 9443 000b 9439 000b     U...M...C...9...
   bca08:	9ff5 000b                                   ....

000bca0c <_ZN12_GLOBAL__N_1L14clock_divisorsE>:
   bca0c:	0800 1810 2820 3830 7061 0070 5925 252d     .... (08app.%Y-%
   bca1c:	2d6d 6425 2554 3a48 4d25 253a 2553 007a     m-%dT%H:%M:%S%z.
   bca2c:	7361 7463 6d69 0065                         asctime.

000bca34 <_ZTV9IPAddress>:
	...
   bca3c:	9b6d 000b 9b5d 000b 9b5f 000b               m...]..._...

000bca48 <_ZTV9USBSerial>:
	...
   bca50:	9c53 000b 9cbb 000b 9c91 000b 9891 000b     S...............
   bca60:	9c83 000b 9c55 000b 9c65 000b 9cb5 000b     ....U...e.......
   bca70:	9c75 000b 9c4d 000b                         u...M...

000bca78 <_ZTV11USARTSerial>:
	...
   bca80:	9db1 000b 9e1d 000b 9df5 000b 9891 000b     ................
   bca90:	9dc5 000b 9de1 000b 9dd3 000b 9def 000b     ................
   bcaa0:	9db3 000b 9db7 000b                         ........

000bcaa8 <_ZTV7TwoWire>:
	...
   bcab0:	9e55 000b 9e9f 000b 9e77 000b 9e57 000b     U.......w...W...
   bcac0:	9e7f 000b 9e87 000b 9e8f 000b 9e97 000b     ................

000bcad0 <_ZTVN5spark9WiFiClassE>:
	...
   bcad8:	9f5f 000b 9f55 000b 9f4b 000b 9f01 000b     _...U...K.......
   bcae8:	9f3f 000b 9f33 000b 9fbd 000b 9fc5 000b     ?...3...........
   bcaf8:	9f27 000b 9f1f 000b 9f15 000b 9f0b 000b     '...............
   bcb08:	9ff5 000b                                   ....

000bcb0c <_ZTVN5spark12NetworkClassE>:
	...
   bcb14:	9f7d 000b 9f87 000b 9f91 000b 9f9b 000b     }...............
   bcb24:	9fa5 000b 9fb1 000b 9fbd 000b 9fc5 000b     ................
   bcb34:	9fcd 000b 9fd9 000b 9fe1 000b 9feb 000b     ................
   bcb44:	9ff5 000b                                   ....

000bcb48 <_ZSt7nothrow>:
   bcb48:	5200 4545 544e 6d20 6c61 6f6c 2063 7573     .REENT malloc su
   bcb58:	6363 6565 6564 0064 6d2f 746e 772f 726f     cceeded./mnt/wor
   bcb68:	736b 6170 6563 772f 726f 736b 6170 6563     kspace/workspace
   bcb78:	472f 4343 312d 2d30 6970 6570 696c 656e     /GCC-10-pipeline
   bcb88:	6a2f 6e65 696b 736e 472d 4343 312d 2d30     /jenkins-GCC-10-
   bcb98:	6970 6570 696c 656e 342d 5f38 3032 3032     pipeline-48_2020
   bcba8:	3131 3432 315f 3036 3136 3038 3436 2f31     1124_1606180641/
   bcbb8:	7273 2f63 656e 6c77 6269 6e2f 7765 696c     src/newlib/newli
   bcbc8:	2f62 696c 6362 732f 6474 696c 2f62 6172     b/libc/stdlib/ra
   bcbd8:	646e 632e 2f00 6e6d 2f74 6f77 6b72 7073     nd.c./mnt/worksp
   bcbe8:	6361 2f65 6f77 6b72 7073 6361 2f65 4347     ace/workspace/GC
   bcbf8:	2d43 3031 702d 7069 6c65 6e69 2f65 656a     C-10-pipeline/je
   bcc08:	6b6e 6e69 2d73 4347 2d43 3031 702d 7069     nkins-GCC-10-pip
   bcc18:	6c65 6e69 2d65 3834 325f 3230 3130 3231     eline-48_2020112
   bcc28:	5f34 3631 3630 3831 3630 3134 732f 6372     4_1606180641/src
   bcc38:	6e2f 7765 696c 2f62 656e 6c77 6269 6c2f     /newlib/newlib/l
   bcc48:	6269 2f63 7473 6972 676e 732f 7274 6f74     ibc/string/strto
   bcc58:	2e6b 0063                                   k.c.

000bcc5c <link_const_variable_data_end>:
   bcc5c:	000b53a1 	.word	0x000b53a1
   bcc60:	000b94a1 	.word	0x000b94a1
   bcc64:	000b9619 	.word	0x000b9619
   bcc68:	000b9881 	.word	0x000b9881
   bcc6c:	000b99b9 	.word	0x000b99b9
   bcc70:	000b99c9 	.word	0x000b99c9
   bcc74:	000b99e5 	.word	0x000b99e5
   bcc78:	000b9f69 	.word	0x000b9f69
   bcc7c:	000ba0cd 	.word	0x000ba0cd
